 loader7

 Timestamp is 39f580d5 (Tue Oct 24 14:30:13 2000)

 Preferred load address is 00400000

 Start         Length     Name                   Class
 0001:00000000 001476caH .text                   CODE
 0001:001476d0 00005070H .text$x                 CODE
 0002:00000000 00000484H .idata$5                DATA
 0002:00000490 00003e48H .rdata                  DATA
 0002:000042d8 0000088cH .rdata$r                DATA
 0002:00004b68 00007530H .xdata$x                DATA
 0002:0000c098 000000c8H .idata$2                DATA
 0002:0000c160 00000014H .idata$3                DATA
 0002:0000c174 00000484H .idata$4                DATA
 0002:0000c5f8 000012fcH .idata$6                DATA
 0002:0000d900 0000005bH .edata                  DATA
 0003:00000000 00000004H .CRT$XCA                DATA
 0003:00000004 00000140H .CRT$XCU                DATA
 0003:00000144 00000004H .CRT$XCZ                DATA
 0003:00000148 00000004H .CRT$XIA                DATA
 0003:0000014c 0000000cH .CRT$XIC                DATA
 0003:00000158 00000004H .CRT$XIY                DATA
 0003:0000015c 00000004H .CRT$XIZ                DATA
 0003:00000160 00000004H .CRT$XPA                DATA
 0003:00000164 00000004H .CRT$XPX                DATA
 0003:00000168 00000004H .CRT$XPZ                DATA
 0003:0000016c 00000004H .CRT$XTA                DATA
 0003:00000170 00000004H .CRT$XTB                DATA
 0003:00000174 00000004H .CRT$XTZ                DATA
 0003:00000180 000135c0H .data                   DATA
 0003:00013740 0005106cH .bss                    DATA
 0004:00000000 00000590H .data1                  DATA
 0005:00000000 000000e8H .rsrc$01                DATA
 0005:000000f0 00000368H .rsrc$02                DATA

  Address         Publics by Value              Rva+Base     Lib:Object

 0001:00000000       ??0CUREImageFromMDO@@QAE@PAUmdobitmap@@_NJJJJ@Z 00401000 f   CUREImageFromMDO.obj
 0001:00000270       ??_ECUREImageFromMDO@@UAEPAXI@Z 00401270 f i CUREImageFromMDO.obj
 0001:00000270       ??_GCUREImageFromMDO@@UAEPAXI@Z 00401270 f i CUREImageFromMDO.obj
 0001:00000290       ??1CUREImageFromMDO@@UAE@XZ 00401290 f   CUREImageFromMDO.obj
 0001:000003c0       ??1CUREImage@@UAE@XZ       004013c0 f i CUREImageFromMDO.obj
 0001:000003d0       ??_GCUREImage@@UAEPAXI@Z   004013d0 f i CUREImageFromMDO.obj
 0001:000003d0       ??_ECUREImage@@UAEPAXI@Z   004013d0 f i CUREImageFromMDO.obj
 0001:000003f0       ?rotationFromAngleAxis@@YAXXZ 004013f0 f   Dev3d.obj
 0001:000004a0       ?rotationGetAngleAxis@@YAXXZ 004014a0 f   Dev3d.obj
 0001:00000530       ?rotationFromDirection@@YAXXZ 00401530 f   Dev3d.obj
 0001:00000590       ?rotationFromProduct@@YAXXZ 00401590 f   Dev3d.obj
 0001:00000670       ?rotationFromInverse@@YAXXZ 00401670 f   Dev3d.obj
 0001:000006e0       ?rotationGetDirection@@YAXXZ 004016e0 f   Dev3d.obj
 0001:00000710       ?rotationGetNormal@@YAXXZ  00401710 f   Dev3d.obj
 0001:00000740       ?rotationGetPerpendicular@@YAXXZ 00401740 f   Dev3d.obj
 0001:00000770       ?rotationTransform@@YAXXZ  00401770 f   Dev3d.obj
 0001:00000860       ?animCreate@@YAXXZ         00401860 f   Dev3dAnim.obj
 0001:00000900       ?animDestroy@@YAXXZ        00401900 f   Dev3dAnim.obj
 0001:00000a30       ?animMergeFromFile@@YAXXZ  00401a30 f   Dev3dAnim.obj
 0001:00000b00       ?animGetTimeLength@@YAXXZ  00401b00 f   Dev3dAnim.obj
 0001:00000b80       ?animMakeRelative@@YAXXZ   00401b80 f   Dev3dAnim.obj
 0001:00000c00       ?animGetObjectPosition@@YAXXZ 00401c00 f   Dev3dAnim.obj
 0001:00000ce0       ?animGetObjectRotation@@YAXXZ 00401ce0 f   Dev3dAnim.obj
 0001:00000df0       ?animatorCreate@@YAXXZ     00401df0 f   Dev3dAnim.obj
 0001:00001060       ?animatorDestroy@@YAXXZ    00402060 f   Dev3dAnim.obj
 0001:000010f0       ??1DevAnimator@@QAE@XZ     004020f0 f i Dev3dAnim.obj
 0001:00001250       ?animatorAnimate@@YAXXZ    00402250 f   Dev3dAnim.obj
 0001:000012b0       ?animatorLink@@YAXXZ       004022b0 f   Dev3dAnim.obj
 0001:000014f0       ?animatorUnlink@@YAXXZ     004024f0 f   Dev3dAnim.obj
 0001:000015e0       ?animatorUnlinkAll@@YAXXZ  004025e0 f   Dev3dAnim.obj
 0001:00001620       ?characterSetRotationIni@@YAXXZ 00402620 f   Dev3dAnim.obj
 0001:000016e0       ?characterSetAnimMode@@YAXXZ 004026e0 f   Dev3dAnim.obj
 0001:00001790       ?characterUnlinkRootNode@@YAXXZ 00402790 f   Dev3dAnim.obj
 0001:00001820       ?characterGetPosition@@YAXXZ 00402820 f   Dev3dAnim.obj
 0001:000018c0       ?characterGetRotation@@YAXXZ 004028c0 f   Dev3dAnim.obj
 0001:00001960       ?characterSetPosition@@YAXXZ 00402960 f   Dev3dAnim.obj
 0001:00001a10       ?characterSetRotation@@YAXXZ 00402a10 f   Dev3dAnim.obj
 0001:00001ad0       ?end@?$list@UTrackAndAnimId@DevAnimator@@V?$__default_alloc_template@$00$0A@@@@@QAE?AU?$_List_iterator@UTrackAndAnimId@DevAnimator@@AAU12@PAU12@@@XZ 00402ad0 f i Dev3dAnim.obj
 0001:00001ae0       ?erase@?$list@UTrackAndAnimId@DevAnimator@@V?$__default_alloc_template@$00$0A@@@@@QAE?AU?$_List_iterator@UTrackAndAnimId@DevAnimator@@AAU12@PAU12@@@U2@@Z 00402ae0 f i Dev3dAnim.obj
 0001:00001b10       ??0?$_List_iterator@UTrackAndAnimId@DevAnimator@@AAU12@PAU12@@@QAE@ABU0@@Z 00402b10 f i Dev3dAnim.obj
 0001:00001b20       ??E?$_List_iterator@UTrackAndAnimId@DevAnimator@@AAU12@PAU12@@@QAE?AU0@H@Z 00402b20 f i Dev3dAnim.obj
 0001:00001b30       ??0?$list@PAVDevAnimator@@V?$__default_alloc_template@$00$0A@@@@@QAE@ABV?$__default_alloc_template@$00$0A@@@@Z 00402b30 f i Dev3dAnim.obj
 0001:00001bf0       ?end@?$list@PAVDevAnimator@@V?$__default_alloc_template@$00$0A@@@@@QAE?AU?$_List_iterator@PAVDevAnimator@@AAPAV1@PAPAV1@@@XZ 00402bf0 f i Dev3dAnim.obj
 0001:00001c00       ??1?$list@PAVDevAnimator@@V?$__default_alloc_template@$00$0A@@@@@QAE@XZ 00402c00 f i Dev3dAnim.obj
 0001:00001d60       ??0?$_List_iterator@PAVDevAnimator@@AAPAV1@PAPAV1@@@QAE@ABU0@@Z 00402d60 f i Dev3dAnim.obj
 0001:00001d70       ?insert@?$list@UTrackAndAnimId@DevAnimator@@V?$__default_alloc_template@$00$0A@@@@@QAE?AU?$_List_iterator@UTrackAndAnimId@DevAnimator@@AAU12@PAU12@@@U2@ABUTrackAndAnimId@DevAnimator@@@Z 00402d70 f i Dev3dAnim.obj
 0001:00001da0       ?insert@?$list@PAVDevAnimator@@V?$__default_alloc_template@$00$0A@@@@@QAE?AU?$_List_iterator@PAVDevAnimator@@AAPAV1@PAPAV1@@@U2@ABQAVDevAnimator@@@Z 00402da0 f i Dev3dAnim.obj
 0001:00001dd0       ?deallocate@?$__default_alloc_template@$00$0A@@@SAXPAXI@Z 00402dd0 f i Dev3dAnim.obj
 0001:00001f10       ?_M_create_node@?$list@UTrackAndAnimId@DevAnimator@@V?$__default_alloc_template@$00$0A@@@@@IAEPAU?$_List_node@UTrackAndAnimId@DevAnimator@@@@ABUTrackAndAnimId@DevAnimator@@@Z 00402f10 f i Dev3dAnim.obj
 0001:00001fd0       ?_M_create_node@?$list@PAVDevAnimator@@V?$__default_alloc_template@$00$0A@@@@@IAEPAU?$_List_node@PAVDevAnimator@@@@ABQAVDevAnimator@@@Z 00402fd0 f i Dev3dAnim.obj
 0001:00002090       ??1_Lock@?$__default_alloc_template@$00$0A@@@QAE@XZ 00403090 f i Dev3dAnim.obj
 0001:000020a0       ?erase@?$list@PAVDevAnimator@@V?$__default_alloc_template@$00$0A@@@@@QAE?AU?$_List_iterator@PAVDevAnimator@@AAPAV1@PAPAV1@@@U2@@Z 004030a0 f i Dev3dAnim.obj
 0001:000020d0       ?_S_chunk_alloc@?$__default_alloc_template@$00$0A@@@CAPADIAAH@Z 004030d0 f i Dev3dAnim.obj
 0001:00002250       ??0bad_alloc@std@@QAE@PBD@Z 00403250 f i Dev3dAnim.obj
 0001:00002270       ??1bad_alloc@std@@UAE@XZ   00403270 f i Dev3dAnim.obj
 0001:00002280       ?_Doraise@bad_alloc@std@@MBEXXZ 00403280 f i Dev3dAnim.obj
 0001:000022a0       ??_Ebad_alloc@std@@UAEPAXI@Z 004032a0 f i Dev3dAnim.obj
 0001:000022a0       ??_Gbad_alloc@std@@UAEPAXI@Z 004032a0 f i Dev3dAnim.obj
 0001:000022c0       ??0bad_alloc@std@@QAE@ABV01@@Z 004032c0 f i Dev3dAnim.obj
 0001:000022e0       ?_M_acquire_lock@_STL_mutex_lock@@QAEXXZ 004032e0 f i Dev3dAnim.obj
 0001:000023d0       ?cameraCreate@@YAXXZ       004033d0 f   Dev3dCamera.obj
 0001:00002550       ?cameraDestroy@@YAXXZ      00403550 f   Dev3dCamera.obj
 0001:000025a0       ?cameraGetName@@YAXXZ      004035a0 f   Dev3dCamera.obj
 0001:000025f0       ?cameraGetParent@@YAXXZ    004035f0 f   Dev3dCamera.obj
 0001:000026a0       ?cameraSetParent@@YAXXZ    004036a0 f   Dev3dCamera.obj
 0001:000026f0       ?cameraGetPosition@@YAXXZ  004036f0 f   Dev3dCamera.obj
 0001:00002750       ?cameraSetPosition@@YAXXZ  00403750 f   Dev3dCamera.obj
 0001:000027b0       ?cameraGetTarget@@YAXXZ    004037b0 f   Dev3dCamera.obj
 0001:00002810       ?cameraSetTarget@@YAXXZ    00403810 f   Dev3dCamera.obj
 0001:00002870       ?cameraGetFarClipping@@YAXXZ 00403870 f   Dev3dCamera.obj
 0001:000028c0       ?cameraSetFarClipping@@YAXXZ 004038c0 f   Dev3dCamera.obj
 0001:00002900       ?cameraGetFOV@@YAXXZ       00403900 f   Dev3dCamera.obj
 0001:00002950       ?cameraSetFOV@@YAXXZ       00403950 f   Dev3dCamera.obj
 0001:00002990       ?cameraGetRoll@@YAXXZ      00403990 f   Dev3dCamera.obj
 0001:000029e0       ?cameraSetRoll@@YAXXZ      004039e0 f   Dev3dCamera.obj
 0001:00002a20       ?cameraGetFogStart@@YAXXZ  00403a20 f   Dev3dCamera.obj
 0001:00002a70       ?cameraSetFogStart@@YAXXZ  00403a70 f   Dev3dCamera.obj
 0001:00002ab0       ?cameraGetFogEnd@@YAXXZ    00403ab0 f   Dev3dCamera.obj
 0001:00002b00       ?cameraSetFogEnd@@YAXXZ    00403b00 f   Dev3dCamera.obj
 0001:00002b40       ?cameraGetWorldTransformation@@YAXXZ 00403b40 f   Dev3dCamera.obj
 0001:00002ba0       ?lightCreate@@YAXXZ        00403ba0 f   Dev3dLight.obj
 0001:00002e10       ?lightDestroy@@YAXXZ       00403e10 f   Dev3dLight.obj
 0001:00002e60       ?lightGetName@@YAXXZ       00403e60 f   Dev3dLight.obj
 0001:00002eb0       ?lightGetType@@YAXXZ       00403eb0 f   Dev3dLight.obj
 0001:00002f60       ?lightGetParent@@YAXXZ     00403f60 f   Dev3dLight.obj
 0001:00003010       ?lightSetParent@@YAXXZ     00404010 f   Dev3dLight.obj
 0001:00003060       ?lightGetPosition@@YAXXZ   00404060 f   Dev3dLight.obj
 0001:000030c0       ?lightSetPosition@@YAXXZ   004040c0 f   Dev3dLight.obj
 0001:00003120       ?lightGetAttenuationStart@@YAXXZ 00404120 f   Dev3dLight.obj
 0001:00003170       ?lightSetAttenuationStart@@YAXXZ 00404170 f   Dev3dLight.obj
 0001:000031b0       ?lightGetAttenuationEnd@@YAXXZ 004041b0 f   Dev3dLight.obj
 0001:00003200       ?lightSetAttenuationEnd@@YAXXZ 00404200 f   Dev3dLight.obj
 0001:00003240       ?lightGetPower@@YAXXZ      00404240 f   Dev3dLight.obj
 0001:00003290       ?lightSetPower@@YAXXZ      00404290 f   Dev3dLight.obj
 0001:000032d0       ?lightGetTarget@@YAXXZ     004042d0 f   Dev3dLight.obj
 0001:00003350       ?lightSetTarget@@YAXXZ     00404350 f   Dev3dLight.obj
 0001:000033d0       ?lightGetHotSize@@YAXXZ    004043d0 f   Dev3dLight.obj
 0001:00003440       ?lightSetHotSize@@YAXXZ    00404440 f   Dev3dLight.obj
 0001:000034a0       ?lightGetFallSize@@YAXXZ   004044a0 f   Dev3dLight.obj
 0001:00003510       ?lightSetFallSize@@YAXXZ   00404510 f   Dev3dLight.obj
 0001:00003570       ?lightGetWorldTransformation@@YAXXZ 00404570 f   Dev3dLight.obj
 0001:000035d0       ?materialGetName@@YAXXZ    004045d0 f   Dev3dMaterial.obj
 0001:00003620       ?materialSetAmbientColor@@YAXXZ 00404620 f   Dev3dMaterial.obj
 0001:000036c0       ?materialSetDiffuseColor@@YAXXZ 004046c0 f   Dev3dMaterial.obj
 0001:00003760       ?materialSetSpecularColor@@YAXXZ 00404760 f   Dev3dMaterial.obj
 0001:00003800       ?materialSetShininess@@YAXXZ 00404800 f   Dev3dMaterial.obj
 0001:00003870       ?materialSetSelfIllum@@YAXXZ 00404870 f   Dev3dMaterial.obj
 0001:000038e0       ?materialSetTextureAmount@@YAXXZ 004048e0 f   Dev3dMaterial.obj
 0001:00003950       ?materialSetTwoSided@@YAXXZ 00404950 f   Dev3dMaterial.obj
 0001:000039a0       ?materialSetTextureCrop@@YAXXZ 004049a0 f   Dev3dMaterial.obj
 0001:00003a70       ?materialPrepare@@YAXXZ    00404a70 f   Dev3dMaterial.obj
 0001:00003b10       ?materialCreate@@YAXXZ     00404b10 f   Dev3dMaterial.obj
 0001:00003cf0       ?materialSetTexture@@YAXXZ 00404cf0 f   Dev3dMaterial.obj
 0001:00003da0       ?materialGetAmbientColor@@YAXXZ 00404da0 f   Dev3dMaterial.obj
 0001:00003e10       ?materialGetDiffuseColor@@YAXXZ 00404e10 f   Dev3dMaterial.obj
 0001:00003e80       ?materialGetSpecularColor@@YAXXZ 00404e80 f   Dev3dMaterial.obj
 0001:00003ef0       ?materialGetShininess@@YAXXZ 00404ef0 f   Dev3dMaterial.obj
 0001:00003f40       ?materialGetSelfIllum@@YAXXZ 00404f40 f   Dev3dMaterial.obj
 0001:00003f90       ?materialGetTextureAmount@@YAXXZ 00404f90 f   Dev3dMaterial.obj
 0001:00003fe0       ?materialGetTwoSided@@YAXXZ 00404fe0 f   Dev3dMaterial.obj
 0001:00004030       ?materialGetTexture@@YAXXZ 00405030 f   Dev3dMaterial.obj
 0001:00004080       ?materialGetTextureCrop@@YAXXZ 00405080 f   Dev3dMaterial.obj
 0001:00004110       ?obj3DGetName@@YAXXZ       00405110 f   Dev3dObject.obj
 0001:00004160       ?obj3DGetPosition@@YAXXZ   00405160 f   Dev3dObject.obj
 0001:000041c0       ?obj3DSetPosition@@YAXXZ   004051c0 f   Dev3dObject.obj
 0001:00004220       ?obj3DGetRotation@@YAXXZ   00405220 f   Dev3dObject.obj
 0001:00004290       ?obj3DSetRotation@@YAXXZ   00405290 f   Dev3dObject.obj
 0001:00004300       ?obj3DGetScale@@YAXXZ      00405300 f   Dev3dObject.obj
 0001:00004360       ?obj3DSetScale@@YAXXZ      00405360 f   Dev3dObject.obj
 0001:000043c0       ?obj3DGetParent@@YAXXZ     004053c0 f   Dev3dObject.obj
 0001:00004470       ?obj3DSetParent@@YAXXZ     00405470 f   Dev3dObject.obj
 0001:000044c0       ?obj3DGetNbMorphTargets@@YAXXZ 004054c0 f   Dev3dObject.obj
 0001:00004510       ?obj3DAddMorphTargetFromObject@@YAXXZ 00405510 f   Dev3dObject.obj
 0001:000046b0       ?obj3DAddMorphTargetFromMesh@@YAXXZ 004056b0 f   Dev3dObject.obj
 0001:000048c0       ?obj3DSetMorphAmount@@YAXXZ 004058c0 f   Dev3dObject.obj
 0001:00004980       ?obj3DDuplicate@@YAXXZ     00405980 f   Dev3dObject.obj
 0001:00004fe0       ?obj3DLookAt@@YAXXZ        00405fe0 f   Dev3dObject.obj
 0001:00005100       ?obj3DGetWorldTransformation@@YAXXZ 00406100 f   Dev3dObject.obj
 0001:000051c0       ?obj3DSetVisible@@YAXXZ    004061c0 f   Dev3dObject.obj
 0001:00005210       ?obj3DGetVisible@@YAXXZ    00406210 f   Dev3dObject.obj
 0001:00005260       ?obj3DTextureOffset@@YAXXZ 00406260 f   Dev3dObject.obj
 0001:000052e0       ?obj3DGetNbMaterials@@YAXXZ 004062e0 f   Dev3dObject.obj
 0001:00005330       ?obj3DGetMaterial@@YAXXZ   00406330 f   Dev3dObject.obj
 0001:00005460       ?obj3DSetMaterial@@YAXXZ   00406460 f   Dev3dObject.obj
 0001:00005550       ?obj3DGetRenderMode@@YAXXZ 00406550 f   Dev3dObject.obj
 0001:00005630       ?obj3DSetRenderMode@@YAXXZ 00406630 f   Dev3dObject.obj
 0001:000056d0       ?sceneCreate@@YAXXZ        004066d0 f   Dev3dScene.obj
 0001:00005780       ?sceneDestroy@@YAXXZ       00406780 f   Dev3dScene.obj
 0001:000057c0       ?sceneMergeFromFile@@YAXXZ 004067c0 f   Dev3dScene.obj
 0001:00005a20       ?sceneRemove@@YAXXZ        00406a20 f   Dev3dScene.obj
 0001:00005a80       ?sceneGetCameraByName@@YAXXZ 00406a80 f   Dev3dScene.obj
 0001:00005b50       ?sceneGetLightByName@@YAXXZ 00406b50 f   Dev3dScene.obj
 0001:00005c50       ?sceneGetObjectByName@@YAXXZ 00406c50 f   Dev3dScene.obj
 0001:00005d20       ?sceneGetMaterialByName@@YAXXZ 00406d20 f   Dev3dScene.obj
 0001:00005e10       ?sceneGetCamerasList@@YAXXZ 00406e10 f   Dev3dScene.obj
 0001:00006050       ?sceneGetLightsList@@YAXXZ 00407050 f   Dev3dScene.obj
 0001:000062b0       ?sceneGetObjectsList@@YAXXZ 004072b0 f   Dev3dScene.obj
 0001:000064f0       ?sceneGC@@YAXXZ            004074f0 f   Dev3dScene.obj
 0001:00006530       ?_S_nsec_sleep@_STL_mutex_lock@@SAXH@Z 00407530 f i Dev3dScene.obj
 0001:00006560       ??1?$list@PAVDIdent@@V?$__default_alloc_template@$00$0A@@@@@QAE@XZ 00407560 f i Dev3dScene.obj
 0001:000066c0       ?end@?$list@PAVDIdent@@V?$__default_alloc_template@$00$0A@@@@@QAE?AU?$_List_iterator@PAVDIdent@@AAPAV1@PAPAV1@@@XZ 004076c0 f i Dev3dScene.obj
 0001:000066d0       ?insert@?$list@PAVDIdent@@V?$__default_alloc_template@$00$0A@@@@@QAE?AU?$_List_iterator@PAVDIdent@@AAPAV1@PAPAV1@@@U2@ABQAVDIdent@@@Z 004076d0 f i Dev3dScene.obj
 0001:00006700       ??0?$_List_base@PAVDIdent@@V?$__default_alloc_template@$00$0A@@@@@QAE@ABV?$__default_alloc_template@$00$0A@@@@Z 00407700 f i Dev3dScene.obj
 0001:00006720       ??0?$_List_iterator@PAVDIdent@@AAPAV1@PAPAV1@@@QAE@ABU0@@Z 00407720 f i Dev3dScene.obj
 0001:00006730       ?allocate@?$__default_alloc_template@$00$0A@@@SAPAXI@Z 00407730 f i Dev3dScene.obj
 0001:00006960       ?_M_create_node@?$list@PAVDIdent@@V?$__default_alloc_template@$00$0A@@@@@IAEPAU?$_List_node@PAVDIdent@@@@ABQAVDIdent@@@Z 00407960 f i Dev3dScene.obj
 0001:00006a20       ?allocate@?$__malloc_alloc_template@$0A@@@SAPAXI@Z 00407a20 f i Dev3dScene.obj
 0001:00006a80       ??1?$CUREArray@PBD@@UAE@XZ 00407a80 f i Dev3dScene.obj
 0001:00006aa0       ?setReservoirSize@?$CUREArray@PBD@@QAE_NH@Z 00407aa0 f i Dev3dScene.obj
 0001:00006b40       ?distance@@YAXU?$_List_iterator@PAVCDEVPileElem@@ABQAV1@PBQAV1@@@0AAI@Z 00407b40 f i Dev3dScene.obj
 0001:00006b60       ??_E?$CUREArray@PBD@@UAEPAXI@Z 00407b60 f i Dev3dScene.obj
 0001:00006b60       ??_G?$CUREArray@PBD@@UAEPAXI@Z 00407b60 f i Dev3dScene.obj
 0001:00006ba0       ?getFileSize@MyCUREFileSystem@@EAEHPBD@Z 00407ba0 f i Dev3dTools.obj
 0001:00006bb0       ?loadFileToMemory@MyCUREFileSystem@@EAEHPBDAAPAXH@Z 00407bb0 f i Dev3dTools.obj
 0001:00006c60       ?releaseMemoryOfFile@MyCUREFileSystem@@EAEXPAX@Z 00407c60 f i Dev3dTools.obj
 0001:00006c70       ?loadImage@MyCUREFileSystem@@EAE_NPBDAAPAVCUREImage@@PAVCUREFString@@@Z 00407c70 f i Dev3dTools.obj
 0001:00006f40       ?Init3D@@YA_NXZ            00407f40 f   Dev3dTools.obj
 0001:00007070       ?Close3D@@YAXXZ            00408070 f   Dev3dTools.obj
 0001:00007090       ?getWorldInstance@@YAPAVWorld3D@@XZ 00408090 f   Dev3dTools.obj
 0001:000070a0       ?getWorldBpp@@YAHXZ        004080a0 f   Dev3dTools.obj
 0001:000070b0       ?getWorldBytesPerPixel@@YAHXZ 004080b0 f   Dev3dTools.obj
 0001:00007110       ?isWorldSoftware@@YA_NXZ   00408110 f   Dev3dTools.obj
 0001:00007120       ?GetStats3D@@YAXAAH0000@Z  00408120 f   Dev3dTools.obj
 0001:00007150       ?SetParamPoint3D@@YAXHABVPoint3D@@@Z 00408150 f   Dev3dTools.obj
 0001:000071c0       ?GetParamPoint3D@@YA?AVPoint3D@@H@Z 004081c0 f   Dev3dTools.obj
 0001:00007290       ?SetParamQuaternion@@YAXHABVQuaternion@@@Z 00408290 f   Dev3dTools.obj
 0001:00007310       ?GetParamQuaternion@@YA?AVQuaternion@@H@Z 00408310 f   Dev3dTools.obj
 0001:00007400       ?node3DGetIdent@@YAPAVDIdent@@PAVNode3D@@@Z 00408400 f   Dev3dTools.obj
 0001:000075c0       ?identGetNode3D@@YAPAVNode3D@@PAVDIdent@@@Z 004085c0 f   Dev3dTools.obj
 0001:00007670       ?retrieveSceneOfObject@@YAPAVScene3D@@PAVObjectNode@@@Z 00408670 f   Dev3dTools.obj
 0001:000076d0       ?retrieveSceneOfCamera@@YAPAVScene3D@@PAVCameraNode@@@Z 004086d0 f   Dev3dTools.obj
 0001:00007730       ?retrieveSceneOfLight@@YAPAVScene3D@@PAVLightNode@@@Z 00408730 f   Dev3dTools.obj
 0001:000077f0       ?longColorToPoint3D@@YA?AVPoint3D@@J@Z 004087f0 f   Dev3dTools.obj
 0001:00007870       ?point3DToLongColor@@YAJVPoint3D@@@Z 00408870 f   Dev3dTools.obj
 0001:000078b0       ?isObj3DPointed@@YA_NPAVView@@PAVObjectNode@@HHAAM@Z 004088b0 f   Dev3dTools.obj
 0001:00007d30       ?getWarpLocation@@YA_NPAVView@@HHAAM1AAH@Z 00408d30 f   Dev3dTools.obj
 0001:00008290       ??0Point3D@@QAE@MMM@Z      00409290 f i Dev3dTools.obj
 0001:000082b0       ??0Quaternion@@QAE@MMMM@Z  004092b0 f i Dev3dTools.obj
 0001:00008380       ??_GCUREBufferedImage@@UAEPAXI@Z 00409380 f i Dev3dTools.obj
 0001:00008380       ??_ECUREBufferedImage@@UAEPAXI@Z 00409380 f i Dev3dTools.obj
 0001:000083a0       ??1CUREBufferedImage@@UAE@XZ 004093a0 f i Dev3dTools.obj
 0001:000083f0       ?viewCreate@@YAXXZ         004093f0 f   Dev3dView.obj
 0001:00008640       ?viewDestroy@@YAXXZ        00409640 f   Dev3dView.obj
 0001:000086f0       ?viewGetCamera@@YAXXZ      004096f0 f   Dev3dView.obj
 0001:000087b0       ?viewGetBmp@@YAXXZ         004097b0 f   Dev3dView.obj
 0001:00008870       ?viewSetCamera@@YAXXZ      00409870 f   Dev3dView.obj
 0001:000088e0       ?viewRender@@YAXXZ         004098e0 f   Dev3dView.obj
 0001:00008950       ?viewIsObj3DPointed@@YAXXZ 00409950 f   Dev3dView.obj
 0001:00008a20       ?viewSetWarp@@YAXXZ        00409a20 f   Dev3dView.obj
 0001:00008aa0       ?viewSetWarpMode@@YAXXZ    00409aa0 f   Dev3dView.obj
 0001:00008b90       ?viewNotifyWarpChanged@@YAXXZ 00409b90 f   Dev3dView.obj
 0001:00008c10       ?viewGetWarpLocation@@YAXXZ 00409c10 f   Dev3dView.obj
 0001:00008d20       ?warpCreate@@YAXXZ         00409d20 f   Dev3dWarp.obj
 0001:00008f20       ?warpDestroy@@YAXXZ        00409f20 f   Dev3dWarp.obj
 0001:00009060       ?warpAddMasks@@YAXXZ       0040a060 f   Dev3dWarp.obj
 0001:00009130       ?warpRemoveMasks@@YAXXZ    0040a130 f   Dev3dWarp.obj
 0001:00009190       ?zoneCreateFromView@@YAXXZ 0040a190 f   Dev3dZones.obj
 0001:00009390       ??1MDOGenericZone@@UAE@XZ  0040a390 f i Dev3dZones.obj
 0001:000093a0       ??_GMDOGenericZone@@UAEPAXI@Z 0040a3a0 f i Dev3dZones.obj
 0001:000093a0       ??_EMDOGenericZone@@UAEPAXI@Z 0040a3a0 f i Dev3dZones.obj
 0001:000093c0       ?getClassId@MDOViewObj3DZone@@UAEJXZ 0040a3c0 f i Dev3dZones.obj
 0001:000093d0       ?getFocusData@MDOViewObj3DZone@@UAE_NHHAAPAX@Z 0040a3d0 f i Dev3dZones.obj
 0001:00009450       ?isFirstFocusBetter@MDOViewObj3DZone@@UAE_NPAX0@Z 0040a450 f i Dev3dZones.obj
 0001:00009470       ??_EMDOViewObj3DZone@@UAEPAXI@Z 0040a470 f i Dev3dZones.obj
 0001:00009470       ??_GMDOViewObj3DZone@@UAEPAXI@Z 0040a470 f i Dev3dZones.obj
 0001:00009490       ??1MDOViewObj3DZone@@UAE@XZ 0040a490 f i Dev3dZones.obj
 0001:00009540       ?zoneAddObj3D@@YAXXZ       0040a540 f   Dev3dZones.obj
 0001:00009640       ?zoneCreateFromWarp@@YAXXZ 0040a640 f   Dev3dZones.obj
 0001:00009860       ?getClassId@MDOViewWarpZone@@UAEJXZ 0040a860 f i Dev3dZones.obj
 0001:00009870       ?getFocusData@MDOViewWarpZone@@UAE_NHHAAPAX@Z 0040a870 f i Dev3dZones.obj
 0001:000099a0       ?isFirstFocusBetter@MDOViewWarpZone@@UAE_NPAX0@Z 0040a9a0 f i Dev3dZones.obj
 0001:000099b0       ??_EMDOViewWarpZone@@UAEPAXI@Z 0040a9b0 f i Dev3dZones.obj
 0001:000099b0       ??_GMDOViewWarpZone@@UAEPAXI@Z 0040a9b0 f i Dev3dZones.obj
 0001:000099d0       ??1MDOViewWarpZone@@UAE@XZ 0040a9d0 f i Dev3dZones.obj
 0001:00009a80       ?zoneAddWarpRect@@YAXXZ    0040aa80 f   Dev3dZones.obj
 0001:00009ba0       ?end@?$list@PAVObjectNode@@V?$__default_alloc_template@$00$0A@@@@@QAE?AU?$_List_iterator@PAVObjectNode@@AAPAV1@PAPAV1@@@XZ 0040aba0 f i Dev3dZones.obj
 0001:00009bb0       ??1?$list@PAVObjectNode@@V?$__default_alloc_template@$00$0A@@@@@QAE@XZ 0040abb0 f i Dev3dZones.obj
 0001:00009d10       ??0?$_List_iterator@PAVObjectNode@@AAPAV1@PAPAV1@@@QAE@ABU0@@Z 0040ad10 f i Dev3dZones.obj
 0001:00009d20       ?end@?$list@UWarpRect@MDOViewWarpZone@@V?$__default_alloc_template@$00$0A@@@@@QAE?AU?$_List_iterator@UWarpRect@MDOViewWarpZone@@AAU12@PAU12@@@XZ 0040ad20 f i Dev3dZones.obj
 0001:00009d30       ??1?$list@UWarpRect@MDOViewWarpZone@@V?$__default_alloc_template@$00$0A@@@@@QAE@XZ 0040ad30 f i Dev3dZones.obj
 0001:00009e90       ??0?$_List_iterator@UWarpRect@MDOViewWarpZone@@AAU12@PAU12@@@QAE@ABU0@@Z 0040ae90 f i Dev3dZones.obj
 0001:00009ea0       ?insert@?$list@PAVObjectNode@@V?$__default_alloc_template@$00$0A@@@@@QAE?AU?$_List_iterator@PAVObjectNode@@AAPAV1@PAPAV1@@@U2@ABQAVObjectNode@@@Z 0040aea0 f i Dev3dZones.obj
 0001:00009ed0       ?insert@?$list@UWarpRect@MDOViewWarpZone@@V?$__default_alloc_template@$00$0A@@@@@QAE?AU?$_List_iterator@UWarpRect@MDOViewWarpZone@@AAU12@PAU12@@@U2@ABUWarpRect@MDOViewWarpZone@@@Z 0040aed0 f i Dev3dZones.obj
 0001:00009f00       ?_M_create_node@?$list@PAVObjectNode@@V?$__default_alloc_template@$00$0A@@@@@IAEPAU?$_List_node@PAVObjectNode@@@@ABQAVObjectNode@@@Z 0040af00 f i Dev3dZones.obj
 0001:00009fc0       ?_M_create_node@?$list@UWarpRect@MDOViewWarpZone@@V?$__default_alloc_template@$00$0A@@@@@IAEPAU?$_List_node@UWarpRect@MDOViewWarpZone@@@@ABUWarpRect@MDOViewWarpZone@@@Z 0040afc0 f i Dev3dZones.obj
 0001:0000a080       ?DevaliasCreateIdent@@YAXXZ 0040b080 f   DevAlias.obj
 0001:0000a2f0       ?DevaliasGetIdent@@YAXXZ   0040b2f0 f   DevAlias.obj
 0001:0000a4a0       ?DevaliasDestroyIdent@@YAXXZ 0040b4a0 f   DevAlias.obj
 0001:0000a5a0       ?DevaliasCreateObj@@YAXXZ  0040b5a0 f   DevAlias.obj
 0001:0000a830       ?DevaliasGetObj@@YAXXZ     0040b830 f   DevAlias.obj
 0001:0000a9f0       ?DevaliasDestroyObj@@YAXXZ 0040b9f0 f   DevAlias.obj
 0001:0000aaf0       ?erase@?$map@PBDPAVDIdent@@Ueqstr@@V?$__default_alloc_template@$00$0A@@@@@QAEXU?$_Rb_tree_iterator@U?$pair@QBDPAVDIdent@@@@AAU1@PAU1@@@@Z 0040baf0 f i DevAlias.obj
 0001:0000ab10       ??0?$_Rb_tree_iterator@U?$pair@QBDPAVDIdent@@@@AAU1@PAU1@@@QAE@ABU0@@Z 0040bb10 f i DevAlias.obj
 0001:0000ab20       ?erase@?$map@PBDPAVDObj@@Ueqstr@@V?$__default_alloc_template@$00$0A@@@@@QAEXU?$_Rb_tree_iterator@U?$pair@QBDPAVDObj@@@@AAU1@PAU1@@@@Z 0040bb20 f i DevAlias.obj
 0001:0000ab40       ??0?$_Rb_tree_iterator@U?$pair@QBDPAVDObj@@@@AAU1@PAU1@@@QAE@ABU0@@Z 0040bb40 f i DevAlias.obj
 0001:0000ab50       ?insert@?$map@PBDPAVDIdent@@Ueqstr@@V?$__default_alloc_template@$00$0A@@@@@QAE?AU?$_Rb_tree_iterator@U?$pair@QBDPAVDIdent@@@@AAU1@PAU1@@@U2@ABU?$pair@QBDPAVDIdent@@@@@Z 0040bb50 f i DevAlias.obj
 0001:0000ab80       ?insert@?$map@PBDPAVDObj@@Ueqstr@@V?$__default_alloc_template@$00$0A@@@@@QAE?AU?$_Rb_tree_iterator@U?$pair@QBDPAVDObj@@@@AAU1@PAU1@@@U2@ABU?$pair@QBDPAVDObj@@@@@Z 0040bb80 f i DevAlias.obj
 0001:0000abb0       ?insert_unique@?$_Rb_tree@PBDU?$pair@QBDPAVDIdent@@@@U?$_Select1st@U?$pair@QBDPAVDIdent@@@@@@Ueqstr@@V?$__default_alloc_template@$00$0A@@@@@QAE?AU?$_Rb_tree_iterator@U?$pair@QBDPAVDIdent@@@@AAU1@PAU1@@@U2@ABU?$pair@QBDPAVDIdent@@@@@Z 0040bbb0 f i DevAlias.obj
 0001:0000b020       ?erase@?$_Rb_tree@PBDU?$pair@QBDPAVDIdent@@@@U?$_Select1st@U?$pair@QBDPAVDIdent@@@@@@Ueqstr@@V?$__default_alloc_template@$00$0A@@@@@QAEXU?$_Rb_tree_iterator@U?$pair@QBDPAVDIdent@@@@AAU1@PAU1@@@@Z 0040c020 f i DevAlias.obj
 0001:0000b050       ?find@?$_Rb_tree@PBDU?$pair@QBDPAVDIdent@@@@U?$_Select1st@U?$pair@QBDPAVDIdent@@@@@@Ueqstr@@V?$__default_alloc_template@$00$0A@@@@@QAE?AU?$_Rb_tree_iterator@U?$pair@QBDPAVDIdent@@@@AAU1@PAU1@@@ABQBD@Z 0040c050 f i DevAlias.obj
 0001:0000b120       ?lower_bound@?$_Rb_tree@PBDU?$pair@QBDPAVDIdent@@@@U?$_Select1st@U?$pair@QBDPAVDIdent@@@@@@Ueqstr@@V?$__default_alloc_template@$00$0A@@@@@QAE?AU?$_Rb_tree_iterator@U?$pair@QBDPAVDIdent@@@@AAU1@PAU1@@@ABQBD@Z 0040c120 f i DevAlias.obj
 0001:0000b190       ?insert_unique@?$_Rb_tree@PBDU?$pair@QBDPAVDObj@@@@U?$_Select1st@U?$pair@QBDPAVDObj@@@@@@Ueqstr@@V?$__default_alloc_template@$00$0A@@@@@QAE?AU?$_Rb_tree_iterator@U?$pair@QBDPAVDObj@@@@AAU1@PAU1@@@U2@ABU?$pair@QBDPAVDObj@@@@@Z 0040c190 f i DevAlias.obj
 0001:0000b600       ?erase@?$_Rb_tree@PBDU?$pair@QBDPAVDObj@@@@U?$_Select1st@U?$pair@QBDPAVDObj@@@@@@Ueqstr@@V?$__default_alloc_template@$00$0A@@@@@QAEXU?$_Rb_tree_iterator@U?$pair@QBDPAVDObj@@@@AAU1@PAU1@@@@Z 0040c600 f i DevAlias.obj
 0001:0000b630       ?find@?$_Rb_tree@PBDU?$pair@QBDPAVDObj@@@@U?$_Select1st@U?$pair@QBDPAVDObj@@@@@@Ueqstr@@V?$__default_alloc_template@$00$0A@@@@@QAE?AU?$_Rb_tree_iterator@U?$pair@QBDPAVDObj@@@@AAU1@PAU1@@@ABQBD@Z 0040c630 f i DevAlias.obj
 0001:0000b700       ?lower_bound@?$_Rb_tree@PBDU?$pair@QBDPAVDObj@@@@U?$_Select1st@U?$pair@QBDPAVDObj@@@@@@Ueqstr@@V?$__default_alloc_template@$00$0A@@@@@QAE?AU?$_Rb_tree_iterator@U?$pair@QBDPAVDObj@@@@AAU1@PAU1@@@ABQBD@Z 0040c700 f i DevAlias.obj
 0001:0000b770       ?_M_insert@?$_Rb_tree@PBDU?$pair@QBDPAVDIdent@@@@U?$_Select1st@U?$pair@QBDPAVDIdent@@@@@@Ueqstr@@V?$__default_alloc_template@$00$0A@@@@@AAE?AU?$_Rb_tree_iterator@U?$pair@QBDPAVDIdent@@@@AAU1@PAU1@@@PAU_Rb_tree_node_base@@0ABU?$pair@QBDPAVDIdent@@@@@Z 0040c770 f i DevAlias.obj
 0001:0000b930       ?insert_unique@?$_Rb_tree@PBDU?$pair@QBDPAVDIdent@@@@U?$_Select1st@U?$pair@QBDPAVDIdent@@@@@@Ueqstr@@V?$__default_alloc_template@$00$0A@@@@@QAE?AU?$pair@U?$_Rb_tree_iterator@U?$pair@QBDPAVDIdent@@@@AAU1@PAU1@@@_N@@ABU?$pair@QBDPAVDIdent@@@@@Z 0040c930 f i DevAlias.obj
 0001:0000bb40       ?_M_insert@?$_Rb_tree@PBDU?$pair@QBDPAVDObj@@@@U?$_Select1st@U?$pair@QBDPAVDObj@@@@@@Ueqstr@@V?$__default_alloc_template@$00$0A@@@@@AAE?AU?$_Rb_tree_iterator@U?$pair@QBDPAVDObj@@@@AAU1@PAU1@@@PAU_Rb_tree_node_base@@0ABU?$pair@QBDPAVDObj@@@@@Z 0040cb40 f i DevAlias.obj
 0001:0000bd00       ?insert_unique@?$_Rb_tree@PBDU?$pair@QBDPAVDObj@@@@U?$_Select1st@U?$pair@QBDPAVDObj@@@@@@Ueqstr@@V?$__default_alloc_template@$00$0A@@@@@QAE?AU?$pair@U?$_Rb_tree_iterator@U?$pair@QBDPAVDObj@@@@AAU1@PAU1@@@_N@@ABU?$pair@QBDPAVDObj@@@@@Z 0040cd00 f i DevAlias.obj
 0001:0000bf10       ??0?$pair@U?$_Rb_tree_iterator@U?$pair@QBDPAVDIdent@@@@AAU1@PAU1@@@_N@@QAE@ABU0@@Z 0040cf10 f i DevAlias.obj
 0001:0000bf30       ??0?$pair@U?$_Rb_tree_iterator@U?$pair@QBDPAVDObj@@@@AAU1@PAU1@@@_N@@QAE@ABU0@@Z 0040cf30 f i DevAlias.obj
 0001:0000bf50       ?_M_create_node@?$_Rb_tree@PBDU?$pair@QBDPAVDIdent@@@@U?$_Select1st@U?$pair@QBDPAVDIdent@@@@@@Ueqstr@@V?$__default_alloc_template@$00$0A@@@@@IAEPAU?$_Rb_tree_node@U?$pair@QBDPAVDIdent@@@@@@ABU?$pair@QBDPAVDIdent@@@@@Z 0040cf50 f i DevAlias.obj
 0001:0000c010       ?begin@?$_Rb_tree@PBDU?$pair@QBDPAVDIdent@@@@U?$_Select1st@U?$pair@QBDPAVDIdent@@@@@@Ueqstr@@V?$__default_alloc_template@$00$0A@@@@@QAE?AU?$_Rb_tree_iterator@U?$pair@QBDPAVDIdent@@@@AAU1@PAU1@@@XZ 0040d010 f i DevAlias.obj
 0001:0000c020       ?_M_create_node@?$_Rb_tree@PBDU?$pair@QBDPAVDObj@@@@U?$_Select1st@U?$pair@QBDPAVDObj@@@@@@Ueqstr@@V?$__default_alloc_template@$00$0A@@@@@IAEPAU?$_Rb_tree_node@U?$pair@QBDPAVDObj@@@@@@ABU?$pair@QBDPAVDObj@@@@@Z 0040d020 f i DevAlias.obj
 0001:0000c0e0       ?begin@?$_Rb_tree@PBDU?$pair@QBDPAVDObj@@@@U?$_Select1st@U?$pair@QBDPAVDObj@@@@@@Ueqstr@@V?$__default_alloc_template@$00$0A@@@@@QAE?AU?$_Rb_tree_iterator@U?$pair@QBDPAVDObj@@@@AAU1@PAU1@@@XZ 0040d0e0 f i DevAlias.obj
 0001:0000c0f0       ??0?$pair@U?$_Rb_tree_iterator@U?$pair@QBDPAVDIdent@@@@AAU1@PAU1@@@_N@@QAE@ABU?$_Rb_tree_iterator@U?$pair@QBDPAVDIdent@@@@AAU1@PAU1@@@AB_N@Z 0040d0f0 f i DevAlias.obj
 0001:0000c110       ??0?$pair@U?$_Rb_tree_iterator@U?$pair@QBDPAVDObj@@@@AAU1@PAU1@@@_N@@QAE@ABU?$_Rb_tree_iterator@U?$pair@QBDPAVDObj@@@@AAU1@PAU1@@@AB_N@Z 0040d110 f i DevAlias.obj
 0001:0000c130       ?_M_decrement@_Rb_tree_base_iterator@@QAEXXZ 0040d130 f i DevAlias.obj
 0001:0000c180       ?_Rb_tree_rotate_left@@YAXPAU_Rb_tree_node_base@@AAPAU1@@Z 0040d180 f i DevAlias.obj
 0001:0000c1d0       ?_Rb_tree_rotate_right@@YAXPAU_Rb_tree_node_base@@AAPAU1@@Z 0040d1d0 f i DevAlias.obj
 0001:0000c220       ?_Rb_tree_rebalance@@YAXPAU_Rb_tree_node_base@@AAPAU1@@Z 0040d220 f i DevAlias.obj
 0001:0000c3d0       ?_Rb_tree_rebalance_for_erase@@YAPAU_Rb_tree_node_base@@PAU1@AAPAU1@11@Z 0040d3d0 f i DevAlias.obj
 0001:0000c7b0       ?CallDiff@@YAXXZ           0040d7b0 f   DevCall.obj
 0001:0000c940       ?CallImmediat@@YAXXZ       0040d940 f   DevCall.obj
 0001:0000cba0       ?DoCallDiff@@YAHXZ         0040dba0 f   DevCall.obj
 0001:0000cdc0       ??1CALLSTRUCT@@QAE@XZ      0040ddc0 f i DevCall.obj
 0001:0000cf60       ?objFlushMessage@@YAXXZ    0040df60 f   DevCall.obj
 0001:0000d0f0       ??0?$list@PAVCDEVPileElem@@V?$__default_alloc_template@$00$0A@@@@@QAE@ABV?$__default_alloc_template@$00$0A@@@@Z 0040e0f0 f i DevCall.obj
 0001:0000d1b0       ?begin@?$list@PAVCDEVPileElem@@V?$__default_alloc_template@$00$0A@@@@@QAE?AU?$_List_iterator@PAVCDEVPileElem@@AAPAV1@PAPAV1@@@XZ 0040e1b0 f i DevCall.obj
 0001:0000d1c0       ?end@?$list@PAVCDEVPileElem@@V?$__default_alloc_template@$00$0A@@@@@QAE?AU?$_List_iterator@PAVCDEVPileElem@@AAPAV1@PAPAV1@@@XZ 0040e1c0 f i DevCall.obj
 0001:0000d1d0       ??1?$list@PAVCDEVPileElem@@V?$__default_alloc_template@$00$0A@@@@@QAE@XZ 0040e1d0 f i DevCall.obj
 0001:0000d330       ??0?$_List_iterator@PAVCDEVPileElem@@AAPAV1@PAPAV1@@@QAE@ABU0@@Z 0040e330 f i DevCall.obj
 0001:0000d340       ??0?$list@PAUCALLSTRUCT@@V?$__default_alloc_template@$00$0A@@@@@QAE@ABV?$__default_alloc_template@$00$0A@@@@Z 0040e340 f i DevCall.obj
 0001:0000d400       ?begin@?$list@PAUCALLSTRUCT@@V?$__default_alloc_template@$00$0A@@@@@QAE?AU?$_List_iterator@PAUCALLSTRUCT@@AAPAU1@PAPAU1@@@XZ 0040e400 f i DevCall.obj
 0001:0000d410       ?end@?$list@PAUCALLSTRUCT@@V?$__default_alloc_template@$00$0A@@@@@QAE?AU?$_List_iterator@PAUCALLSTRUCT@@AAPAU1@PAPAU1@@@XZ 0040e410 f i DevCall.obj
 0001:0000d420       ?erase@?$list@PAUCALLSTRUCT@@V?$__default_alloc_template@$00$0A@@@@@QAE?AU?$_List_iterator@PAUCALLSTRUCT@@AAPAU1@PAPAU1@@@U2@@Z 0040e420 f i DevCall.obj
 0001:0000d450       ?_M_release_lock@_STL_mutex_lock@@QAEXXZ 0040e450 f i DevCall.obj
 0001:0000d460       ??1?$list@PAUCALLSTRUCT@@V?$__default_alloc_template@$00$0A@@@@@QAE@XZ 0040e460 f i DevCall.obj
 0001:0000d5c0       ??0?$_List_iterator@PAUCALLSTRUCT@@AAPAU1@PAPAU1@@@QAE@ABU0@@Z 0040e5c0 f i DevCall.obj
 0001:0000d5d0       ?insert@?$list@PAVCDEVPileElem@@V?$__default_alloc_template@$00$0A@@@@@QAE?AU?$_List_iterator@PAVCDEVPileElem@@AAPAV1@PAPAV1@@@U2@ABQAVCDEVPileElem@@@Z 0040e5d0 f i DevCall.obj
 0001:0000d600       ?erase@?$list@PAVCDEVPileElem@@V?$__default_alloc_template@$00$0A@@@@@QAE?AU?$_List_iterator@PAVCDEVPileElem@@AAPAV1@PAPAV1@@@U2@@Z 0040e600 f i DevCall.obj
 0001:0000d630       ?insert@?$list@PAUCALLSTRUCT@@V?$__default_alloc_template@$00$0A@@@@@QAE?AU?$_List_iterator@PAUCALLSTRUCT@@AAPAU1@PAPAU1@@@U2@ABQAUCALLSTRUCT@@@Z 0040e630 f i DevCall.obj
 0001:0000d660       ?_M_create_node@?$list@PAVCDEVPileElem@@V?$__default_alloc_template@$00$0A@@@@@IAEPAU?$_List_node@PAVCDEVPileElem@@@@ABQAVCDEVPileElem@@@Z 0040e660 f i DevCall.obj
 0001:0000d720       ?_M_create_node@?$list@PAUCALLSTRUCT@@V?$__default_alloc_template@$00$0A@@@@@IAEPAU?$_List_node@PAUCALLSTRUCT@@@@ABQAUCALLSTRUCT@@@Z 0040e720 f i DevCall.obj
 0001:0000d7e0       ?_S_freelist_index@?$__default_alloc_template@$00$0A@@@CAII@Z 0040e7e0 f i DevCall.obj
 0001:0000d7f0       ??0_Lock@?$__default_alloc_template@$00$0A@@@QAE@XZ 0040e7f0 f i DevCall.obj
 0001:0000d930       ?cfsCreate@@YAXXZ          0040e930 f   DevCFS.obj
 0001:0000dc00       ?cfsDestroy@@YAXXZ         0040ec00 f   DevCFS.obj
 0001:0000dc60       ?cfsSetHandler@@YAXXZ      0040ec60 f   DevCFS.obj
 0001:0000dce0       ?cfsOpenConnection@@YAXXZ  0040ece0 f   DevCFS.obj
 0001:0000dd30       ?cfsCloseConnection@@YAXXZ 0040ed30 f   DevCFS.obj
 0001:0000dd80       ?cfsStartDownloadProcess@@YAXXZ 0040ed80 f   DevCFS.obj
 0001:0000de70       ?cfsConfirmDownload@@YAXXZ 0040ee70 f   DevCFS.obj
 0001:0000df30       ?cfsContinueDownloads@@YAXXZ 0040ef30 f   DevCFS.obj
 0001:0000df90       ?cfsStopDownloadProcess@@YAXXZ 0040ef90 f   DevCFS.obj
 0001:0000e020       ?cfsStartUpdateProcess@@YAXXZ 0040f020 f   DevCFS.obj
 0001:0000e090       ?cfsNotifyIfReadyToPerformUpdate@@YAXXZ 0040f090 f   DevCFS.obj
 0001:0000e0f0       ?cfsContinueUpdate@@YAXXZ  0040f0f0 f   DevCFS.obj
 0001:0000e190       ?cfsGetPackageState@@YAXXZ 0040f190 f   DevCFS.obj
 0001:0000e240       ?cfsGetPackageInformation@@YAXXZ 0040f240 f   DevCFS.obj
 0001:0000e2d0       ?cfsTransfer@@YAXXZ        0040f2d0 f   DevCFS.obj
 0001:0000e400       ?cfsChangePriority@@YAXXZ  0040f400 f   DevCFS.obj
 0001:0000e4c0       ?DoCFSEvents@@YACXZ        0040f4c0 f   DevCFS.obj
 0001:0000e5b0       ?OnCFSEvent@@YAXPAXJPBDJ@Z 0040f5b0 f   DevCFS.obj
 0001:0000e680       ?OnCFSIsFileValid@@YA_NPBD0JJ@Z 0040f680 f   DevCFS.obj
 0001:0000e730       ?OnCFSGetFileFromClientSpace@@YAJPBD00@Z 0040f730 f   DevCFS.obj
 0001:0000e850       ?OnCFSGetFilePathInClientSpace@@YAJPBD0PADJ@Z 0040f850 f   DevCFS.obj
 0001:0000e890       ?OnCFSPutFileToClientSpace@@YAJPBD00@Z 0040f890 f   DevCFS.obj
 0001:0000ea30       ??0?$list@PAUCFSEvent@@V?$__default_alloc_template@$00$0A@@@@@QAE@ABV?$__default_alloc_template@$00$0A@@@@Z 0040fa30 f i DevCFS.obj
 0001:0000eaf0       ??1?$list@PAUCFSEvent@@V?$__default_alloc_template@$00$0A@@@@@QAE@XZ 0040faf0 f i DevCFS.obj
 0001:0000ec50       ?begin@?$list@PAUCFSEvent@@V?$__default_alloc_template@$00$0A@@@@@QAE?AU?$_List_iterator@PAUCFSEvent@@AAPAU1@PAPAU1@@@XZ 0040fc50 f i DevCFS.obj
 0001:0000ec60       ?end@?$list@PAUCFSEvent@@V?$__default_alloc_template@$00$0A@@@@@QAE?AU?$_List_iterator@PAUCFSEvent@@AAPAU1@PAPAU1@@@XZ 0040fc60 f i DevCFS.obj
 0001:0000ec70       ?insert@?$list@PAUCFSEvent@@V?$__default_alloc_template@$00$0A@@@@@QAE?AU?$_List_iterator@PAUCFSEvent@@AAPAU1@PAPAU1@@@U2@ABQAUCFSEvent@@@Z 0040fc70 f i DevCFS.obj
 0001:0000eca0       ?erase@?$list@PAUCFSEvent@@V?$__default_alloc_template@$00$0A@@@@@QAE?AU?$_List_iterator@PAUCFSEvent@@AAPAU1@PAPAU1@@@U2@@Z 0040fca0 f i DevCFS.obj
 0001:0000ecd0       ??0?$_List_iterator@PAUCFSEvent@@AAPAU1@PAPAU1@@@QAE@ABU0@@Z 0040fcd0 f i DevCFS.obj
 0001:0000ece0       ?_M_create_node@?$list@PAUCFSEvent@@V?$__default_alloc_template@$00$0A@@@@@IAEPAU?$_List_node@PAUCFSEvent@@@@ABQAUCFSEvent@@@Z 0040fce0 f i DevCFS.obj
 0001:0000eda0       ?timeGetLong@@YAXXZ        0040fda0 f   DevDate.obj
 0001:0000edb0       ?timeGetHour@@YAXXZ        0040fdb0 f   DevDate.obj
 0001:0000edf0       ?timeGetDate@@YAXXZ        0040fdf0 f   DevDate.obj
 0001:0000ee40       ?timeGetGmt@@YAXXZ         0040fe40 f   DevDate.obj
 0001:0000ee50       ?timeGetLocal@@YAXXZ       0040fe50 f   DevDate.obj
 0001:0000ee60       ?timeToDate@@YAXXZ         0040fe60 f   DevDate.obj
 0001:0000eed0       ?dateToTime@@YAXXZ         0040fed0 f   DevDate.obj
 0001:0000ef30       ?DevdbOpenBase@@YAXXZ      0040ff30 f   DevDBase.obj
 0001:0000f090       ?DevdbCloseBase@@YAXXZ     00410090 f   DevDBase.obj
 0001:0000f1d0       ?DevdbOpenTable@@YAXXZ     004101d0 f   DevDBase.obj
 0001:0000f300       ?DevdbCloseTable@@YAXXZ    00410300 f   DevDBase.obj
 0001:0000f340       ?DevdbCountRecord@@YAXXZ   00410340 f   DevDBase.obj
 0001:0000f390       ?DevdbFirstRecord@@YAXXZ   00410390 f   DevDBase.obj
 0001:0000f3f0       ?DevdbNextRecord@@YAXXZ    004103f0 f   DevDBase.obj
 0001:0000f450       ?DevdbSelectKey@@YAXXZ     00410450 f   DevDBase.obj
 0001:0000f4d0       ?DevdbSeekRecord@@YAXXZ    004104d0 f   DevDBase.obj
 0001:0000f550       ?DevdbSeekNextRecord@@YAXXZ 00410550 f   DevDBase.obj
 0001:0000f5b0       ?DevdbGetField@@YAXXZ      004105b0 f   DevDBase.obj
 0001:0000f710       ??4l4linkSt@@QAEAAU0@ABU0@@Z 00410710 f i DevDBase.obj
 0001:0000f730       ?editCreate@@YAXXZ         00410730 f   DevEditor.obj
 0001:0000f820       ?editDestroy@@YAXXZ        00410820 f   DevEditor.obj
 0001:0000f880       ?editLoad@@YAXXZ           00410880 f   DevEditor.obj
 0001:0000f930       ?editSave@@YAXXZ           00410930 f   DevEditor.obj
 0001:0000f9e0       ?editConvertToHTML@@YAXXZ  004109e0 f   DevEditor.obj
 0001:0000fae0       ?editConvertFromHTML@@YAXXZ 00410ae0 f   DevEditor.obj
 0001:0000fbe0       ?editCursorRight@@YAXXZ    00410be0 f   DevEditor.obj
 0001:0000fc40       ?editCursorLeft@@YAXXZ     00410c40 f   DevEditor.obj
 0001:0000fca0       ?editCursorUp@@YAXXZ       00410ca0 f   DevEditor.obj
 0001:0000fd10       ?editCursorDown@@YAXXZ     00410d10 f   DevEditor.obj
 0001:0000fd80       ?editCursorEndLine@@YAXXZ  00410d80 f   DevEditor.obj
 0001:0000fde0       ?editCursorBeginLine@@YAXXZ 00410de0 f   DevEditor.obj
 0001:0000fe40       ?editScrollUp@@YAXXZ       00410e40 f   DevEditor.obj
 0001:0000fec0       ?editScrollDown@@YAXXZ     00410ec0 f   DevEditor.obj
 0001:0000ff50       ?editInsertString@@YAXXZ   00410f50 f   DevEditor.obj
 0001:00010000       ?editDelete@@YAXXZ         00411000 f   DevEditor.obj
 0001:00010060       ?editIsModified@@YAXXZ     00411060 f   DevEditor.obj
 0001:000100c0       ?editSetDefaultBackGroundColor@@YAXXZ 004110c0 f   DevEditor.obj
 0001:00010120       ?editGetDefaultBackGroundColor@@YAXXZ 00411120 f   DevEditor.obj
 0001:00010160       ?editSetDefaultColor@@YAXXZ 00411160 f   DevEditor.obj
 0001:000101d0       ?editGetDefaultColor@@YAXXZ 004111d0 f   DevEditor.obj
 0001:00010220       ?editSetColor@@YAXXZ       00411220 f   DevEditor.obj
 0001:000102b0       ?editGetColor@@YAXXZ       004112b0 f   DevEditor.obj
 0001:00010300       ?editSetDefaultFont@@YAXXZ 00411300 f   DevEditor.obj
 0001:00010390       ?editGetDefaultFont@@YAXXZ 00411390 f   DevEditor.obj
 0001:00010480       ?editSetFont@@YAXXZ        00411480 f   DevEditor.obj
 0001:000105d0       ?editGetFont@@YAXXZ        004115d0 f   DevEditor.obj
 0001:000106a0       ?editSetDefaultAlign@@YAXXZ 004116a0 f   DevEditor.obj
 0001:00010770       ?editGetDefaultAlign@@YAXXZ 00411770 f   DevEditor.obj
 0001:000107f0       ?editSetAlign@@YAXXZ       004117f0 f   DevEditor.obj
 0001:000108d0       ?editGetAlign@@YAXXZ       004118d0 f   DevEditor.obj
 0001:00010960       ?editGetSelection@@YAXXZ   00411960 f   DevEditor.obj
 0001:00010a00       ?editSetFocus@@YAXXZ       00411a00 f   DevEditor.obj
 0001:00010a40       ?editUnSetFocus@@YAXXZ     00411a40 f   DevEditor.obj
 0001:00010ad0       ?editSetSelection@@YAXXZ   00411ad0 f   DevEditor.obj
 0001:00010b40       ?editIsFocus@@YAXXZ        00411b40 f   DevEditor.obj
 0001:00010b90       ?editSetCursorPos@@YAXXZ   00411b90 f   DevEditor.obj
 0001:00010c20       ?editGetNbLines@@YAXXZ     00411c20 f   DevEditor.obj
 0001:00010c80       ?editGetCurrentLine@@YAXXZ 00411c80 f   DevEditor.obj
 0001:00010ce0       ?editGetFirstDisplayedLine@@YAXXZ 00411ce0 f   DevEditor.obj
 0001:00010d50       ?editGetText@@YAXXZ        00411d50 f   DevEditor.obj
 0001:00010dc0       ?editGetDisplayedLines@@YAXXZ 00411dc0 f   DevEditor.obj
 0001:00010e20       ?editGetTextLength@@YAXXZ  00411e20 f   DevEditor.obj
 0001:00010e90       ?editEraseAll@@YAXXZ       00411e90 f   DevEditor.obj
 0001:00010ef0       ?editSetCurrentLine@@YAXXZ 00411ef0 f   DevEditor.obj
 0001:00010fa0       ?editSetPageMode@@YAXXZ    00411fa0 f   DevEditor.obj
 0001:00011000       ?editSetCursorColor@@YAXXZ 00412000 f   DevEditor.obj
 0001:00011060       ?editSetReverseBackGroundColor@@YAXXZ 00412060 f   DevEditor.obj
 0001:000110b0       ?editSetReverseFontColor@@YAXXZ 004120b0 f   DevEditor.obj
 0001:00011100       ?editGetPageNumber@@YAXXZ  00412100 f   DevEditor.obj
 0001:00011150       ?editGetCurrentPage@@YAXXZ 00412150 f   DevEditor.obj
 0001:000111a0       ?DevErrorParam@@YAXPBDKJ@Z 004121a0 f   DevError.obj
 0001:00011270       ?DevErrorParam@@YAXPBDKN@Z 00412270 f   DevError.obj
 0001:00011340       ?DevErrorParam@@YAXPBDK0@Z 00412340 f   DevError.obj
 0001:00011410       ?DevErrorTypeIdent@@YAXPBDKK@Z 00412410 f   DevError.obj
 0001:000114f0       ?DevErrorIdentExist@@YA_NPBDPAVDIdent@@K@Z 004124f0 f   DevError.obj
 0001:000116a0       ?DispatchEvents@@YAXXZ     004126a0 f   DevEvents.obj
 0001:000116b0       ?ExitDispatchEvents@@YAXXZ 004126b0 f   DevEvents.obj
 0001:000116c0       ?ManagePendingEvents@@YAXXZ 004126c0 f   DevEvents.obj
 0001:000116d0       ?fileFindFirst@@YAXXZ      004126d0 f   DevFile.obj
 0001:00011720       ?fileFindNext@@YAXXZ       00412720 f   DevFile.obj
 0001:00011770       ?fileSetCurrentCD@@YAXXZ   00412770 f   DevFile.obj
 0001:00011790       ?fileCheckCurrentCD@@YAXXZ 00412790 f   DevFile.obj
 0001:000117b0       ?fileOpenSTK@@YAXXZ        004127b0 f   DevFile.obj
 0001:00011830       ?fileCloseSTK@@YAXXZ       00412830 f   DevFile.obj
 0001:00011870       ?fileExist@@YAXXZ          00412870 f   DevFile.obj
 0001:00011b30       ?fileGetSize@@YAXXZ        00412b30 f   DevFile.obj
 0001:00011bb0       ?fileGetTime@@YAXXZ        00412bb0 f   DevFile.obj
 0001:00011c30       ?fileSetTime@@YAXXZ        00412c30 f   DevFile.obj
 0001:00011cb0       ?fileRenameFile@@YAXXZ     00412cb0 f   DevFile.obj
 0001:00011d80       ?fileDeleteFile@@YAXXZ     00412d80 f   DevFile.obj
 0001:00011e50       ?fileRenameDirectory@@YAXXZ 00412e50 f   DevFile.obj
 0001:00011f20       ?fileCreateDirectory@@YAXXZ 00412f20 f   DevFile.obj
 0001:00012000       ?fileDeleteDirectory@@YAXXZ 00413000 f   DevFile.obj
 0001:000120d0       ?fileCopyFile@@YAXXZ       004130d0 f   DevFile.obj
 0001:000121a0       ??1?$list@PADV?$__default_alloc_template@$00$0A@@@@@QAE@XZ 004131a0 f i DevFile.obj
 0001:00012300       ?_S_refill@?$__default_alloc_template@$00$0A@@@CAPAXI@Z 00413300 f i DevFile.obj
 0001:000124a0       ?bmpCreate@@YAXXZ          004134a0 f   DevGraph.obj
 0001:00012620       ?bmpRelease@@YAXXZ         00413620 f   DevGraph.obj
 0001:000126e0       ?bmpLoadImage@@YAXXZ       004136e0 f   DevGraph.obj
 0001:00012bf0       ?bmpLoadPartImage@@YAXXZ   00413bf0 f   DevGraph.obj
 0001:00012d30       ?bmpMove@@YAXXZ            00413d30 f   DevGraph.obj
 0001:00012e80       ?bmpCopy@@YAXXZ            00413e80 f   DevGraph.obj
 0001:00012fd0       ?bmpBlend@@YAXXZ           00413fd0 f   DevGraph.obj
 0001:00013160       ?bmpFillPattern@@YAXXZ     00414160 f   DevGraph.obj
 0001:000132b0       ?bmpCopyPattern@@YAXXZ     004142b0 f   DevGraph.obj
 0001:00013400       ?bmpFill@@YAXXZ            00414400 f   DevGraph.obj
 0001:00013560       ?bmpGetSizeX@@YAXXZ        00414560 f   DevGraph.obj
 0001:000135a0       ?bmpGetSizeY@@YAXXZ        004145a0 f   DevGraph.obj
 0001:000135e0       ?bmpGetDepth@@YAXXZ        004145e0 f   DevGraph.obj
 0001:00013620       ?bmpIsReadOnly@@YAXXZ      00414620 f   DevGraph.obj
 0001:00013670       ?bmpGetVmd@@YAXXZ          00414670 f   DevGraph.obj
 0001:00013710       ?screenRefresh@@YAXXZ      00414710 f   DevGraph.obj
 0001:00013740       ?screenRefreshUnactivate@@YAXXZ 00414740 f   DevGraph.obj
 0001:00013750       ?screenRefreshActivate@@YAXXZ 00414750 f   DevGraph.obj
 0001:00013760       ?screenAddBmp@@YAXXZ       00414760 f   DevGraph.obj
 0001:00013860       ?screenAddBmpPart@@YAXXZ   00414860 f   DevGraph.obj
 0001:000139c0       ?screenSetBlendLevel@@YAXXZ 004149c0 f   DevGraph.obj
 0001:00013a60       ?screenRemoveElement@@YAXXZ 00414a60 f   DevGraph.obj
 0001:00013aa0       ?screenMoveElem@@YAXXZ     00414aa0 f   DevGraph.obj
 0001:00013af0       ?screenChangeElemPos@@YAXXZ 00414af0 f   DevGraph.obj
 0001:00013b40       ?screenChangeElemPlan@@YAXXZ 00414b40 f   DevGraph.obj
 0001:00013b90       ?screenHideElem@@YAXXZ     00414b90 f   DevGraph.obj
 0001:00013bd0       ?screenShowElem@@YAXXZ     00414bd0 f   DevGraph.obj
 0001:00013c10       ?screenSetElemVisibleRegion@@YAXXZ 00414c10 f   DevGraph.obj
 0001:00013c90       ?screenHideAll@@YAXXZ      00414c90 f   DevGraph.obj
 0001:00013ca0       ?screenShowAll@@YAXXZ      00414ca0 f   DevGraph.obj
 0001:00013cb0       ?screenSetBackColor@@YAXXZ 00414cb0 f   DevGraph.obj
 0001:00013ce0       ?screenSetBackPattern@@YAXXZ 00414ce0 f   DevGraph.obj
 0001:00013d20       ?fontLoad@@YAXXZ           00414d20 f   DevGraph.obj
 0001:00013e30       ?fontRelease@@YAXXZ        00414e30 f   DevGraph.obj
 0001:00013e70       ?fontGetInfo@@YAXXZ        00414e70 f   DevGraph.obj
 0001:00013ee0       ?fontGetTextWidth@@YAXXZ   00414ee0 f   DevGraph.obj
 0001:00013f40       ?fontGetTextHeight@@YAXXZ  00414f40 f   DevGraph.obj
 0001:00013fa0       ?bmpDispChar@@YAXXZ        00414fa0 f   DevGraph.obj
 0001:00014080       ?bmpDrawString@@YAXXZ      00415080 f   DevGraph.obj
 0001:00014160       ?bmpDrawText@@YAXXZ        00415160 f   DevGraph.obj
 0001:000142b0       ?bmpDrawLine@@YAXXZ        004152b0 f   DevGraph.obj
 0001:000143a0       ?bmpDrawCircle@@YAXXZ      004153a0 f   DevGraph.obj
 0001:00014480       ?bmpDrawArc@@YAXXZ         00415480 f   DevGraph.obj
 0001:00014590       ?bmpcolor@@YAXXZ           00415590 f   DevGraph.obj
 0001:00014600       ?bmpGetR@@YAXXZ            00415600 f   DevGraph.obj
 0001:00014620       ?bmpGetG@@YAXXZ            00415620 f   DevGraph.obj
 0001:00014640       ?bmpGetB@@YAXXZ            00415640 f   DevGraph.obj
 0001:00014660       ?bmpGetA@@YAXXZ            00415660 f   DevGraph.obj
 0001:00014680       ?bmpPrint@@YAXXZ           00415680 f   DevGraph.obj
 0001:000146e0       ?curGetPos@@YAXXZ          004156e0 f   DevGraph.obj
 0001:00014720       ?bmpDrawScreen@@YAXXZ      00415720 f   DevGraph.obj
 0001:00014760       ?bmpCopyScreen@@YAXXZ      00415760 f   DevGraph.obj
 0001:000147a0       ?bmpBlendAlpha@@YAXXZ      004157a0 f   DevGraph.obj
 0001:00014910       ?bmpCopyAlpha@@YAXXZ       00415910 f   DevGraph.obj
 0001:00014a60       ?bmpLockAlpha@@YAXXZ       00415a60 f   DevGraph.obj
 0001:00014aa0       ?bmpUnlockAlpha@@YAXXZ     00415aa0 f   DevGraph.obj
 0001:00014ae0       ?bmpActiveAlpha@@YAXXZ     00415ae0 f   DevGraph.obj
 0001:00014b20       ?bmpUnactiveAlpha@@YAXXZ   00415b20 f   DevGraph.obj
 0001:00014b60       ?bmpFillAlpha@@YAXXZ       00415b60 f   DevGraph.obj
 0001:00014c60       ?bmp256SetColor@@YAXXZ     00415c60 f   DevGraph.obj
 0001:00014d10       ?bmp256GetColor@@YAXXZ     00415d10 f   DevGraph.obj
 0001:00014db0       ?bmp256SetPixel@@YAXXZ     00415db0 f   DevGraph.obj
 0001:00014ea0       ?bmp256GetPixel@@YAXXZ     00415ea0 f   DevGraph.obj
 0001:00014f50       ?bmp256CopyPalette@@YAXXZ  00415f50 f   DevGraph.obj
 0001:00015070       ?bmpSetPixel@@YAXXZ        00416070 f   DevGraph.obj
 0001:00015180       ?bmpGetPixel@@YAXXZ        00416180 f   DevGraph.obj
 0001:00015280       ?bmpDrawEquation@@YAXXZ    00416280 f   DevGraph.obj
 0001:00015350       ?fontGetSizeEquation@@YAXXZ 00416350 f   DevGraph.obj
 0001:00015410       ?bmpFloodFill@@YAXXZ       00416410 f   DevGraph.obj
 0001:00015500       ?bmpFloodFillAlpha@@YAXXZ  00416500 f   DevGraph.obj
 0001:000155f0       ?bmpSave@@YAXXZ            004165f0 f   DevGraph.obj
 0001:00015640       ?bmpStretch@@YAXXZ         00416640 f   DevGraph.obj
 0001:000158e0       ??0CFileHtml@@QAE@XZ       004168e0 f   DevHtml.obj
 0001:00015950       ??1CFileHtml@@QAE@XZ       00416950 f   DevHtml.obj
 0001:00015980       ?RAZMotCle@CFileHtml@@AAEXXZ 00416980 f   DevHtml.obj
 0001:000159b0       ?NextKeyWord@CFileHtml@@QAEXPAVDIdent@@@Z 004169b0 f   DevHtml.obj
 0001:00015c00       ?DecomposerMotCle@CFileHtml@@AAEXPAD@Z 00416c00 f   DevHtml.obj
 0001:00015d20       ?InitAttribut@CFileHtml@@AAEXPAD0@Z 00416d20 f   DevHtml.obj
 0001:000160d0       ?TransformerChaine@CFileHtml@@AAEXPAD@Z 004170d0 f   DevHtml.obj
 0001:00016240       ?ChercheCarSpecial@CFileHtml@@AAEEPBD@Z 00417240 f   DevHtml.obj
 0001:000162f0       ?Extraire@CFileHtml@@AAEPADPAPADH@Z 004172f0 f   DevHtml.obj
 0001:00016380       ?ChercherMotCle@CFileHtml@@AAEHPAD@Z 00417380 f   DevHtml.obj
 0001:00016410       ?PrepareBuffer@CFileHtml@@AAEXXZ 00417410 f   DevHtml.obj
 0001:000164a0       ?PositionTexte@CFileHtml@@QAEXJ@Z 004174a0 f   DevHtml.obj
 0001:000164f0       ?SaveMark@CFileHtml@@QAEXPAVDIdent@@PBD@Z 004174f0 f   DevHtml.obj
 0001:00016770       ?GetMark@CFileHtml@@QAEPAVDIdent@@J@Z 00417770 f   DevHtml.obj
 0001:00016810       ?htmlOpen@@YAXXZ           00417810 f   DevHtml.obj
 0001:00016970       ?htmlClose@@YAXXZ          00417970 f   DevHtml.obj
 0001:000169e0       ?htmlPositionText@@YAXXZ   004179e0 f   DevHtml.obj
 0001:00016a60       ?htmlNextKeyWord@@YAXXZ    00417a60 f   DevHtml.obj
 0001:00016ad0       ?htmlSaveMark@@YAXXZ       00417ad0 f   DevHtml.obj
 0001:00016b20       ?htmlGetMark@@YAXXZ        00417b20 f   DevHtml.obj
 0001:00016c00       ?DoIdleEvent@@YAXXZ        00417c00 f   DevIdle.obj
 0001:00016d70       ?idleCreateHandler@@YAXXZ  00417d70 f   DevIdle.obj
 0001:00016e70       ?idleDestroyHandler@@YAXXZ 00417e70 f   DevIdle.obj
 0001:00016f00       ??0?$list@PAUDContextEngine@@V?$__default_alloc_template@$00$0A@@@@@QAE@ABV?$__default_alloc_template@$00$0A@@@@Z 00417f00 f i DevIdle.obj
 0001:00016fc0       ?begin@?$list@PAUDContextEngine@@V?$__default_alloc_template@$00$0A@@@@@QAE?AU?$_List_iterator@PAUDContextEngine@@AAPAU1@PAPAU1@@@XZ 00417fc0 f i DevIdle.obj
 0001:00016fd0       ??1?$list@PAUDContextEngine@@V?$__default_alloc_template@$00$0A@@@@@QAE@XZ 00417fd0 f i DevIdle.obj
 0001:00017130       ?insert@?$list@PAUDContextEngine@@V?$__default_alloc_template@$00$0A@@@@@QAE?AU?$_List_iterator@PAUDContextEngine@@AAPAU1@PAPAU1@@@U2@ABQAUDContextEngine@@@Z 00418130 f i DevIdle.obj
 0001:00017160       ??0?$_List_iterator@PAUDContextEngine@@AAPAU1@PAPAU1@@@QAE@ABU0@@Z 00418160 f i DevIdle.obj
 0001:00017170       ?_M_create_node@?$list@PAUDContextEngine@@V?$__default_alloc_template@$00$0A@@@@@IAEPAU?$_List_node@PAUDContextEngine@@@@ABQAUDContextEngine@@@Z 00418170 f i DevIdle.obj
 0001:00017230       ?erase@?$list@PAUDContextEngine@@V?$__default_alloc_template@$00$0A@@@@@QAE?AU?$_List_iterator@PAUDContextEngine@@AAPAU1@PAPAU1@@@U2@@Z 00418230 f i DevIdle.obj
 0001:00017260       ?DeviniReadString@@YAXXZ   00418260 f   DevIni.obj
 0001:00017390       ?DeviniReadLong@@YAXXZ     00418390 f   DevIni.obj
 0001:00017420       ?DeviniWriteString@@YAXXZ  00418420 f   DevIni.obj
 0001:000175a0       ?DeviniWriteLong@@YAXXZ    004185a0 f   DevIni.obj
 0001:00017750       ?DeviniLoadFileInCache@@YAXXZ 00418750 f   DevIni.obj
 0001:00017770       ?DeviniReleaseFileFromCache@@YAXXZ 00418770 f   DevIni.obj
 0001:000177f0       ?OnKeyEvent@@YAXJJ@Z       004187f0 f   DevKey.obj
 0001:00017840       ?DoKeyEvent@@YACXZ         00418840 f   DevKey.obj
 0001:00017aa0       ?keySetHandler@@YAXXZ      00418aa0 f   DevKey.obj
 0001:00017bd0       ?keyRemoveHandler@@YAXXZ   00418bd0 f   DevKey.obj
 0001:00017c60       ?keySetFocus@@YAXXZ        00418c60 f   DevKey.obj
 0001:00017d20       ?keyActivateHandler@@YAXXZ 00418d20 f   DevKey.obj
 0001:00017d60       ?keyUnactivateHandler@@YAXXZ 00418d60 f   DevKey.obj
 0001:00017da0       ?keyIsPressed@@YAXXZ       00418da0 f   DevKey.obj
 0001:00017dc0       ?keyActivateAllHandler@@YAXXZ 00418dc0 f   DevKey.obj
 0001:00017df0       ?keyUnactivateAllHandler@@YAXXZ 00418df0 f   DevKey.obj
 0001:00017e20       ?keyFlushEvents@@YAXXZ     00418e20 f   DevKey.obj
 0001:00017e60       ??0?$list@UKEYEVENT@@V?$__default_alloc_template@$00$0A@@@@@QAE@ABV?$__default_alloc_template@$00$0A@@@@Z 00418e60 f i DevKey.obj
 0001:00017f20       ??1?$list@UKEYEVENT@@V?$__default_alloc_template@$00$0A@@@@@QAE@XZ 00418f20 f i DevKey.obj
 0001:00018080       ??0?$list@PAUKEYHANDLER@@V?$__default_alloc_template@$00$0A@@@@@QAE@ABV?$__default_alloc_template@$00$0A@@@@Z 00419080 f i DevKey.obj
 0001:00018140       ?begin@?$list@PAUKEYHANDLER@@V?$__default_alloc_template@$00$0A@@@@@QAE?AU?$_List_iterator@PAUKEYHANDLER@@AAPAU1@PAPAU1@@@XZ 00419140 f i DevKey.obj
 0001:00018150       ?erase@?$list@PAUKEYHANDLER@@V?$__default_alloc_template@$00$0A@@@@@QAE?AU?$_List_iterator@PAUKEYHANDLER@@AAPAU1@PAPAU1@@@U2@@Z 00419150 f i DevKey.obj
 0001:00018180       ??1?$list@PAUKEYHANDLER@@V?$__default_alloc_template@$00$0A@@@@@QAE@XZ 00419180 f i DevKey.obj
 0001:000182e0       ??0?$_List_iterator@PAUKEYHANDLER@@AAPAU1@PAPAU1@@@QAE@ABU0@@Z 004192e0 f i DevKey.obj
 0001:000182f0       ?begin@?$list@UKEYEVENT@@V?$__default_alloc_template@$00$0A@@@@@QAE?AU?$_List_iterator@UKEYEVENT@@AAU1@PAU1@@@XZ 004192f0 f i DevKey.obj
 0001:00018300       ?end@?$list@UKEYEVENT@@V?$__default_alloc_template@$00$0A@@@@@QAE?AU?$_List_iterator@UKEYEVENT@@AAU1@PAU1@@@XZ 00419300 f i DevKey.obj
 0001:00018310       ?insert@?$list@UKEYEVENT@@V?$__default_alloc_template@$00$0A@@@@@QAE?AU?$_List_iterator@UKEYEVENT@@AAU1@PAU1@@@U2@ABUKEYEVENT@@@Z 00419310 f i DevKey.obj
 0001:00018340       ?erase@?$list@UKEYEVENT@@V?$__default_alloc_template@$00$0A@@@@@QAE?AU?$_List_iterator@UKEYEVENT@@AAU1@PAU1@@@U2@@Z 00419340 f i DevKey.obj
 0001:00018370       ??0?$_List_iterator@UKEYEVENT@@AAU1@PAU1@@@QAE@ABU0@@Z 00419370 f i DevKey.obj
 0001:00018380       ?insert@?$list@PAUKEYHANDLER@@V?$__default_alloc_template@$00$0A@@@@@QAE?AU?$_List_iterator@PAUKEYHANDLER@@AAPAU1@PAPAU1@@@U2@ABQAUKEYHANDLER@@@Z 00419380 f i DevKey.obj
 0001:000183b0       ?_M_create_node@?$list@UKEYEVENT@@V?$__default_alloc_template@$00$0A@@@@@IAEPAU?$_List_node@UKEYEVENT@@@@ABUKEYEVENT@@@Z 004193b0 f i DevKey.obj
 0001:00018470       ?_M_create_node@?$list@PAUKEYHANDLER@@V?$__default_alloc_template@$00$0A@@@@@IAEPAU?$_List_node@PAUKEYHANDLER@@@@ABQAUKEYHANDLER@@@Z 00419470 f i DevKey.obj
 0001:00018530       ?AddIterator@LISTDEV@@QAEXPAVITERLISTDEV@@@Z 00419530 f   DevList.obj
 0001:00018570       ?RemoveIterator@LISTDEV@@QAEXPAVITERLISTDEV@@@Z 00419570 f   DevList.obj
 0001:000185d0       ?MarkInvalidIterators@LISTDEV@@QAEXPAVCDEVPileElem@@@Z 004195d0 f   DevList.obj
 0001:00018600       ?MarkIteratorsListDestroyed@LISTDEV@@QAEXXZ 00419600 f   DevList.obj
 0001:00018620       ?AddIterator@MAPDEV@@QAEXPAVITERMAPDEV@@@Z 00419620 f   DevList.obj
 0001:00018660       ?RemoveIterator@MAPDEV@@QAEXPAVITERMAPDEV@@@Z 00419660 f   DevList.obj
 0001:000186a0       ?MarkInvalidIterators@MAPDEV@@QAEXPAVCDEVPileElem@@@Z 004196a0 f   DevList.obj
 0001:000186d0       ?MarkIteratorsMapDestroyed@MAPDEV@@QAEXXZ 004196d0 f   DevList.obj
 0001:000186f0       ?GetElem@@YAPAVCDEVPileElem@@JJ@Z 004196f0 f   DevList.obj
 0001:00018970       ?lstCreate@@YAXXZ          00419970 f   DevList.obj
 0001:00018b20       ?listDestroy@@YAXXZ        00419b20 f   DevList.obj
 0001:00018b70       ?lstPushFront@@YAXXZ       00419b70 f   DevList.obj
 0001:00018bf0       ?lstPushBack@@YAXXZ        00419bf0 f   DevList.obj
 0001:00018c70       ?lstPopFront@@YAXXZ        00419c70 f   DevList.obj
 0001:00018d60       ?lstPopBack@@YAXXZ         00419d60 f   DevList.obj
 0001:00018e50       ?lstGetFront@@YAXXZ        00419e50 f   DevList.obj
 0001:00018ef0       ?lstGetBack@@YAXXZ         00419ef0 f   DevList.obj
 0001:00018f90       ?lstGetNbElem@@YAXXZ       00419f90 f   DevList.obj
 0001:00018fe0       ?iterCreate@@YAXXZ         00419fe0 f   DevList.obj
 0001:00019230       ?mapCreateLongOfLong@@YAPAVDIdent@@JJ@Z 0041a230 f   DevList.obj
 0001:000193b0       ?mapCreate@@YAXXZ          0041a3b0 f   DevList.obj
 0001:000193e0       ?mapSet@@YAXXZ             0041a3e0 f   DevList.obj
 0001:000194d0       ?mapExist@@YAXXZ           0041a4d0 f   DevList.obj
 0001:000195b0       ?mapDestroy@@YAXXZ         0041a5b0 f   DevList.obj
 0001:00019600       ?mapRemove@@YAXXZ          0041a600 f   DevList.obj
 0001:000196e0       ?mapGet@@YAXXZ             0041a6e0 f   DevList.obj
 0001:00019790       ?mapGetNbElem@@YAXXZ       0041a790 f   DevList.obj
 0001:000197d0       ?iterDestroy@@YAXXZ        0041a7d0 f   DevList.obj
 0001:000198f0       ?iterNext@@YAXXZ           0041a8f0 f   DevList.obj
 0001:00019aa0       ?iterPrevious@@YAXXZ       0041aaa0 f   DevList.obj
 0001:00019c70       ?iterIsEnd@@YAXXZ          0041ac70 f   DevList.obj
 0001:00019d90       ?iterIsBegin@@YAXXZ        0041ad90 f   DevList.obj
 0001:00019ed0       ?iterBegin@@YAXXZ          0041aed0 f   DevList.obj
 0001:00019fd0       ?iterEnd@@YAXXZ            0041afd0 f   DevList.obj
 0001:0001a0d0       ?iterGet@@YAXXZ            0041b0d0 f   DevList.obj
 0001:0001a250       ?iterSet@@YAXXZ            0041b250 f   DevList.obj
 0001:0001a400       ?iterGetIndex@@YAXXZ       0041b400 f   DevList.obj
 0001:0001a4e0       ?iterInsert@@YAXXZ         0041b4e0 f   DevList.obj
 0001:0001a5c0       ?iterRemove@@YAXXZ         0041b5c0 f   DevList.obj
 0001:0001a810       ?lstDoForEach@@YAXXZ       0041b810 f   DevList.obj
 0001:0001a950       ?mapDoForEach@@YAXXZ       0041b950 f   DevList.obj
 0001:0001aad0       ?CreateDEV7ListFromStrList@@YAPAVDIdent@@AAV?$list@PBDV?$__default_alloc_template@$00$0A@@@@@@Z 0041bad0 f   DevList.obj
 0001:0001ac30       ?CreateDEV7ListFromIdentList@@YAPAVDIdent@@AAV?$list@PAVDIdent@@V?$__default_alloc_template@$00$0A@@@@@@Z 0041bc30 f   DevList.obj
 0001:0001ad70       ?AddStringToMapLong@@YAXPAVDIdent@@JPBD@Z 0041bd70 f   DevList.obj
 0001:0001aef0       ?AddLongToMapLong@@YAXPAVDIdent@@JJ@Z 0041bef0 f   DevList.obj
 0001:0001b000       ?GetLongFromMap@@YAJPAVDIdent@@J@Z 0041c000 f   DevList.obj
 0001:0001b140       ?listSort@@YAXXZ           0041c140 f   DevList.obj
 0001:0001b2d0       ?end@?$list@PAVITERLISTDEV@@V?$__default_alloc_template@$00$0A@@@@@QAE?AU?$_List_iterator@PAVITERLISTDEV@@AAPAV1@PAPAV1@@@XZ 0041c2d0 f i DevList.obj
 0001:0001b2e0       ?erase@?$list@PAVITERLISTDEV@@V?$__default_alloc_template@$00$0A@@@@@QAE?AU?$_List_iterator@PAVITERLISTDEV@@AAPAV1@PAPAV1@@@U2@@Z 0041c2e0 f i DevList.obj
 0001:0001b310       ??1?$list@PAVITERLISTDEV@@V?$__default_alloc_template@$00$0A@@@@@QAE@XZ 0041c310 f i DevList.obj
 0001:0001b470       ??0?$_List_iterator@PAVITERLISTDEV@@AAPAV1@PAPAV1@@@QAE@ABU0@@Z 0041c470 f i DevList.obj
 0001:0001b480       ?erase@?$map@PAVCDEVPileElem@@PAV1@UeqDevElem@@V?$__default_alloc_template@$00$0A@@@@@QAEXU?$_Rb_tree_iterator@U?$pair@QAVCDEVPileElem@@PAV1@@@AAU1@PAU1@@@@Z 0041c480 f i DevList.obj
 0001:0001b4a0       ??0?$_Rb_tree_iterator@U?$pair@QAVCDEVPileElem@@PAV1@@@AAU1@PAU1@@@QAE@ABU0@@Z 0041c4a0 f i DevList.obj
 0001:0001b4b0       ?end@?$list@PAVITERMAPDEV@@V?$__default_alloc_template@$00$0A@@@@@QAE?AU?$_List_iterator@PAVITERMAPDEV@@AAPAV1@PAPAV1@@@XZ 0041c4b0 f i DevList.obj
 0001:0001b4c0       ?erase@?$list@PAVITERMAPDEV@@V?$__default_alloc_template@$00$0A@@@@@QAE?AU?$_List_iterator@PAVITERMAPDEV@@AAPAV1@PAPAV1@@@U2@@Z 0041c4c0 f i DevList.obj
 0001:0001b4f0       ??0?$_List_iterator@PAVITERMAPDEV@@AAPAV1@PAPAV1@@@QAE@ABU0@@Z 0041c4f0 f i DevList.obj
 0001:0001b500       ?insert@?$list@PAVITERLISTDEV@@V?$__default_alloc_template@$00$0A@@@@@QAE?AU?$_List_iterator@PAVITERLISTDEV@@AAPAV1@PAPAV1@@@U2@ABQAVITERLISTDEV@@@Z 0041c500 f i DevList.obj
 0001:0001b530       ??0?$_List_base@PAVITERLISTDEV@@V?$__default_alloc_template@$00$0A@@@@@QAE@ABV?$__default_alloc_template@$00$0A@@@@Z 0041c530 f i DevList.obj
 0001:0001b550       ??0?$_List_base@PAVCDEVPileElem@@V?$__default_alloc_template@$00$0A@@@@@QAE@ABV?$__default_alloc_template@$00$0A@@@@Z 0041c550 f i DevList.obj
 0001:0001b570       ??F?$_List_iterator@PAVCDEVPileElem@@AAPAV1@PAPAV1@@@QAEAAU0@XZ 0041c570 f i DevList.obj
 0001:0001b580       ?insert@?$map@PAVCDEVPileElem@@PAV1@UeqDevElem@@V?$__default_alloc_template@$00$0A@@@@@QAE?AU?$_Rb_tree_iterator@U?$pair@QAVCDEVPileElem@@PAV1@@@AAU1@PAU1@@@U2@ABU?$pair@QAVCDEVPileElem@@PAV1@@@@Z 0041c580 f i DevList.obj
 0001:0001b5b0       ?insert@?$list@PAVITERMAPDEV@@V?$__default_alloc_template@$00$0A@@@@@QAE?AU?$_List_iterator@PAVITERMAPDEV@@AAPAV1@PAPAV1@@@U2@ABQAVITERMAPDEV@@@Z 0041c5b0 f i DevList.obj
 0001:0001b5e0       ?_M_create_node@?$list@PAVITERLISTDEV@@V?$__default_alloc_template@$00$0A@@@@@IAEPAU?$_List_node@PAVITERLISTDEV@@@@ABQAVITERLISTDEV@@@Z 0041c5e0 f i DevList.obj
 0001:0001b6a0       ?_M_create_node@?$list@PAVITERMAPDEV@@V?$__default_alloc_template@$00$0A@@@@@IAEPAU?$_List_node@PAVITERMAPDEV@@@@ABQAVITERMAPDEV@@@Z 0041c6a0 f i DevList.obj
 0001:0001b760       ?insert_unique@?$_Rb_tree@PAVCDEVPileElem@@U?$pair@QAVCDEVPileElem@@PAV1@@@U?$_Select1st@U?$pair@QAVCDEVPileElem@@PAV1@@@@@UeqDevElem@@V?$__default_alloc_template@$00$0A@@@@@QAE?AU?$_Rb_tree_iterator@U?$pair@QAVCDEVPileElem@@PAV1@@@AAU1@PAU1@@@U2@ABU?$pair@QAVCDEVPileElem@@PAV1@@@@Z 0041c760 f i DevList.obj
 0001:0001ba10       ?begin@?$_Rb_tree@PAVCDEVPileElem@@U?$pair@QAVCDEVPileElem@@PAV1@@@U?$_Select1st@U?$pair@QAVCDEVPileElem@@PAV1@@@@@UeqDevElem@@V?$__default_alloc_template@$00$0A@@@@@QAE?AU?$_Rb_tree_iterator@U?$pair@QAVCDEVPileElem@@PAV1@@@AAU1@PAU1@@@XZ 0041ca10 f i DevList.obj
 0001:0001ba20       ?erase@?$_Rb_tree@PAVCDEVPileElem@@U?$pair@QAVCDEVPileElem@@PAV1@@@U?$_Select1st@U?$pair@QAVCDEVPileElem@@PAV1@@@@@UeqDevElem@@V?$__default_alloc_template@$00$0A@@@@@QAEXU?$_Rb_tree_iterator@U?$pair@QAVCDEVPileElem@@PAV1@@@AAU1@PAU1@@@@Z 0041ca20 f i DevList.obj
 0001:0001ba50       ?find@?$_Rb_tree@PAVCDEVPileElem@@U?$pair@QAVCDEVPileElem@@PAV1@@@U?$_Select1st@U?$pair@QAVCDEVPileElem@@PAV1@@@@@UeqDevElem@@V?$__default_alloc_template@$00$0A@@@@@QAE?AU?$_Rb_tree_iterator@U?$pair@QAVCDEVPileElem@@PAV1@@@AAU1@PAU1@@@ABQAVCDEVPileElem@@@Z 0041ca50 f i DevList.obj
 0001:0001bae0       ?lower_bound@?$_Rb_tree@PAVCDEVPileElem@@U?$pair@QAVCDEVPileElem@@PAV1@@@U?$_Select1st@U?$pair@QAVCDEVPileElem@@PAV1@@@@@UeqDevElem@@V?$__default_alloc_template@$00$0A@@@@@QAE?AU?$_Rb_tree_iterator@U?$pair@QAVCDEVPileElem@@PAV1@@@AAU1@PAU1@@@ABQAVCDEVPileElem@@@Z 0041cae0 f i DevList.obj
 0001:0001bb30       ?distance@@YAXU?$_List_iterator@PAVITERLISTDEV@@ABQAV1@PBQAV1@@@0AAI@Z 0041cb30 f i DevList.obj
 0001:0001bb50       ??1CDEVPileElem@@UAE@XZ    0041cb50 f i DevList.obj
 0001:0001bb60       ?SetParamValue@CDEVPileElem@@UAEXJ@Z 0041cb60 f i DevList.obj
 0001:0001bb70       ??_GCDEVPileElem@@UAEPAXI@Z 0041cb70 f i DevList.obj
 0001:0001bb70       ??_ECDEVPileElem@@UAEPAXI@Z 0041cb70 f i DevList.obj
 0001:0001bb90       ?_M_insert@?$_Rb_tree@PAVCDEVPileElem@@U?$pair@QAVCDEVPileElem@@PAV1@@@U?$_Select1st@U?$pair@QAVCDEVPileElem@@PAV1@@@@@UeqDevElem@@V?$__default_alloc_template@$00$0A@@@@@AAE?AU?$_Rb_tree_iterator@U?$pair@QAVCDEVPileElem@@PAV1@@@AAU1@PAU1@@@PAU_Rb_tree_node_base@@0ABU?$pair@QAVCDEVPileElem@@PAV1@@@@Z 0041cb90 f i DevList.obj
 0001:0001bd30       ?SetParamValue@CDEVLONG@@UAEXJ@Z 0041cd30 f i DevList.obj
 0001:0001bd50       ?PushVal@CDEVLONG@@UAEXXZ  0041cd50 f i DevList.obj
 0001:0001bd60       ?Compare@CDEVLONG@@UAE_NPAVCDEVPileElem@@@Z 0041cd60 f i DevList.obj
 0001:0001bd90       ??_GCDEVLONG@@UAEPAXI@Z    0041cd90 f i DevList.obj
 0001:0001bd90       ??_ECDEVLONG@@UAEPAXI@Z    0041cd90 f i DevList.obj
 0001:0001bdb0       ??1CDEVLONG@@UAE@XZ        0041cdb0 f i DevList.obj
 0001:0001bdc0       ?insert_unique@?$_Rb_tree@PAVCDEVPileElem@@U?$pair@QAVCDEVPileElem@@PAV1@@@U?$_Select1st@U?$pair@QAVCDEVPileElem@@PAV1@@@@@UeqDevElem@@V?$__default_alloc_template@$00$0A@@@@@QAE?AU?$pair@U?$_Rb_tree_iterator@U?$pair@QAVCDEVPileElem@@PAV1@@@AAU1@PAU1@@@_N@@ABU?$pair@QAVCDEVPileElem@@PAV1@@@@Z 0041cdc0 f i DevList.obj
 0001:0001bf90       ?SetParamValue@CDEVREAL@@UAEXJ@Z 0041cf90 f i DevList.obj
 0001:0001bfb0       ?PushVal@CDEVREAL@@UAEXXZ  0041cfb0 f i DevList.obj
 0001:0001bfd0       ?Compare@CDEVREAL@@UAE_NPAVCDEVPileElem@@@Z 0041cfd0 f i DevList.obj
 0001:0001c000       ??_GCDEVREAL@@UAEPAXI@Z    0041d000 f i DevList.obj
 0001:0001c000       ??_ECDEVREAL@@UAEPAXI@Z    0041d000 f i DevList.obj
 0001:0001c020       ??1CDEVREAL@@UAE@XZ        0041d020 f i DevList.obj
 0001:0001c030       ?__distance@@YAXU?$_List_iterator@PAVITERLISTDEV@@ABQAV1@PBQAV1@@@0AAIUinput_iterator_tag@@@Z 0041d030 f i DevList.obj
 0001:0001c050       ??0?$pair@U?$_Rb_tree_iterator@U?$pair@QAVCDEVPileElem@@PAV1@@@AAU1@PAU1@@@_N@@QAE@ABU0@@Z 0041d050 f i DevList.obj
 0001:0001c070       ?SetParamValue@CDEVIDENT@@UAEXJ@Z 0041d070 f i DevList.obj
 0001:0001c090       ?PushVal@CDEVIDENT@@UAEXXZ 0041d090 f i DevList.obj
 0001:0001c0a0       ?_M_create_node@?$_Rb_tree@PAVCDEVPileElem@@U?$pair@QAVCDEVPileElem@@PAV1@@@U?$_Select1st@U?$pair@QAVCDEVPileElem@@PAV1@@@@@UeqDevElem@@V?$__default_alloc_template@$00$0A@@@@@IAEPAU?$_Rb_tree_node@U?$pair@QAVCDEVPileElem@@PAV1@@@@@ABU?$pair@QAVCDEVPileElem@@PAV1@@@@Z 0041d0a0 f i DevList.obj
 0001:0001c160       ?Compare@CDEVIDENT@@UAE_NPAVCDEVPileElem@@@Z 0041d160 f i DevList.obj
 0001:0001c1b0       ??_ECDEVIDENT@@UAEPAXI@Z   0041d1b0 f i DevList.obj
 0001:0001c1b0       ??_GCDEVIDENT@@UAEPAXI@Z   0041d1b0 f i DevList.obj
 0001:0001c1d0       ??1CDEVIDENT@@UAE@XZ       0041d1d0 f i DevList.obj
 0001:0001c250       ??0?$pair@U?$_Rb_tree_iterator@U?$pair@QAVCDEVPileElem@@PAV1@@@AAU1@PAU1@@@_N@@QAE@ABU?$_Rb_tree_iterator@U?$pair@QAVCDEVPileElem@@PAV1@@@AAU1@PAU1@@@AB_N@Z 0041d250 f i DevList.obj
 0001:0001c270       ?SetParamValue@CDEVOBJ@@UAEXJ@Z 0041d270 f i DevList.obj
 0001:0001c290       ?PushVal@CDEVOBJ@@UAEXXZ   0041d290 f i DevList.obj
 0001:0001c2a0       ?Compare@CDEVOBJ@@UAE_NPAVCDEVPileElem@@@Z 0041d2a0 f i DevList.obj
 0001:0001c2d0       ??_GCDEVOBJ@@UAEPAXI@Z     0041d2d0 f i DevList.obj
 0001:0001c2d0       ??_ECDEVOBJ@@UAEPAXI@Z     0041d2d0 f i DevList.obj
 0001:0001c2f0       ??1CDEVOBJ@@UAE@XZ         0041d2f0 f i DevList.obj
 0001:0001c370       ?SetParamValue@CDEVSTRING@@UAEXJ@Z 0041d370 f i DevList.obj
 0001:0001c390       ?PushVal@CDEVSTRING@@UAEXXZ 0041d390 f i DevList.obj
 0001:0001c3a0       ?Compare@CDEVSTRING@@UAE_NPAVCDEVPileElem@@@Z 0041d3a0 f i DevList.obj
 0001:0001c3e0       ??_ECDEVSTRING@@UAEPAXI@Z  0041d3e0 f i DevList.obj
 0001:0001c3e0       ??_GCDEVSTRING@@UAEPAXI@Z  0041d3e0 f i DevList.obj
 0001:0001c400       ??1CDEVSTRING@@UAE@XZ      0041d400 f i DevList.obj
 0001:0001c460       ??1LISTDEV@@QAE@XZ         0041d460 f i DevList.obj
 0001:0001c590       ??ReqDevElem@@QBE_NPAVCDEVPileElem@@0@Z 0041d590 f i DevList.obj
 0001:0001c5b0       ??1MAPDEV@@QAE@XZ          0041d5b0 f i DevList.obj
 0001:0001c710       ??1?$list@PAVITERMAPDEV@@V?$__default_alloc_template@$00$0A@@@@@QAE@XZ 0041d710 f i DevList.obj
 0001:0001c870       ??1?$_Rb_tree_base@U?$pair@QAVCDEVPileElem@@PAV1@@@V?$__default_alloc_template@$00$0A@@@@@QAE@XZ 0041d870 f i DevList.obj
 0001:0001c880       ?_M_erase@?$_Rb_tree@PAVCDEVPileElem@@U?$pair@QAVCDEVPileElem@@PAV1@@@U?$_Select1st@U?$pair@QAVCDEVPileElem@@PAV1@@@@@UeqDevElem@@V?$__default_alloc_template@$00$0A@@@@@AAEXPAU?$_Rb_tree_node@U?$pair@QAVCDEVPileElem@@PAV1@@@@@@Z 0041d880 f i DevList.obj
 0001:0001c8c0       ??1?$map@PAVCDEVPileElem@@PAV1@UeqDevElem@@V?$__default_alloc_template@$00$0A@@@@@QAE@XZ 0041d8c0 f i DevList.obj
 0001:0001ca50       ?DevmthSin@@YAXXZ          0041da50 f   DevMath.obj
 0001:0001ca70       ?DevmthCos@@YAXXZ          0041da70 f   DevMath.obj
 0001:0001ca90       ?DevmthSqrt@@YAXXZ         0041da90 f   DevMath.obj
 0001:0001cb00       ?DevmthTan@@YAXXZ          0041db00 f   DevMath.obj
 0001:0001cb20       ?DevmthArcCos@@YAXXZ       0041db20 f   DevMath.obj
 0001:0001cbc0       ?DevmthArcSin@@YAXXZ       0041dbc0 f   DevMath.obj
 0001:0001cc60       ?DevmthArcTan@@YAXXZ       0041dc60 f   DevMath.obj
 0001:0001cc80       ?DevmthMod@@YAXXZ          0041dc80 f   DevMath.obj
 0001:0001ccd0       ?DevmthModReal@@YAXXZ      0041dcd0 f   DevMath.obj
 0001:0001cd60       ?DevmthAbs@@YAXXZ          0041dd60 f   DevMath.obj
 0001:0001cd80       ?DevmthRound@@YAXXZ        0041dd80 f   DevMath.obj
 0001:0001ceb0       ?DevmthRandom@@YAXXZ       0041deb0 f   DevMath.obj
 0001:0001cee0       ?DevmthRandomMinMax@@YAXXZ 0041dee0 f   DevMath.obj
 0001:0001cf60       ?DevmthAnd@@YAXXZ          0041df60 f   DevMath.obj
 0001:0001cf80       ?DevmthOr@@YAXXZ           0041df80 f   DevMath.obj
 0001:0001cfa0       ?DevmthXor@@YAXXZ          0041dfa0 f   DevMath.obj
 0001:0001cfc0       ?DevmthNot@@YAXXZ          0041dfc0 f   DevMath.obj
 0001:0001d010       ??1?$map@JPAVCNet@@U?$less@J@@V?$__default_alloc_template@$00$0A@@@@@QAE@XZ 0041e010 f i DevNet.obj
 0001:0001d230       ?netLoadIP@@YAXXZ          0041e230 f   DevNet.obj
 0001:0001d2c0       ?netReleaseIP@@YAXXZ       0041e2c0 f   DevNet.obj
 0001:0001d2f0       ?DoNetEventsCallback@@YAXXZ 0041e2f0 f   DevNet.obj
 0001:0001db20       ?DoNetEvents@@YACXZ        0041eb20 f   DevNet.obj
 0001:0001db40       ?netOpenIPConnection@@YAXXZ 0041eb40 f   DevNet.obj
 0001:0001ddb0       ?netCloseConnection@@YAXXZ 0041edb0 f   DevNet.obj
 0001:0001def0       ?AcceptCallBack@@YAJPAJPAUSAccept@@@Z 0041eef0 f   DevNet.obj
 0001:0001e090       ?ReceiveCallBack@@YAJPAJPAUsData@@@Z 0041f090 f   DevNet.obj
 0001:0001e220       ?netOpenIPPort@@YAXXZ      0041f220 f   DevNet.obj
 0001:0001e520       ?netCloseIPPort@@YAXXZ     0041f520 f   DevNet.obj
 0001:0001e780       ?netGetAdr@@YAXXZ          0041f780 f   DevNet.obj
 0001:0001e830       ?rqstCreate@@YAXXZ         0041f830 f   DevNet.obj
 0001:0001ea70       ?rqstDestroy@@YAXXZ        0041fa70 f   DevNet.obj
 0001:0001eb40       ?rqstCache@@YAXXZ          0041fb40 f   DevNet.obj
 0001:0001ebc0       ?netSetHandler@@YAXXZ      0041fbc0 f   DevNet.obj
 0001:0001ecb0       ?rqstSend@@YAXXZ           0041fcb0 f   DevNet.obj
 0001:0001ed50       ?rqstGetType@@YAXXZ        0041fd50 f   DevNet.obj
 0001:0001edd0       ?rqstGetNetID@@YAXXZ       0041fdd0 f   DevNet.obj
 0001:0001eeb0       ?rqstGetNumID@@YAXXZ       0041feb0 f   DevNet.obj
 0001:0001ef30       ?rqstGetName@@YAXXZ        0041ff30 f   DevNet.obj
 0001:0001efb0       ?rqstCopyStream@@YAXXZ     0041ffb0 f   DevNet.obj
 0001:0001f0f0       ??0?$map@JPAVCNet@@U?$less@J@@V?$__default_alloc_template@$00$0A@@@@@QAE@XZ 004200f0 f i DevNet.obj
 0001:0001f1c0       ??0?$list@PAUREQUEST@@V?$__default_alloc_template@$00$0A@@@@@QAE@ABV?$__default_alloc_template@$00$0A@@@@Z 004201c0 f i DevNet.obj
 0001:0001f280       ?begin@?$list@PAUREQUEST@@V?$__default_alloc_template@$00$0A@@@@@QAE?AU?$_List_iterator@PAUREQUEST@@AAPAU1@PAPAU1@@@XZ 00420280 f i DevNet.obj
 0001:0001f290       ?end@?$list@PAUREQUEST@@V?$__default_alloc_template@$00$0A@@@@@QAE?AU?$_List_iterator@PAUREQUEST@@AAPAU1@PAPAU1@@@XZ 00420290 f i DevNet.obj
 0001:0001f2a0       ?erase@?$list@PAUREQUEST@@V?$__default_alloc_template@$00$0A@@@@@QAE?AU?$_List_iterator@PAUREQUEST@@AAPAU1@PAPAU1@@@U2@@Z 004202a0 f i DevNet.obj
 0001:0001f2d0       ??1?$list@PAUREQUEST@@V?$__default_alloc_template@$00$0A@@@@@QAE@XZ 004202d0 f i DevNet.obj
 0001:0001f430       ??0?$_List_iterator@PAUREQUEST@@AAPAU1@PAPAU1@@@QAE@ABU0@@Z 00420430 f i DevNet.obj
 0001:0001f440       ?insert@?$map@JPAVCNet@@U?$less@J@@V?$__default_alloc_template@$00$0A@@@@@QAE?AU?$_Rb_tree_iterator@U?$pair@$$CBJPAVCNet@@@@AAU1@PAU1@@@U2@ABU?$pair@$$CBJPAVCNet@@@@@Z 00420440 f i DevNet.obj
 0001:0001f470       ??1?$_Rb_tree_base@U?$pair@$$CBJPAVCNet@@@@V?$__default_alloc_template@$00$0A@@@@@QAE@XZ 00420470 f i DevNet.obj
 0001:0001f480       ??0?$_Rb_tree_iterator@U?$pair@$$CBJPAVCNet@@@@AAU1@PAU1@@@QAE@ABU0@@Z 00420480 f i DevNet.obj
 0001:0001f490       ?insert@?$list@PAUREQUEST@@V?$__default_alloc_template@$00$0A@@@@@QAE?AU?$_List_iterator@PAUREQUEST@@AAPAU1@PAPAU1@@@U2@ABQAUREQUEST@@@Z 00420490 f i DevNet.obj
 0001:0001f4c0       ??0?$pair@$$CBJPAVCNet@@@@QAE@ABJABQAVCNet@@@Z 004204c0 f i DevNet.obj
 0001:0001f4e0       ?_M_create_node@?$list@PAUREQUEST@@V?$__default_alloc_template@$00$0A@@@@@IAEPAU?$_List_node@PAUREQUEST@@@@ABQAUREQUEST@@@Z 004204e0 f i DevNet.obj
 0001:0001f5a0       ?_M_erase@?$_Rb_tree@JU?$pair@$$CBJPAVCNet@@@@U?$_Select1st@U?$pair@$$CBJPAVCNet@@@@@@U?$less@J@@V?$__default_alloc_template@$00$0A@@@@@AAEXPAU?$_Rb_tree_node@U?$pair@$$CBJPAVCNet@@@@@@@Z 004205a0 f i DevNet.obj
 0001:0001f5e0       ?insert_unique@?$_Rb_tree@JU?$pair@$$CBJPAVCNet@@@@U?$_Select1st@U?$pair@$$CBJPAVCNet@@@@@@U?$less@J@@V?$__default_alloc_template@$00$0A@@@@@QAE?AU?$_Rb_tree_iterator@U?$pair@$$CBJPAVCNet@@@@AAU1@PAU1@@@U2@ABU?$pair@$$CBJPAVCNet@@@@@Z 004205e0 f i DevNet.obj
 0001:0001f8a0       ?lower_bound@?$_Rb_tree@JU?$pair@$$CBJPAVCNet@@@@U?$_Select1st@U?$pair@$$CBJPAVCNet@@@@@@U?$less@J@@V?$__default_alloc_template@$00$0A@@@@@QAE?AU?$_Rb_tree_iterator@U?$pair@$$CBJPAVCNet@@@@AAU1@PAU1@@@ABJ@Z 004208a0 f i DevNet.obj
 0001:0001f8e0       ?_M_insert@?$_Rb_tree@JU?$pair@$$CBJPAVCNet@@@@U?$_Select1st@U?$pair@$$CBJPAVCNet@@@@@@U?$less@J@@V?$__default_alloc_template@$00$0A@@@@@AAE?AU?$_Rb_tree_iterator@U?$pair@$$CBJPAVCNet@@@@AAU1@PAU1@@@PAU_Rb_tree_node_base@@0ABU?$pair@$$CBJPAVCNet@@@@@Z 004208e0 f i DevNet.obj
 0001:0001fa70       ?insert_unique@?$_Rb_tree@JU?$pair@$$CBJPAVCNet@@@@U?$_Select1st@U?$pair@$$CBJPAVCNet@@@@@@U?$less@J@@V?$__default_alloc_template@$00$0A@@@@@QAE?AU?$pair@U?$_Rb_tree_iterator@U?$pair@$$CBJPAVCNet@@@@AAU1@PAU1@@@_N@@ABU?$pair@$$CBJPAVCNet@@@@@Z 00420a70 f i DevNet.obj
 0001:0001fbe0       ?__distance@@YAXU?$_List_iterator@PAUREQUEST@@ABQAU1@PBQAU1@@@0AAIUinput_iterator_tag@@@Z 00420be0 f i DevNet.obj
 0001:0001fc00       ??0?$pair@U?$_Rb_tree_iterator@U?$pair@$$CBJPAVCNet@@@@AAU1@PAU1@@@_N@@QAE@ABU0@@Z 00420c00 f i DevNet.obj
 0001:0001fc20       ?_M_create_node@?$_Rb_tree@JU?$pair@$$CBJPAVCNet@@@@U?$_Select1st@U?$pair@$$CBJPAVCNet@@@@@@U?$less@J@@V?$__default_alloc_template@$00$0A@@@@@IAEPAU?$_Rb_tree_node@U?$pair@$$CBJPAVCNet@@@@@@ABU?$pair@$$CBJPAVCNet@@@@@Z 00420c20 f i DevNet.obj
 0001:0001fce0       ?begin@?$_Rb_tree@JU?$pair@$$CBJPAVCNet@@@@U?$_Select1st@U?$pair@$$CBJPAVCNet@@@@@@U?$less@J@@V?$__default_alloc_template@$00$0A@@@@@QAE?AU?$_Rb_tree_iterator@U?$pair@$$CBJPAVCNet@@@@AAU1@PAU1@@@XZ 00420ce0 f i DevNet.obj
 0001:0001fcf0       ??0?$pair@U?$_Rb_tree_iterator@U?$pair@$$CBJPAVCNet@@@@AAU1@PAU1@@@_N@@QAE@ABU?$_Rb_tree_iterator@U?$pair@$$CBJPAVCNet@@@@AAU1@PAU1@@@AB_N@Z 00420cf0 f i DevNet.obj
 0001:0001fd10       ?DevobcLoad@@YAXXZ         00420d10 f   DevObc.obj
 0001:0001fd40       ?DevobcUnLoad@@YAXXZ       00420d40 f   DevObc.obj
 0001:0001fd70       ?DevobcIsKindOf@@YAXXZ     00420d70 f   DevObc.obj
 0001:0001fe40       ?DevobcIsSonOf@@YAXXZ      00420e40 f   DevObc.obj
 0001:0001ff40       ?DevobcIsFunc@@YAXXZ       00420f40 f   DevObc.obj
 0001:0001ffb0       ?DevobcIsVar@@YAXXZ        00420fb0 f   DevObc.obj
 0001:00020010       ?DevobcGetType@@YAXXZ      00421010 f   DevObc.obj
 0001:00020040       ?DevobcIsLoaded@@YAXXZ     00421040 f   DevObc.obj
 0001:00020070       ?ErrCallBack@@YAXHHPAD@Z   00421070 f   DevPage.obj
 0001:000200d0       ?pageOpen@@YAXXZ           004210d0 f   DevPage.obj
 0001:000201e0       ?pageClose@@YAXXZ          004211e0 f   DevPage.obj
 0001:00020230       ?pageGetNextItem@@YAXXZ    00421230 f   DevPage.obj
 0001:000202f0       ?pageGetFirstItem@@YAXXZ   004212f0 f   DevPage.obj
 0001:00020330       ?pageGetSizeX@@YAXXZ       00421330 f   DevPage.obj
 0001:00020380       ?pageGetSizeY@@YAXXZ       00421380 f   DevPage.obj
 0001:000203d0       ?pageGetVersion@@YAXXZ     004213d0 f   DevPage.obj
 0001:00020420       ?pageGetItem@@YAXXZ        00421420 f   DevPage.obj
 0001:00020520       ?itemGetType@@YAXXZ        00421520 f   DevPage.obj
 0001:00020560       ?itemGetX@@YAXXZ           00421560 f   DevPage.obj
 0001:000205a0       ?itemGetY@@YAXXZ           004215a0 f   DevPage.obj
 0001:000205e0       ?itemGetL@@YAXXZ           004215e0 f   DevPage.obj
 0001:00020620       ?itemGetH@@YAXXZ           00421620 f   DevPage.obj
 0001:00020660       ?itemGetZOrder@@YAXXZ      00421660 f   DevPage.obj
 0001:000206a0       ?itemGetName@@YAXXZ        004216a0 f   DevPage.obj
 0001:000206f0       ?itemGetResourceString@@YAXXZ 004216f0 f   DevPage.obj
 0001:00020770       ?itemGetResourceInt@@YAXXZ 00421770 f   DevPage.obj
 0001:000207f0       ?itemGetStringSubType@@YAXXZ 004217f0 f   DevPage.obj
 0001:00020870       ?itemGetLongSubType@@YAXXZ 00421870 f   DevPage.obj
 0001:00020900       ?itemDelete@@YAXXZ         00421900 f   DevPage.obj
 0001:00020940       ?pageDrawRichEdit@@YAXXZ   00421940 f   DevPage.obj
 0001:00020af0       ?itemGetGroupName@@YAXXZ   00421af0 f   DevPage.obj
 0001:00020b40       ?itemGetSubTypeName@@YAXXZ 00421b40 f   DevPage.obj
 0001:00020c80       ?DoRASEvents@@YAHXZ        00421c80 f   DevRAS.obj
 0001:00020e50       ?netDial@@YAXXZ            00421e50 f   DevRAS.obj
 0001:00020f40       ?netHangUp@@YAXXZ          00421f40 f   DevRAS.obj
 0001:00020f60       ?netGetProviderList@@YAXXZ 00421f60 f   DevRAS.obj
 0001:00021160       ?netGetProviderInfo@@YAXXZ 00422160 f   DevRAS.obj
 0001:000211d0       ?netIsActiveConnection@@YAXXZ 004221d0 f   DevRAS.obj
 0001:000211f0       ??0?$list@URASEVENT@@V?$__default_alloc_template@$00$0A@@@@@QAE@ABV?$__default_alloc_template@$00$0A@@@@Z 004221f0 f i DevRAS.obj
 0001:000212b0       ??1?$list@URASEVENT@@V?$__default_alloc_template@$00$0A@@@@@QAE@XZ 004222b0 f i DevRAS.obj
 0001:00021410       ?begin@?$list@URASEVENT@@V?$__default_alloc_template@$00$0A@@@@@QAE?AU?$_List_iterator@URASEVENT@@AAU1@PAU1@@@XZ 00422410 f i DevRAS.obj
 0001:00021420       ?end@?$list@URASEVENT@@V?$__default_alloc_template@$00$0A@@@@@QAE?AU?$_List_iterator@URASEVENT@@AAU1@PAU1@@@XZ 00422420 f i DevRAS.obj
 0001:00021430       ?insert@?$list@URASEVENT@@V?$__default_alloc_template@$00$0A@@@@@QAE?AU?$_List_iterator@URASEVENT@@AAU1@PAU1@@@U2@ABURASEVENT@@@Z 00422430 f i DevRAS.obj
 0001:00021460       ?erase@?$list@URASEVENT@@V?$__default_alloc_template@$00$0A@@@@@QAE?AU?$_List_iterator@URASEVENT@@AAU1@PAU1@@@U2@@Z 00422460 f i DevRAS.obj
 0001:00021490       ??0?$_List_iterator@URASEVENT@@AAU1@PAU1@@@QAE@ABU0@@Z 00422490 f i DevRAS.obj
 0001:000214a0       ?_M_create_node@?$list@URASEVENT@@V?$__default_alloc_template@$00$0A@@@@@IAEPAU?$_List_node@URASEVENT@@@@ABURASEVENT@@@Z 004224a0 f i DevRAS.obj
 0001:00021560       ?DevrctOpen@@YAXXZ         00422560 f   DevRct.obj
 0001:00021720       ?DevrctClose@@YAXXZ        00422720 f   DevRct.obj
 0001:00021780       ?DevrctGet@@YAXXZ          00422780 f   DevRct.obj
 0001:00021890       ?DevrctExist@@YAXXZ        00422890 f   DevRct.obj
 0001:00021980       ?soundCreateFromFile@@YAXXZ 00422980 f   DevSound.obj
 0001:00021c20       ?soundDestroy@@YAXXZ       00422c20 f   DevSound.obj
 0001:00021d10       ?soundPlay@@YAXXZ          00422d10 f   DevSound.obj
 0001:00021f40       ?soundStop@@YAXXZ          00422f40 f   DevSound.obj
 0001:00021fa0       ?soundPause@@YAXXZ         00422fa0 f   DevSound.obj
 0001:00022000       ?soundResume@@YAXXZ        00423000 f   DevSound.obj
 0001:00022070       ?soundApplyEffectsBox@@YAXXZ 00423070 f   DevSound.obj
 0001:000220d0       ?soundRemoveEffectsBox@@YAXXZ 004230d0 f   DevSound.obj
 0001:00022110       ?soundGetLength@@YAXXZ     00423110 f   DevSound.obj
 0001:00022180       ?effectsBoxCreate@@YAXXZ   00423180 f   DevSound.obj
 0001:00022210       ?effectsBoxDestroy@@YAXXZ  00423210 f   DevSound.obj
 0001:00022300       ?effectsBoxAddEffect@@YAXXZ 00423300 f   DevSound.obj
 0001:00022480       ?effectsBoxRemoveEffect@@YAXXZ 00423480 f   DevSound.obj
 0001:00022570       ?effectsBoxAdjustEffect@@YAXXZ 00423570 f   DevSound.obj
 0001:00023050       ?what@__Named_exception@@UBEPBDXZ 00424050 f i DevSound.obj
 0001:00023060       ??0logic_error@@QAE@ABV?$basic_string@DU?$char_traits@D@@V?$__default_alloc_template@$00$0A@@@@@@Z 00424060 f i DevSound.obj
 0001:000230a0       ??_E__Named_exception@@UAEPAXI@Z 004240a0 f i DevSound.obj
 0001:000230a0       ??_G__Named_exception@@UAEPAXI@Z 004240a0 f i DevSound.obj
 0001:000230c0       ??1__Named_exception@@UAE@XZ 004240c0 f i DevSound.obj
 0001:000230d0       ??_Glogic_error@@UAEPAXI@Z 004240d0 f i DevSound.obj
 0001:000230d0       ??_Elogic_error@@UAEPAXI@Z 004240d0 f i DevSound.obj
 0001:000230f0       ??1logic_error@@UAE@XZ     004240f0 f i DevSound.obj
 0001:00023100       ??_Elength_error@@UAEPAXI@Z 00424100 f i DevSound.obj
 0001:00023100       ??_Glength_error@@UAEPAXI@Z 00424100 f i DevSound.obj
 0001:00023120       ??1length_error@@UAE@XZ    00424120 f i DevSound.obj
 0001:00023130       ?effectsBoxSwitchEffect@@YAXXZ 00424130 f   DevSound.obj
 0001:00023280       ?effectsBoxSwitchDryOutput@@YAXXZ 00424280 f   DevSound.obj
 0001:000233c0       ?effectsBoxSetPitch@@YAXXZ 004243c0 f   DevSound.obj
 0001:00023570       ?modPlayerCreate@@YAXXZ    00424570 f   DevSound.obj
 0001:00023690       ?modPlayerDestroy@@YAXXZ   00424690 f   DevSound.obj
 0001:00023730       ?modPlayerApplyEffectsBox@@YAXXZ 00424730 f   DevSound.obj
 0001:000237f0       ?modPlayerRemoveEffectsBox@@YAXXZ 004247f0 f   DevSound.obj
 0001:00023880       ?modPlayerAddSound@@YAXXZ  00424880 f   DevSound.obj
 0001:00023a40       ?modPlayerRemoveSound@@YAXXZ 00424a40 f   DevSound.obj
 0001:00023b00       ?modPlayerSetLength@@YAXXZ 00424b00 f   DevSound.obj
 0001:00023b50       ?modPlayerPlay@@YAXXZ      00424b50 f   DevSound.obj
 0001:00023c80       ?modPlayerStop@@YAXXZ      00424c80 f   DevSound.obj
 0001:00023cc0       ?modPlayerGetPosition@@YAXXZ 00424cc0 f   DevSound.obj
 0001:00023d20       ?modPlayerSetVolume@@YAXXZ 00424d20 f   DevSound.obj
 0001:00023d80       ?modPlayerGetVolume@@YAXXZ 00424d80 f   DevSound.obj
 0001:00023dc0       ??0?$basic_string@DU?$char_traits@D@@V?$__default_alloc_template@$00$0A@@@@@QAE@PBDABV?$__default_alloc_template@$00$0A@@@@Z 00424dc0 f i DevSound.obj
 0001:00023f30       ??1?$basic_string@DU?$char_traits@D@@V?$__default_alloc_template@$00$0A@@@@@QAE@XZ 00424f30 f i DevSound.obj
 0001:00024090       ??1?$_String_base@DV?$__default_alloc_template@$00$0A@@@@@IAE@XZ 00425090 f i DevSound.obj
 0001:000240b0       ?_M_terminate_string@?$basic_string@DU?$char_traits@D@@V?$__default_alloc_template@$00$0A@@@@@AAEXXZ 004250b0 f i DevSound.obj
 0001:00024100       ?_M_construct_null@?$basic_string@DU?$char_traits@D@@V?$__default_alloc_template@$00$0A@@@@@AAEXPAD@Z 00425100 f i DevSound.obj
 0001:00024110       ?_S_oom_malloc@?$__malloc_alloc_template@$0A@@@CAPAXI@Z 00425110 f i DevSound.obj
 0001:00024160       ??0__Named_exception@@QAE@ABV0@@Z 00425160 f i DevSound.obj
 0001:00024190       ??0length_error@@QAE@ABV0@@Z 00425190 f i DevSound.obj
 0001:000241c0       ??0logic_error@@QAE@ABV0@@Z 004251c0 f i DevSound.obj
 0001:000241f0       ?Devnop@@YAXXZ             004251f0 f   DevSpecial.obj
 0001:00024200       ?DevbreakPoint@@YAXXZ      00425200 f   DevSpecial.obj
 0001:00024210       ?Devtrace@@YAXXZ           00425210 f   DevSpecial.obj
 0001:00024240       ?Devwatch@@YAXXZ           00425240 f   DevSpecial.obj
 0001:00024410       ?DevwarningBox@@YAXXZ      00425410 f   DevSpecial.obj
 0001:00024440       ?DevinfoBox@@YAXXZ         00425440 f   DevSpecial.obj
 0001:00024480       ?DevenvSetWarning@@YAXXZ   00425480 f   DevSpecial.obj
 0001:00024490       ?DevenvAddWarning@@YAXXZ   00425490 f   DevSpecial.obj
 0001:000244a0       ?DevenvSubWarning@@YAXXZ   004254a0 f   DevSpecial.obj
 0001:000244b0       ?DevenvSetTraceLoader@@YAXXZ 004254b0 f   DevSpecial.obj
 0001:000244c0       ?DevenvAddTraceLoader@@YAXXZ 004254c0 f   DevSpecial.obj
 0001:000244d0       ?DevenvSubTraceLoader@@YAXXZ 004254d0 f   DevSpecial.obj
 0001:000244e0       ?Devlongtoreal@@YAXXZ      004254e0 f   DevSpecial.obj
 0001:00024500       ?Devrealtolong@@YAXXZ      00425500 f   DevSpecial.obj
 0001:000245f0       ?Devitoa@@YAXXZ            004255f0 f   DevStr.obj
 0001:00024640       ?Devrtoa@@YAXXZ            00425640 f   DevStr.obj
 0001:000248a0       ?Devatoi@@YAXXZ            004258a0 f   DevStr.obj
 0001:000248c0       ?Devator@@YAXXZ            004258c0 f   DevStr.obj
 0001:000248f0       ?DevstrLen@@YAXXZ          004258f0 f   DevStr.obj
 0001:00024920       ?DevstrUpr@@YAXXZ          00425920 f   DevStr.obj
 0001:000249b0       ?DevstrDwn@@YAXXZ          004259b0 f   DevStr.obj
 0001:00024a40       ?DevstrPos@@YAXXZ          00425a40 f   DevStr.obj
 0001:00024a70       ?DevstrCpy@@YAXXZ          00425a70 f   DevStr.obj
 0001:00024b70       ?DevstrDel@@YAXXZ          00425b70 f   DevStr.obj
 0001:00024cb0       ?DevstrRep@@YAXXZ          00425cb0 f   DevStr.obj
 0001:00024e20       ?DevstrCut@@YAXXZ          00425e20 f   DevStr.obj
 0001:00024fb0       ?DevstrCmp@@YAXXZ          00425fb0 f   DevStr.obj
 0001:00025010       ?DevstrOEMToAnsi@@YAXXZ    00426010 f   DevStr.obj
 0001:00025070       ?DevstrAnsiToOEM@@YAXXZ    00426070 f   DevStr.obj
 0001:000250d0       ?DevstrGetChar@@YAXXZ      004260d0 f   DevStr.obj
 0001:00025140       ?DevstrSetChar@@YAXXZ      00426140 f   DevStr.obj
 0001:000251f0       ?DevkeyToStr@@YAXXZ        004261f0 f   DevStr.obj
 0001:00025210       ?DevstrToKey@@YAXXZ        00426210 f   DevStr.obj
 0001:00025280       ?streamCreate@@YAXXZ       00426280 f   DevStream.obj
 0001:00025390       ?streamDestroy@@YAXXZ      00426390 f   DevStream.obj
 0001:000253d0       ?streamGetPosition@@YAXXZ  004263d0 f   DevStream.obj
 0001:00025420       ?streamGetSize@@YAXXZ      00426420 f   DevStream.obj
 0001:00025470       ?streamSetPosition@@YAXXZ  00426470 f   DevStream.obj
 0001:000254f0       ?streamWrite@@YAXXZ        004264f0 f   DevStream.obj
 0001:00025770       ?streamRead@@YAXXZ         00426770 f   DevStream.obj
 0001:000259d0       ?streamWriteFixedString@@YAXXZ 004269d0 f   DevStream.obj
 0001:00025b90       ?streamReadFixedString@@YAXXZ 00426b90 f   DevStream.obj
 0001:00025d80       ?streamWriteFromFile@@YAXXZ 00426d80 f   DevStream.obj
 0001:00026000       ?streamReadToFile@@YAXXZ   00427000 f   DevStream.obj
 0001:00026410       ?sysGetScreenSizeX@@YAXXZ  00427410 f   DevSys.obj
 0001:00026430       ?sysGetScreenSizeY@@YAXXZ  00427430 f   DevSys.obj
 0001:00026450       ?sysGetScreenDepth@@YAXXZ  00427450 f   DevSys.obj
 0001:00026470       ?sysGetRealScreenDepth@@YAXXZ 00427470 f   DevSys.obj
 0001:00026490       ?sysGetRealScreenSizeX@@YAXXZ 00427490 f   DevSys.obj
 0001:000264b0       ?sysGetRealScreenSizeY@@YAXXZ 004274b0 f   DevSys.obj
 0001:000264d0       ?sysGetOSType@@YAXXZ       004274d0 f   DevSys.obj
 0001:000264e0       ?sysGetOSVersion@@YAXXZ    004274e0 f   DevSys.obj
 0001:000264f0       ?sysLaunchApplication@@YAXXZ 004274f0 f   DevSys.obj
 0001:00026550       ?sysGetApplicationInfo@@YAXXZ 00427550 f   DevSys.obj
 0001:00026590       ?sysLaunchURL@@YAXXZ       00427590 f   DevSys.obj
 0001:000265f0       ?sysGetDriveList@@YAXXZ    004275f0 f   DevSys.obj
 0001:00026700       ?sysGetDriveFreeSpace@@YAXXZ 00427700 f   DevSys.obj
 0001:00026720       ?sysGetDriveType@@YAXXZ    00427720 f   DevSys.obj
 0001:00026740       ?sysEject@@YAXXZ           00427740 f   DevSys.obj
 0001:00026760       ?sysGetCurrentLanguage@@YAXXZ 00427760 f   DevSys.obj
 0001:00026770       ?sysAddPath@@YAXXZ         00427770 f   DevSys.obj
 0001:00026810       ?sysRemovePath@@YAXXZ      00427810 f   DevSys.obj
 0001:000268a0       ?sysSetClipboard@@YAXXZ    004278a0 f   DevSys.obj
 0001:000268c0       ?sysGetClipboard@@YAXXZ    004278c0 f   DevSys.obj
 0001:00026900       ?sysGetPCFullPath@@YAXXZ   00427900 f   DevSys.obj
 0001:00026950       ?sysExit@@YAXXZ            00427950 f   DevSys.obj
 0001:00026960       ??1?$list@PBDV?$__default_alloc_template@$00$0A@@@@@QAE@XZ 00427960 f i DevSys.obj
 0001:00026ac0       ?begin@?$list@PBDV?$__default_alloc_template@$00$0A@@@@@QAE?AU?$_List_iterator@PBDAAPBDPAPBD@@XZ 00427ac0 f i DevSys.obj
 0001:00026ad0       ??1?$_List_base@PBDV?$__default_alloc_template@$00$0A@@@@@QAE@XZ 00427ad0 f i DevSys.obj
 0001:00026b10       ??0?$_List_iterator@PBDAAPBDPAPBD@@QAE@ABU0@@Z 00427b10 f i DevSys.obj
 0001:00026b20       ?insert@?$list@PBDV?$__default_alloc_template@$00$0A@@@@@QAEXU?$_List_iterator@PBDAAPBDPAPBD@@U?$_List_iterator@PBDABQBDPBQBD@@1@Z 00427b20 f i DevSys.obj
 0001:00026b60       ?insert@?$list@PBDV?$__default_alloc_template@$00$0A@@@@@QAE?AU?$_List_iterator@PBDAAPBDPAPBD@@U2@ABQBD@Z 00427b60 f i DevSys.obj
 0001:00026b90       ?_M_create_node@?$list@PBDV?$__default_alloc_template@$00$0A@@@@@IAEPAU?$_List_node@PBD@@ABQBD@Z 00427b90 f i DevSys.obj
 0001:00026c80       ??1?$map@JPAUDEVTIMER@@U?$less@J@@V?$__default_alloc_template@$00$0A@@@@@QAE@XZ 00427c80 f i DevTimer.obj
 0001:00026e40       ?OnTimerEvent@@YAXJ@Z      00427e40 f   DevTimer.obj
 0001:00026e80       ?DoTimerEvents@@YACXZ      00427e80 f   DevTimer.obj
 0001:00027200       ?timerCreate@@YAXXZ        00428200 f   DevTimer.obj
 0001:00027350       ?timerRun@@YAXXZ           00428350 f   DevTimer.obj
 0001:00027470       ?timerPause@@YAXXZ         00428470 f   DevTimer.obj
 0001:00027500       ?timerSetHandler@@YAXXZ    00428500 f   DevTimer.obj
 0001:000276e0       ?timerDelete@@YAXXZ        004286e0 f   DevTimer.obj
 0001:000277d0       ??0?$map@JPAUDEVTIMER@@U?$less@J@@V?$__default_alloc_template@$00$0A@@@@@QAE@XZ 004287d0 f i DevTimer.obj
 0001:000278a0       ?end@?$map@JPAUDEVTIMER@@U?$less@J@@V?$__default_alloc_template@$00$0A@@@@@QAE?AU?$_Rb_tree_iterator@U?$pair@$$CBJPAUDEVTIMER@@@@AAU1@PAU1@@@XZ 004288a0 f i DevTimer.obj
 0001:000278b0       ??A?$map@JPAUDEVTIMER@@U?$less@J@@V?$__default_alloc_template@$00$0A@@@@@QAEAAPAUDEVTIMER@@ABJ@Z 004288b0 f i DevTimer.obj
 0001:00027920       ?erase@?$map@JPAUDEVTIMER@@U?$less@J@@V?$__default_alloc_template@$00$0A@@@@@QAEXU?$_Rb_tree_iterator@U?$pair@$$CBJPAUDEVTIMER@@@@AAU1@PAU1@@@@Z 00428920 f i DevTimer.obj
 0001:00027940       ??0?$_Rb_tree_iterator@U?$pair@$$CBJPAUDEVTIMER@@@@AAU1@PAU1@@@QAE@ABU0@@Z 00428940 f i DevTimer.obj
 0001:00027950       ??0?$list@JV?$__default_alloc_template@$00$0A@@@@@QAE@ABV?$__default_alloc_template@$00$0A@@@@Z 00428950 f i DevTimer.obj
 0001:00027a10       ??1?$list@JV?$__default_alloc_template@$00$0A@@@@@QAE@XZ 00428a10 f i DevTimer.obj
 0001:00027b70       ?insert@?$map@JPAUDEVTIMER@@U?$less@J@@V?$__default_alloc_template@$00$0A@@@@@QAE?AU?$_Rb_tree_iterator@U?$pair@$$CBJPAUDEVTIMER@@@@AAU1@PAU1@@@U2@ABU?$pair@$$CBJPAUDEVTIMER@@@@@Z 00428b70 f i DevTimer.obj
 0001:00027ba0       ?lower_bound@?$map@JPAUDEVTIMER@@U?$less@J@@V?$__default_alloc_template@$00$0A@@@@@QAE?AU?$_Rb_tree_iterator@U?$pair@$$CBJPAUDEVTIMER@@@@AAU1@PAU1@@@ABJ@Z 00428ba0 f i DevTimer.obj
 0001:00027be0       ??1?$_Rb_tree_base@U?$pair@$$CBJPAUDEVTIMER@@@@V?$__default_alloc_template@$00$0A@@@@@QAE@XZ 00428be0 f i DevTimer.obj
 0001:00027bf0       ?end@?$list@JV?$__default_alloc_template@$00$0A@@@@@QAE?AU?$_List_iterator@JAAJPAJ@@XZ 00428bf0 f i DevTimer.obj
 0001:00027c00       ?insert@?$list@JV?$__default_alloc_template@$00$0A@@@@@QAE?AU?$_List_iterator@JAAJPAJ@@U2@ABJ@Z 00428c00 f i DevTimer.obj
 0001:00027c30       ??0?$_List_iterator@JAAJPAJ@@QAE@ABU0@@Z 00428c30 f i DevTimer.obj
 0001:00027c40       ??0?$pair@$$CBJPAUDEVTIMER@@@@QAE@ABJABQAUDEVTIMER@@@Z 00428c40 f i DevTimer.obj
 0001:00027c60       ?_M_create_node@?$list@JV?$__default_alloc_template@$00$0A@@@@@IAEPAU?$_List_node@J@@ABJ@Z 00428c60 f i DevTimer.obj
 0001:00027d20       ?_M_erase@?$_Rb_tree@JU?$pair@$$CBJPAUDEVTIMER@@@@U?$_Select1st@U?$pair@$$CBJPAUDEVTIMER@@@@@@U?$less@J@@V?$__default_alloc_template@$00$0A@@@@@AAEXPAU?$_Rb_tree_node@U?$pair@$$CBJPAUDEVTIMER@@@@@@@Z 00428d20 f i DevTimer.obj
 0001:00027d60       ?insert_unique@?$_Rb_tree@JU?$pair@$$CBJPAUDEVTIMER@@@@U?$_Select1st@U?$pair@$$CBJPAUDEVTIMER@@@@@@U?$less@J@@V?$__default_alloc_template@$00$0A@@@@@QAE?AU?$_Rb_tree_iterator@U?$pair@$$CBJPAUDEVTIMER@@@@AAU1@PAU1@@@U2@ABU?$pair@$$CBJPAUDEVTIMER@@@@@Z 00428d60 f i DevTimer.obj
 0001:00028020       ?erase@?$_Rb_tree@JU?$pair@$$CBJPAUDEVTIMER@@@@U?$_Select1st@U?$pair@$$CBJPAUDEVTIMER@@@@@@U?$less@J@@V?$__default_alloc_template@$00$0A@@@@@QAEXU?$_Rb_tree_iterator@U?$pair@$$CBJPAUDEVTIMER@@@@AAU1@PAU1@@@@Z 00429020 f i DevTimer.obj
 0001:00028050       ?find@?$_Rb_tree@JU?$pair@$$CBJPAUDEVTIMER@@@@U?$_Select1st@U?$pair@$$CBJPAUDEVTIMER@@@@@@U?$less@J@@V?$__default_alloc_template@$00$0A@@@@@QAE?AU?$_Rb_tree_iterator@U?$pair@$$CBJPAUDEVTIMER@@@@AAU1@PAU1@@@ABJ@Z 00429050 f i DevTimer.obj
 0001:000280b0       ?lower_bound@?$_Rb_tree@JU?$pair@$$CBJPAUDEVTIMER@@@@U?$_Select1st@U?$pair@$$CBJPAUDEVTIMER@@@@@@U?$less@J@@V?$__default_alloc_template@$00$0A@@@@@QAE?AU?$_Rb_tree_iterator@U?$pair@$$CBJPAUDEVTIMER@@@@AAU1@PAU1@@@ABJ@Z 004290b0 f i DevTimer.obj
 0001:000280f0       ?erase@?$list@JV?$__default_alloc_template@$00$0A@@@@@QAE?AU?$_List_iterator@JAAJPAJ@@U2@@Z 004290f0 f i DevTimer.obj
 0001:00028120       ?_M_insert@?$_Rb_tree@JU?$pair@$$CBJPAUDEVTIMER@@@@U?$_Select1st@U?$pair@$$CBJPAUDEVTIMER@@@@@@U?$less@J@@V?$__default_alloc_template@$00$0A@@@@@AAE?AU?$_Rb_tree_iterator@U?$pair@$$CBJPAUDEVTIMER@@@@AAU1@PAU1@@@PAU_Rb_tree_node_base@@0ABU?$pair@$$CBJPAUDEVTIMER@@@@@Z 00429120 f i DevTimer.obj
 0001:000282b0       ?insert_unique@?$_Rb_tree@JU?$pair@$$CBJPAUDEVTIMER@@@@U?$_Select1st@U?$pair@$$CBJPAUDEVTIMER@@@@@@U?$less@J@@V?$__default_alloc_template@$00$0A@@@@@QAE?AU?$pair@U?$_Rb_tree_iterator@U?$pair@$$CBJPAUDEVTIMER@@@@AAU1@PAU1@@@_N@@ABU?$pair@$$CBJPAUDEVTIMER@@@@@Z 004292b0 f i DevTimer.obj
 0001:00028420       ??0?$pair@U?$_Rb_tree_iterator@U?$pair@$$CBJPAUDEVTIMER@@@@AAU1@PAU1@@@_N@@QAE@ABU0@@Z 00429420 f i DevTimer.obj
 0001:00028440       ?_M_create_node@?$_Rb_tree@JU?$pair@$$CBJPAUDEVTIMER@@@@U?$_Select1st@U?$pair@$$CBJPAUDEVTIMER@@@@@@U?$less@J@@V?$__default_alloc_template@$00$0A@@@@@IAEPAU?$_Rb_tree_node@U?$pair@$$CBJPAUDEVTIMER@@@@@@ABU?$pair@$$CBJPAUDEVTIMER@@@@@Z 00429440 f i DevTimer.obj
 0001:00028500       ?begin@?$_Rb_tree@JU?$pair@$$CBJPAUDEVTIMER@@@@U?$_Select1st@U?$pair@$$CBJPAUDEVTIMER@@@@@@U?$less@J@@V?$__default_alloc_template@$00$0A@@@@@QAE?AU?$_Rb_tree_iterator@U?$pair@$$CBJPAUDEVTIMER@@@@AAU1@PAU1@@@XZ 00429500 f i DevTimer.obj
 0001:00028510       ??0?$pair@U?$_Rb_tree_iterator@U?$pair@$$CBJPAUDEVTIMER@@@@AAU1@PAU1@@@_N@@QAE@ABU?$_Rb_tree_iterator@U?$pair@$$CBJPAUDEVTIMER@@@@AAU1@PAU1@@@AB_N@Z 00429510 f i DevTimer.obj
 0001:00028560       ?DoTTSEvents@@YACXZ        00429560 f   DevTTS.obj
 0001:00028730       ?voiceOpen@@YAXXZ          00429730 f   DevTTS.obj
 0001:00028890       ?voiceClose@@YAXXZ         00429890 f   DevTTS.obj
 0001:000288e0       ?voiceSetHandler@@YAXXZ    004298e0 f   DevTTS.obj
 0001:00028940       ?voicePause@@YAXXZ         00429940 f   DevTTS.obj
 0001:00028980       ?voiceStop@@YAXXZ          00429980 f   DevTTS.obj
 0001:000289c0       ?voiceResume@@YAXXZ        004299c0 f   DevTTS.obj
 0001:00028a00       ?voiceSay@@YAXXZ           00429a00 f   DevTTS.obj
 0001:00028a80       ?voiceSetAudioParams@@YAXXZ 00429a80 f   DevTTS.obj
 0001:00028b00       ?voiceGetAudioParams@@YAXXZ 00429b00 f   DevTTS.obj
 0001:00028bb0       ?voiceApplyEffectsBox@@YAXXZ 00429bb0 f   DevTTS.obj
 0001:00028c20       ?voiceRemoveEffectsBox@@YAXXZ 00429c20 f   DevTTS.obj
 0001:00028c70       ??0?$list@UDEVTTSEVENT@@V?$__default_alloc_template@$00$0A@@@@@QAE@ABV?$__default_alloc_template@$00$0A@@@@Z 00429c70 f i DevTTS.obj
 0001:00028d30       ??1?$list@UDEVTTSEVENT@@V?$__default_alloc_template@$00$0A@@@@@QAE@XZ 00429d30 f i DevTTS.obj
 0001:00028e90       ?begin@?$list@UDEVTTSEVENT@@V?$__default_alloc_template@$00$0A@@@@@QAE?AU?$_List_iterator@UDEVTTSEVENT@@AAU1@PAU1@@@XZ 00429e90 f i DevTTS.obj
 0001:00028ea0       ?end@?$list@UDEVTTSEVENT@@V?$__default_alloc_template@$00$0A@@@@@QAE?AU?$_List_iterator@UDEVTTSEVENT@@AAU1@PAU1@@@XZ 00429ea0 f i DevTTS.obj
 0001:00028eb0       ?insert@?$list@UDEVTTSEVENT@@V?$__default_alloc_template@$00$0A@@@@@QAE?AU?$_List_iterator@UDEVTTSEVENT@@AAU1@PAU1@@@U2@ABUDEVTTSEVENT@@@Z 00429eb0 f i DevTTS.obj
 0001:00028ee0       ?erase@?$list@UDEVTTSEVENT@@V?$__default_alloc_template@$00$0A@@@@@QAE?AU?$_List_iterator@UDEVTTSEVENT@@AAU1@PAU1@@@U2@@Z 00429ee0 f i DevTTS.obj
 0001:00028f10       ??0?$_List_iterator@UDEVTTSEVENT@@AAU1@PAU1@@@QAE@ABU0@@Z 00429f10 f i DevTTS.obj
 0001:00028f20       ?_M_create_node@?$list@UDEVTTSEVENT@@V?$__default_alloc_template@$00$0A@@@@@IAEPAU?$_List_node@UDEVTTSEVENT@@@@ABUDEVTTSEVENT@@@Z 00429f20 f i DevTTS.obj
 0001:00028ff0       ??1DEVVMDINFO@@QAE@XZ      00429ff0 f   DevVMD.obj
 0001:00029040       ?OnVmdEvent@@YAXPAUIMD@@J@Z 0042a040 f   DevVMD.obj
 0001:000290e0       ?DoVmdEvent@@YACXZ         0042a0e0 f   DevVMD.obj
 0001:000293e0       ?vmdOpen@@YAXXZ            0042a3e0 f   DevVMD.obj
 0001:00029630       ?vmdSetVolume@@YAXXZ       0042a630 f   DevVMD.obj
 0001:00029690       ?vmdGetVolume@@YAXXZ       0042a690 f   DevVMD.obj
 0001:000296e0       ?vmdPlay@@YAXXZ            0042a6e0 f   DevVMD.obj
 0001:00029780       ?vmdClose@@YAXXZ           0042a780 f   DevVMD.obj
 0001:00029870       ?vmdLoadCache@@YAXXZ       0042a870 f   DevVMD.obj
 0001:00029890       ?vmdReleaseCache@@YAXXZ    0042a890 f   DevVMD.obj
 0001:000298b0       ?vmdIsInCache@@YAXXZ       0042a8b0 f   DevVMD.obj
 0001:000298e0       ?vmdReleaseAllCaches@@YAXXZ 0042a8e0 f   DevVMD.obj
 0001:000298f0       ?vmdSetHandler@@YAXXZ      0042a8f0 f   DevVMD.obj
 0001:000299a0       ?CallVMDHandler@@YAXJPAUIMD@@@Z 0042a9a0 f   DevVMD.obj
 0001:000299f0       ?vmdFillLoopCache@@YAXXZ   0042a9f0 f   DevVMD.obj
 0001:00029a70       ?vmdSetFrameRate@@YAXXZ    0042aa70 f   DevVMD.obj
 0001:00029ac0       ?vmdDrawPict@@YAXXZ        0042aac0 f   DevVMD.obj
 0001:00029b90       ?vmdPause@@YAXXZ           0042ab90 f   DevVMD.obj
 0001:00029bd0       ?vmdGetName@@YAXXZ         0042abd0 f   DevVMD.obj
 0001:00029c10       ?vmdStop@@YAXXZ            0042ac10 f   DevVMD.obj
 0001:00029c50       ?vmdGetCurrentPict@@YAXXZ  0042ac50 f   DevVMD.obj
 0001:00029c90       ?vmdGetNbPict@@YAXXZ       0042ac90 f   DevVMD.obj
 0001:00029cd0       ?vmdGetSizeX@@YAXXZ        0042acd0 f   DevVMD.obj
 0001:00029d20       ?vmdGetSizeY@@YAXXZ        0042ad20 f   DevVMD.obj
 0001:00029d70       ?vmdGetX@@YAXXZ            0042ad70 f   DevVMD.obj
 0001:00029db0       ?vmdGetY@@YAXXZ            0042adb0 f   DevVMD.obj
 0001:00029df0       ?vmdGetDepth@@YAXXZ        0042adf0 f   DevVMD.obj
 0001:00029e30       ?vmdHasSound@@YAXXZ        0042ae30 f   DevVMD.obj
 0001:00029e80       ?vmdHasPictures@@YAXXZ     0042ae80 f   DevVMD.obj
 0001:00029ee0       ?vmdGetBmp@@YAXXZ          0042aee0 f   DevVMD.obj
 0001:00029f90       ?vmdSetLoopMode@@YAXXZ     0042af90 f   DevVMD.obj
 0001:00029ff0       ?vmdApplyEffectsBox@@YAXXZ 0042aff0 f   DevVMD.obj
 0001:0002a070       ?vmdRemoveEffectsBox@@YAXXZ 0042b070 f   DevVMD.obj
 0001:0002a0c0       ?vmdGetMouthPos@@YAXXZ     0042b0c0 f   DevVMD.obj
 0001:0002a1c0       ?vmdHasMouthPos@@YAXXZ     0042b1c0 f   DevVMD.obj
 0001:0002a210       ?vmdGetFrameRate@@YAXXZ    0042b210 f   DevVMD.obj
 0001:0002a2a0       ?vmdGetMouthPosTrack@@YAXXZ 0042b2a0 f   DevVMD.obj
 0001:0002a340       ??0?$list@UVMDEVENT@@V?$__default_alloc_template@$00$0A@@@@@QAE@ABV?$__default_alloc_template@$00$0A@@@@Z 0042b340 f i DevVMD.obj
 0001:0002a400       ?begin@?$list@UVMDEVENT@@V?$__default_alloc_template@$00$0A@@@@@QAE?AU?$_List_iterator@UVMDEVENT@@AAU1@PAU1@@@XZ 0042b400 f i DevVMD.obj
 0001:0002a410       ?end@?$list@UVMDEVENT@@V?$__default_alloc_template@$00$0A@@@@@QAE?AU?$_List_iterator@UVMDEVENT@@AAU1@PAU1@@@XZ 0042b410 f i DevVMD.obj
 0001:0002a420       ?erase@?$list@UVMDEVENT@@V?$__default_alloc_template@$00$0A@@@@@QAE?AU?$_List_iterator@UVMDEVENT@@AAU1@PAU1@@@U2@@Z 0042b420 f i DevVMD.obj
 0001:0002a450       ??1?$list@UVMDEVENT@@V?$__default_alloc_template@$00$0A@@@@@QAE@XZ 0042b450 f i DevVMD.obj
 0001:0002a5b0       ??0?$_List_iterator@UVMDEVENT@@AAU1@PAU1@@@QAE@ABU0@@Z 0042b5b0 f i DevVMD.obj
 0001:0002a5c0       ?insert@?$list@UVMDEVENT@@V?$__default_alloc_template@$00$0A@@@@@QAE?AU?$_List_iterator@UVMDEVENT@@AAU1@PAU1@@@U2@ABUVMDEVENT@@@Z 0042b5c0 f i DevVMD.obj
 0001:0002a5f0       ?_M_create_node@?$list@UVMDEVENT@@V?$__default_alloc_template@$00$0A@@@@@IAEPAU?$_List_node@UVMDEVENT@@@@ABUVMDEVENT@@@Z 0042b5f0 f i DevVMD.obj
 0001:0002a6b0       ?zoneFromPoint@@YAXXZ      0042b6b0 f   DevZones.obj
 0001:0002a740       ?zoneCreate@@YAXXZ         0042b740 f   DevZones.obj
 0001:0002a870       ?zoneAddRect@@YAXXZ        0042b870 f   DevZones.obj
 0001:0002a8f0       ?zoneCreateFromBmp@@YAXXZ  0042b8f0 f   DevZones.obj
 0001:0002aa30       ?zoneDelete@@YAXXZ         0042ba30 f   DevZones.obj
 0001:0002abe0       ?zoneSetPos@@YAXXZ         0042bbe0 f   DevZones.obj
 0001:0002ac40       ?zoneSetZOrder@@YAXXZ      0042bc40 f   DevZones.obj
 0001:0002ac90       ?zoneActivate@@YAXXZ       0042bc90 f   DevZones.obj
 0001:0002acd0       ?zoneActivateAll@@YAXXZ    0042bcd0 f   DevZones.obj
 0001:0002acf0       ?zoneUnactivateAll@@YAXXZ  0042bcf0 f   DevZones.obj
 0001:0002ad10       ?zoneUnactivate@@YAXXZ     0042bd10 f   DevZones.obj
 0001:0002ad50       ?zoneSetHandler@@YAXXZ     0042bd50 f   DevZones.obj
 0001:0002ae20       ?zoneSetVisibleRegion@@YAXXZ 0042be20 f   DevZones.obj
 0001:0002aea0       ?zoneSetInCursor@@YAXXZ    0042bea0 f   DevZones.obj
 0001:0002b030       ?zoneSetClicCursor@@YAXXZ  0042c030 f   DevZones.obj
 0001:0002b1c0       ?zoneUseDefaultClicCursor@@YAXXZ 0042c1c0 f   DevZones.obj
 0001:0002b320       ?zoneUseDefaultInCursor@@YAXXZ 0042c320 f   DevZones.obj
 0001:0002b480       ?zoneUnactiveCursors@@YAXXZ 0042c480 f   DevZones.obj
 0001:0002b4c0       ?zoneActiveCursors@@YAXXZ  0042c4c0 f   DevZones.obj
 0001:0002b500       ?curCreateFromBmp@@YAXXZ   0042c500 f   DevZones.obj
 0001:0002b670       ?ActivateCursor@VMDCURSOR@@UAEXXZ 0042c670 f i DevZones.obj
 0001:0002b690       ?ActivateCursor@BMPCURSOR@@UAEXXZ 0042c690 f i DevZones.obj
 0001:0002b6b0       ?curDelete@@YAXXZ          0042c6b0 f   DevZones.obj
 0001:0002b740       ?curSetNormalDefault@@YAXXZ 0042c740 f   DevZones.obj
 0001:0002b8c0       ?curSetInDefault@@YAXXZ    0042c8c0 f   DevZones.obj
 0001:0002ba40       ?curSetClicDefault@@YAXXZ  0042ca40 f   DevZones.obj
 0001:0002bbc0       ?curForce@@YAXXZ           0042cbc0 f   DevZones.obj
 0001:0002bd20       ?curStopForce@@YAXXZ       0042cd20 f   DevZones.obj
 0001:0002be50       ?curSetPos@@YAXXZ          0042ce50 f   DevZones.obj
 0001:0002be80       ?curHide@@YAXXZ            0042ce80 f   DevZones.obj
 0001:0002beb0       ?curShow@@YAXXZ            0042ceb0 f   DevZones.obj
 0001:0002bed0       ?curSetClipping@@YAXXZ     0042ced0 f   DevZones.obj
 0001:0002bf20       ?curRemoveClipping@@YAXXZ  0042cf20 f   DevZones.obj
 0001:0002bf30       ?curSetMouseSpeed@@YAXXZ   0042cf30 f   DevZones.obj
 0001:0002bf70       ?curChangeHotSpot@@YAXXZ   0042cf70 f   DevZones.obj
 0001:0002c150       ?OnMouseEvent@@YAXJJJ@Z    0042d150 f   DevZones.obj
 0001:0002c1d0       ?mousemoveSetHandler@@YAXXZ 0042d1d0 f   DevZones.obj
 0001:0002c2e0       ?mousemoveRemoveHandler@@YAXXZ 0042d2e0 f   DevZones.obj
 0001:0002c300       ?OnMouseMove@@YAXJJ@Z      0042d300 f   DevZones.obj
 0001:0002c370       ?mouseSetRightButtonMode@@YAXXZ 0042d370 f   DevZones.obj
 0001:0002c3b0       _NotifyUpdateDev7Cursor    0042d3b0 f   DevZones.obj
 0001:0002c3c0       _UpdateDev7CursorNow       0042d3c0 f   DevZones.obj
 0001:0002c550       ?DoMouseEvents@@YACXZ      0042d550 f   DevZones.obj
 0001:0002cf50       ?DoMouseMove@@YACXZ        0042df50 f   DevZones.obj
 0001:0002d310       ?mouseFlushEvents@@YAXXZ   0042e310 f   DevZones.obj
 0001:0002d350       ??0?$list@UDEVMOUSEEVENT@@V?$__default_alloc_template@$00$0A@@@@@QAE@ABV?$__default_alloc_template@$00$0A@@@@Z 0042e350 f i DevZones.obj
 0001:0002d410       ??1?$list@UDEVMOUSEEVENT@@V?$__default_alloc_template@$00$0A@@@@@QAE@XZ 0042e410 f i DevZones.obj
 0001:0002d570       ?begin@?$list@UDEVMOUSEEVENT@@V?$__default_alloc_template@$00$0A@@@@@QAE?AU?$_List_iterator@UDEVMOUSEEVENT@@AAU1@PAU1@@@XZ 0042e570 f i DevZones.obj
 0001:0002d580       ?end@?$list@UDEVMOUSEEVENT@@V?$__default_alloc_template@$00$0A@@@@@QAE?AU?$_List_iterator@UDEVMOUSEEVENT@@AAU1@PAU1@@@XZ 0042e580 f i DevZones.obj
 0001:0002d590       ?insert@?$list@UDEVMOUSEEVENT@@V?$__default_alloc_template@$00$0A@@@@@QAE?AU?$_List_iterator@UDEVMOUSEEVENT@@AAU1@PAU1@@@U2@ABUDEVMOUSEEVENT@@@Z 0042e590 f i DevZones.obj
 0001:0002d5c0       ?erase@?$list@UDEVMOUSEEVENT@@V?$__default_alloc_template@$00$0A@@@@@QAE?AU?$_List_iterator@UDEVMOUSEEVENT@@AAU1@PAU1@@@U2@@Z 0042e5c0 f i DevZones.obj
 0001:0002d5f0       ??0?$_List_iterator@UDEVMOUSEEVENT@@AAU1@PAU1@@@QAE@ABU0@@Z 0042e5f0 f i DevZones.obj
 0001:0002d600       ?_M_create_node@?$list@UDEVMOUSEEVENT@@V?$__default_alloc_template@$00$0A@@@@@IAEPAU?$_List_node@UDEVMOUSEEVENT@@@@ABUDEVMOUSEEVENT@@@Z 0042e600 f i DevZones.obj
 0001:0002d6d0       ?DialogProc@@YGHPAUHWND__@@IIJ@Z 0042e6d0 f   ErrorWindowPC.obj
 0001:0002d7e0       ?ErrorWindow@@YAXKPAPBD@Z  0042e7e0 f   ErrorWindowPC.obj
 0001:0002d850       ?ErrorToDebugger@@YAXPBD000@Z 0042e850 f   ErrorWindowPC.obj
 0001:0002dd30       ?ExedbOpenBase@@YAPAVLibDataBase@@PBDJ_N@Z 0042ed30 f   ExeDBase.obj
 0001:0002dda0       ?ExedbCloseBase@@YAXPAVLibDataBase@@@Z 0042eda0 f   ExeDBase.obj
 0001:0002ddc0       ?ExedbOpenTable@@YAPAVLibDataTable@@PAVLibDataBase@@PBD@Z 0042edc0 f   ExeDBase.obj
 0001:0002de30       ?ExedbCloseTable@@YAXPAVLibDataTable@@@Z 0042ee30 f   ExeDBase.obj
 0001:0002de50       ?ExedbCountRecord@@YAJPAVLibDataTable@@@Z 0042ee50 f   ExeDBase.obj
 0001:0002de60       ?ExedbFirstRecord@@YA_NPAVLibDataTable@@@Z 0042ee60 f   ExeDBase.obj
 0001:0002de80       ?ExedbNextRecord@@YA_NPAVLibDataTable@@@Z 0042ee80 f   ExeDBase.obj
 0001:0002dea0       ?ExedbSelectKey@@YA_NPAVLibDataTable@@PBD@Z 0042eea0 f   ExeDBase.obj
 0001:0002ded0       ?ExedbSeekRecord@@YA_NPAVLibDataTable@@PBD@Z 0042eed0 f   ExeDBase.obj
 0001:0002df00       ?ExedbSeekNextRecord@@YA_NPAVLibDataTable@@@Z 0042ef00 f   ExeDBase.obj
 0001:0002df20       ?DoEditManage@@YAXXZ       0042ef20 f   ExeEditor.obj
 0001:0002df80       ??0DevEditor@@QAE@PAUmdobitmap@@@Z 0042ef80 f   ExeEditor.obj
 0001:0002e0d0       ??_GDevEditor@@UAEPAXI@Z   0042f0d0 f i ExeEditor.obj
 0001:0002e0d0       ??_EDevEditor@@UAEPAXI@Z   0042f0d0 f i ExeEditor.obj
 0001:0002e120       ??1DevEditor@@UAE@XZ       0042f120 f   ExeEditor.obj
 0001:0002e160       ?GetPtrPatEdit@DevEditor@@QAEPAVedCPatEdit@@XZ 0042f160 f   ExeEditor.obj
 0001:0002e170       ?GetPtrScreen@DevEditor@@QAEPAVedCScreen@@XZ 0042f170 f   ExeEditor.obj
 0001:0002e180       ?IsModeSelection@DevEditor@@QAE_NXZ 0042f180 f   ExeEditor.obj
 0001:0002e190       ?SetSelection@DevEditor@@QAEX_N@Z 0042f190 f   ExeEditor.obj
 0001:0002e1a0       ?GetDrawCursor@DevEditor@@QAE_NXZ 0042f1a0 f   ExeEditor.obj
 0001:0002e1b0       ?IsTimeCursor@DevEditor@@QAE_NXZ 0042f1b0 f   ExeEditor.obj
 0001:0002e1d0       ?SetTimeCursor@DevEditor@@QAEXXZ 0042f1d0 f   ExeEditor.obj
 0001:0002e1e0       ?GetBackColor@DevEditor@@QAEKXZ 0042f1e0 f   ExeEditor.obj
 0001:0002e1f0       ?SetBackColor@DevEditor@@QAEXK@Z 0042f1f0 f   ExeEditor.obj
 0001:0002e200       ?SetCursorColor@DevEditor@@QAEXK@Z 0042f200 f   ExeEditor.obj
 0001:0002e210       ?Draw@DevEditor@@QAEXXZ    0042f210 f   ExeEditor.obj
 0001:0002e280       ?GetCursorColor@DevEditor@@QAEKXZ 0042f280 f   ExeEditor.obj
 0001:0002e290       ?GetStrColor@DevEditor@@QAEPADJ@Z 0042f290 f   ExeEditor.obj
 0001:0002e2f0       ??0Dev7Sound@@QAE@PAVtrkSoundBuffer@@@Z 0042f2f0 f   ExeSound.obj
 0001:0002e320       ??_GDev7Sound@@UAEPAXI@Z   0042f320 f i ExeSound.obj
 0001:0002e320       ??_EDev7Sound@@UAEPAXI@Z   0042f320 f i ExeSound.obj
 0001:0002e340       ??1Dev7Sound@@UAE@XZ       0042f340 f   ExeSound.obj
 0001:0002e350       ?SetEffectsBox@Dev7Sound@@QAEXPAVDev7EffectsBox@@@Z 0042f350 f   ExeSound.obj
 0001:0002e360       ?GetEffectsBox@Dev7Sound@@QBEPAVDev7EffectsBox@@XZ 0042f360 f   ExeSound.obj
 0001:0002e370       ?SetNoEffectsBox@Dev7Sound@@QAEXXZ 0042f370 f   ExeSound.obj
 0001:0002e380       ?GetPlayingTrack@Dev7Sound@@QBEKXZ 0042f380 f   ExeSound.obj
 0001:0002e390       ?IsPlaying@Dev7Sound@@QBEKXZ 0042f390 f   ExeSound.obj
 0001:0002e3a0       ?IsPaused@Dev7Sound@@QBEKXZ 0042f3a0 f   ExeSound.obj
 0001:0002e3b0       ?IsStopped@Dev7Sound@@QBEKXZ 0042f3b0 f   ExeSound.obj
 0001:0002e3c0       ?GetSoundBuffer@Dev7Sound@@QBEPBVtrkSoundBuffer@@XZ 0042f3c0 f   ExeSound.obj
 0001:0002e3d0       ?SetIsPlaying@Dev7Sound@@QAEXK@Z 0042f3d0 f   ExeSound.obj
 0001:0002e3f0       ?SetIsPaused@Dev7Sound@@QAEXXZ 0042f3f0 f   ExeSound.obj
 0001:0002e400       ?SetIsStopped@Dev7Sound@@QAEXXZ 0042f400 f   ExeSound.obj
 0001:0002e410       ?SoundStopNotify@Dev7Sound@@UAEXXZ 0042f410 f   ExeSound.obj
 0001:0002e420       ?AddModPlayerLink@Dev7Sound@@QAEXXZ 0042f420 f   ExeSound.obj
 0001:0002e430       ?SubModPlayerLink@Dev7Sound@@QAEXXZ 0042f430 f   ExeSound.obj
 0001:0002e440       ?GetNbPlayerLinks@Dev7Sound@@QBEKXZ 0042f440 f   ExeSound.obj
 0001:0002e450       ??0Dev7SoundManager@@QAE@XZ 0042f450 f   ExeSound.obj
 0001:0002e550       ??1Dev7SoundManager@@QAE@XZ 0042f550 f   ExeSound.obj
 0001:0002e5e0       ?CreateIdSound@Dev7SoundManager@@QAEPAVDev7Sound@@ABV?$basic_string@DU?$char_traits@D@@V?$__default_alloc_template@$00$0A@@@@@@Z 0042f5e0 f   ExeSound.obj
 0001:0002e6e0       ?DestroyIdSound@Dev7SoundManager@@QAEKPAVDev7Sound@@@Z 0042f6e0 f   ExeSound.obj
 0001:0002e750       ?DetachDev7EffectsBox@Dev7SoundManager@@QAEXPBVDev7EffectsBox@@@Z 0042f750 f   ExeSound.obj
 0001:0002e780       ??0Dev7ModTrigger@@QAE@KKPAVDev7Sound@@@Z 0042f780 f   ExeSound.obj
 0001:0002e7a0       ??1Dev7ModTrigger@@QAE@XZ  0042f7a0 f   ExeSound.obj
 0001:0002e7c0       ?GetTrack@Dev7ModTrigger@@QBEKXZ 0042f7c0 f   ExeSound.obj
 0001:0002e7d0       ?GetEvent@Dev7ModTrigger@@QBEKXZ 0042f7d0 f   ExeSound.obj
 0001:0002e7e0       ??0Dev7ModPlayer@@QAE@K@Z  0042f7e0 f   ExeSound.obj
 0001:0002e950       ??1Dev7ModPlayer@@QAE@XZ   0042f950 f   ExeSound.obj
 0001:0002ea00       ?ApplyVolumeToMuzikotron@Dev7ModPlayer@@QAEXXZ 0042fa00 f   ExeSound.obj
 0001:0002ea30       ?ApplyEffectsBox@Dev7ModPlayer@@QAEKKPAVDev7EffectsBox@@@Z 0042fa30 f   ExeSound.obj
 0001:0002ea60       ?RemoveEffectsBox@Dev7ModPlayer@@QAEKK@Z 0042fa60 f   ExeSound.obj
 0001:0002ea90       ?InvalidateEffectsBox@Dev7ModPlayer@@QAEXPAVDev7EffectsBox@@@Z 0042fa90 f   ExeSound.obj
 0001:0002eac0       ?GetModPlayer@Dev7ModPlayer@@QBEPAVzikMuzikotron@@XZ 0042fac0 f   ExeSound.obj
 0001:0002ead0       ?AttachTracks@Dev7ModPlayer@@QAEXXZ 0042fad0 f   ExeSound.obj
 0001:0002eb20       ?AddSound@Dev7ModPlayer@@QAEPAVDev7ModTrigger@@KPAVDev7Sound@@K@Z 0042fb20 f   ExeSound.obj
 0001:0002ebc0       ?RemoveSound@Dev7ModPlayer@@QAEKPAVDev7ModTrigger@@@Z 0042fbc0 f   ExeSound.obj
 0001:0002ec50       ??0Dev7ModPlayerManager@@QAE@XZ 0042fc50 f   ExeSound.obj
 0001:0002ed50       ??1Dev7ModPlayerManager@@QAE@XZ 0042fd50 f   ExeSound.obj
 0001:0002edd0       ?CreateModPlayer@Dev7ModPlayerManager@@QAEPAVDev7ModPlayer@@K@Z 0042fdd0 f   ExeSound.obj
 0001:0002ee80       ?DestroyModPlayer@Dev7ModPlayerManager@@QAEKPAVDev7ModPlayer@@@Z 0042fe80 f   ExeSound.obj
 0001:0002eef0       ?InvalidateEffectsBox@Dev7ModPlayerManager@@QAEXPAVDev7EffectsBox@@@Z 0042fef0 f   ExeSound.obj
 0001:0002ef40       ?RefreshModPlayers@Dev7ModPlayerManager@@QAEXXZ 0042ff40 f   ExeSound.obj
 0001:0002ef60       ??0zikMDOMemorySound@@QAE@ABV?$basic_string@DU?$char_traits@D@@V?$__default_alloc_template@$00$0A@@@@@@Z 0042ff60 f   ExeSound.obj
 0001:0002ef80       ??_EzikMDOMemorySound@@UAEPAXI@Z 0042ff80 f i ExeSound.obj
 0001:0002ef80       ??_GzikMDOMemorySound@@UAEPAXI@Z 0042ff80 f i ExeSound.obj
 0001:0002efa0       ??1zikMDOMemorySound@@UAE@XZ 0042ffa0 f   ExeSound.obj
 0001:0002efd0       ?Load@zikMDOMemorySound@@UAE_NXZ 0042ffd0 f   ExeSound.obj
 0001:0002f0a0       ??0zikMDOMemorySoundManager@@QAE@XZ 004300a0 f   ExeSound.obj
 0001:0002f0c0       ??_GzikMDOMemorySoundManager@@UAEPAXI@Z 004300c0 f i ExeSound.obj
 0001:0002f0c0       ??_EzikMDOMemorySoundManager@@UAEPAXI@Z 004300c0 f i ExeSound.obj
 0001:0002f0e0       ??1zikMDOMemorySoundManager@@UAE@XZ 004300e0 f   ExeSound.obj
 0001:0002f0f0       ?CreateMemorySound@zikMDOMemorySoundManager@@UAEPAVzikMemorySound@@ABV?$basic_string@DU?$char_traits@D@@V?$__default_alloc_template@$00$0A@@@@@@Z 004300f0 f   ExeSound.obj
 0001:0002f170       ??0Dev7EffectsBox@@QAE@XZ  00430170 f   ExeSound.obj
 0001:0002f190       ??1Dev7EffectsBox@@QAE@XZ  00430190 f   ExeSound.obj
 0001:0002f1a0       ?GetNbLinkedVmd@Dev7EffectsBox@@QBEKXZ 004301a0 f   ExeSound.obj
 0001:0002f1b0       ?GetNoTrack@Dev7EffectsBox@@QBEKXZ 004301b0 f   ExeSound.obj
 0001:0002f1c0       ?GetNbEffects@Dev7EffectsBox@@QBEKXZ 004301c0 f   ExeSound.obj
 0001:0002f1d0       ?HasPitchCorrection@Dev7EffectsBox@@QBEKXZ 004301d0 f   ExeSound.obj
 0001:0002f1e0       ?HasFixedTrack@Dev7EffectsBox@@QBEKXZ 004301e0 f   ExeSound.obj
 0001:0002f200       ?SetHasPitchCorrection@Dev7EffectsBox@@QAEXK@Z 00430200 f   ExeSound.obj
 0001:0002f210       ?SetNoTrack@Dev7EffectsBox@@QAEXK@Z 00430210 f   ExeSound.obj
 0001:0002f220       ?SetNbEffects@Dev7EffectsBox@@QAEXK@Z 00430220 f   ExeSound.obj
 0001:0002f230       ?AddVmdLink@Dev7EffectsBox@@QAEXXZ 00430230 f   ExeSound.obj
 0001:0002f240       ?SubVmdLink@Dev7EffectsBox@@QAEXXZ 00430240 f   ExeSound.obj
 0001:0002f250       ?insert@?$list@PAVDev7Sound@@V?$__default_alloc_template@$00$0A@@@@@QAE?AU?$_List_iterator@PAVDev7Sound@@AAPAV1@PAPAV1@@@U2@ABQAVDev7Sound@@@Z 00430250 f i ExeSound.obj
 0001:0002f280       ?erase@?$list@PAVDev7Sound@@V?$__default_alloc_template@$00$0A@@@@@QAE?AU?$_List_iterator@PAVDev7Sound@@AAPAV1@PAPAV1@@@U2@@Z 00430280 f i ExeSound.obj
 0001:0002f2b0       ??1?$list@PAVDev7Sound@@V?$__default_alloc_template@$00$0A@@@@@QAE@XZ 004302b0 f i ExeSound.obj
 0001:0002f410       ??0?$_List_iterator@PAVDev7Sound@@AAPAV1@PAPAV1@@@QAE@ABU0@@Z 00430410 f i ExeSound.obj
 0001:0002f420       ?insert@?$list@PAVDev7ModTrigger@@V?$__default_alloc_template@$00$0A@@@@@QAE?AU?$_List_iterator@PAVDev7ModTrigger@@AAPAV1@PAPAV1@@@U2@ABQAVDev7ModTrigger@@@Z 00430420 f i ExeSound.obj
 0001:0002f450       ?erase@?$list@PAVDev7ModTrigger@@V?$__default_alloc_template@$00$0A@@@@@QAE?AU?$_List_iterator@PAVDev7ModTrigger@@AAPAV1@PAPAV1@@@U2@@Z 00430450 f i ExeSound.obj
 0001:0002f480       ??1?$list@PAVDev7ModTrigger@@V?$__default_alloc_template@$00$0A@@@@@QAE@XZ 00430480 f i ExeSound.obj
 0001:0002f5e0       ??0?$_List_iterator@PAVDev7ModTrigger@@AAPAV1@PAPAV1@@@QAE@ABU0@@Z 004305e0 f i ExeSound.obj
 0001:0002f5f0       ?insert@?$list@PAVDev7ModPlayer@@V?$__default_alloc_template@$00$0A@@@@@QAE?AU?$_List_iterator@PAVDev7ModPlayer@@AAPAV1@PAPAV1@@@U2@ABQAVDev7ModPlayer@@@Z 004305f0 f i ExeSound.obj
 0001:0002f620       ?erase@?$list@PAVDev7ModPlayer@@V?$__default_alloc_template@$00$0A@@@@@QAE?AU?$_List_iterator@PAVDev7ModPlayer@@AAPAV1@PAPAV1@@@U2@@Z 00430620 f i ExeSound.obj
 0001:0002f650       ??1?$list@PAVDev7ModPlayer@@V?$__default_alloc_template@$00$0A@@@@@QAE@XZ 00430650 f i ExeSound.obj
 0001:0002f7b0       ??0?$_List_iterator@PAVDev7ModPlayer@@AAPAV1@PAPAV1@@@QAE@ABU0@@Z 004307b0 f i ExeSound.obj
 0001:0002f7c0       ?_M_create_node@?$list@PAVDev7Sound@@V?$__default_alloc_template@$00$0A@@@@@IAEPAU?$_List_node@PAVDev7Sound@@@@ABQAVDev7Sound@@@Z 004307c0 f i ExeSound.obj
 0001:0002f880       ?_M_create_node@?$list@PAVDev7ModTrigger@@V?$__default_alloc_template@$00$0A@@@@@IAEPAU?$_List_node@PAVDev7ModTrigger@@@@ABQAVDev7ModTrigger@@@Z 00430880 f i ExeSound.obj
 0001:0002f940       ?_M_create_node@?$list@PAVDev7ModPlayer@@V?$__default_alloc_template@$00$0A@@@@@IAEPAU?$_List_node@PAVDev7ModPlayer@@@@ABQAVDev7ModPlayer@@@Z 00430940 f i ExeSound.obj
 0001:0002fa00       ?ExeStrNbPos@@YAJPBD0K@Z   00430a00 f   ExeStr.obj
 0001:0002fa80       ?ExeStrPos@@YAJPBD0K@Z     00430a80 f   ExeStr.obj
 0001:0002fae0       ?ExeStrNbElts@@YAJPBD0@Z   00430ae0 f   ExeStr.obj
 0001:0002fb70       ?ExeStrElt@@YAPADPBD0J@Z   00430b70 f   ExeStr.obj
 0001:0002fcc0       ??0DStream@@QAE@XZ         00430cc0 f   ExeStream.obj
 0001:0002fce0       ??_EDStream@@UAEPAXI@Z     00430ce0 f i ExeStream.obj
 0001:0002fce0       ??_GDStream@@UAEPAXI@Z     00430ce0 f i ExeStream.obj
 0001:0002fd10       ??1DStream@@UAE@XZ         00430d10 f   ExeStream.obj
 0001:0002fd30       ?GetSize@DStream@@QAEJXZ   00430d30 f   ExeStream.obj
 0001:0002fd40       ?GetData@DStream@@QAEPADXZ 00430d40 f   ExeStream.obj
 0001:0002fd50       ?GetPosition@DStream@@QAEJXZ 00430d50 f   ExeStream.obj
 0001:0002fd60       ?SetPosition@DStream@@QAEXJ@Z 00430d60 f   ExeStream.obj
 0001:0002fd70       ?AddPosition@DStream@@QAEXJ@Z 00430d70 f   ExeStream.obj
 0001:0002fd80       ?Create@DStream@@QAEXJJPAX@Z 00430d80 f   ExeStream.obj
 0001:0002fde0       ?Duplicate@DStream@@QAEPAV1@XZ 00430de0 f   ExeStream.obj
 0001:0002feb0       ??1?$map@PAVDIdent@@UBmpName@@U?$less@PAVDIdent@@@@V?$__default_alloc_template@$00$0A@@@@@QAE@XZ 00430eb0 f i ResourceWindowPC.obj
 0001:00030070       ??1?$map@PAVDIdent@@UTimerStatusName@@U?$less@PAVDIdent@@@@V?$__default_alloc_template@$00$0A@@@@@QAE@XZ 00431070 f i ResourceWindowPC.obj
 0001:00030130       ??1?$map@JUFileName@@U?$less@J@@V?$__default_alloc_template@$00$0A@@@@@QAE@XZ 00431130 f i ResourceWindowPC.obj
 0001:000301c0       ?InitListViewFileMon@@YA_NXZ 004311c0 f   ResourceWindowPC.obj
 0001:000302e0       ?FileMonWndProc@@YGJPAUHWND__@@IIJ@Z 004312e0 f   ResourceWindowPC.obj
 0001:00030f00       ?CreateFileMonWindow@@YAXHHHHJ@Z 00431f00 f   ResourceWindowPC.obj
 0001:00030fb0       ?RefreshScreenRefreshListView@@YAXXZ 00431fb0 f   ResourceWindowPC.obj
 0001:00031020       ?ScreenRefreshWndProc@@YGJPAUHWND__@@IIJ@Z 00432020 f   ResourceWindowPC.obj
 0001:00031460       ?FileOpenedWndProc@@YGJPAUHWND__@@IIJ@Z 00432460 f   ResourceWindowPC.obj
 0001:000317c0       ?BmpOpened@ResourceWindow@@SAXHPAVDIdent@@@Z 004327c0 f   ResourceWindowPC.obj
 0001:00031cd0       ?BmpViewWndProc@@YGJPAUHWND__@@IIJ@Z 00432cd0 f   ResourceWindowPC.obj
 0001:00032110       ?CreateBmpView@@YAPAUHWND__@@PADPAVDIdent@@PAU1@@Z 00433110 f   ResourceWindowPC.obj
 0001:000321d0       ?BmpOpenedCustomSort@@YGJJJJ@Z 004331d0 f   ResourceWindowPC.obj
 0001:00032320       ?BmpOpenedWndProc@@YGJPAUHWND__@@IIJ@Z 00433320 f   ResourceWindowPC.obj
 0001:00033350       ?TimerStatus@ResourceWindow@@SAXHJPAVDIdent@@@Z 00434350 f   ResourceWindowPC.obj
 0001:00033600       ?TimerStatusWndProc@@YGJPAUHWND__@@IIJ@Z 00434600 f   ResourceWindowPC.obj
 0001:000339a0       ?RefreshListView@@YAXH@Z   004349a0 f   ResourceWindowPC.obj
 0001:00033f50       ?InitResourceArray@@YAXXZ  00434f50 f   ResourceWindowPC.obj
 0001:00033fe0       ?InitListViewResource@@YA_NXZ 00434fe0 f   ResourceWindowPC.obj
 0001:00034390       ?ResourceWndProc@@YGJPAUHWND__@@IIJ@Z 00435390 f   ResourceWindowPC.obj
 0001:000349c0       ?CreateResourceWindow@@YAXHHHHJ@Z 004359c0 f   ResourceWindowPC.obj
 0001:00034a70       ?InitListViewEventMsg@@YA_NXZ 00435a70 f   ResourceWindowPC.obj
 0001:00034b20       ?EventMsgWndProc@@YGJPAUHWND__@@IIJ@Z 00435b20 f   ResourceWindowPC.obj
 0001:00035680       ?CreateEventMsgWindow@@YAXHHHHJ@Z 00436680 f   ResourceWindowPC.obj
 0001:00035730       ??0ResourceWindow@@QAE@HHHHJ@Z 00436730 f   ResourceWindowPC.obj
 0001:00035d00       ??_GResourceWindow@@UAEPAXI@Z 00436d00 f i ResourceWindowPC.obj
 0001:00035d00       ??_EResourceWindow@@UAEPAXI@Z 00436d00 f i ResourceWindowPC.obj
 0001:00035d20       ??1ResourceWindow@@UAE@XZ  00436d20 f   ResourceWindowPC.obj
 0001:00035d30       ?ScanWindow@ResourceWindow@@SAXXZ 00436d30 f   ResourceWindowPC.obj
 0001:00036010       ?ResourceCreated@ResourceWindow@@SAXHHH@Z 00437010 f   ResourceWindowPC.obj
 0001:000360b0       ?ResourceReleased@ResourceWindow@@SAXHHH@Z 004370b0 f   ResourceWindowPC.obj
 0001:00036120       ?MSGSent@ResourceWindow@@SAXHPAD@Z 00437120 f   ResourceWindowPC.obj
 0001:000361d0       ?RegisterWnd@ResourceWindow@@SAXXZ 004371d0 f   ResourceWindowPC.obj
 0001:000363a0       ?_M_increment@_Rb_tree_base_iterator@@QAEXXZ 004373a0 f i ResourceWindowPC.obj
 0001:000363f0       ??0?$map@PAVDIdent@@UBmpName@@U?$less@PAVDIdent@@@@V?$__default_alloc_template@$00$0A@@@@@QAE@XZ 004373f0 f i ResourceWindowPC.obj
 0001:000364c0       ?erase@?$map@PAVDIdent@@UBmpName@@U?$less@PAVDIdent@@@@V?$__default_alloc_template@$00$0A@@@@@QAEXU?$_Rb_tree_iterator@U?$pair@QAVDIdent@@UBmpName@@@@AAU1@PAU1@@@@Z 004374c0 f i ResourceWindowPC.obj
 0001:000364e0       ??0?$map@PAVDIdent@@UTimerStatusName@@U?$less@PAVDIdent@@@@V?$__default_alloc_template@$00$0A@@@@@QAE@XZ 004374e0 f i ResourceWindowPC.obj
 0001:00036540       ?end@?$map@PAVDIdent@@UTimerStatusName@@U?$less@PAVDIdent@@@@V?$__default_alloc_template@$00$0A@@@@@QAE?AU?$_Rb_tree_iterator@U?$pair@QAVDIdent@@UTimerStatusName@@@@AAU1@PAU1@@@XZ 00437540 f i ResourceWindowPC.obj
 0001:00036550       ?erase@?$map@PAVDIdent@@UTimerStatusName@@U?$less@PAVDIdent@@@@V?$__default_alloc_template@$00$0A@@@@@QAEXU?$_Rb_tree_iterator@U?$pair@QAVDIdent@@UTimerStatusName@@@@AAU1@PAU1@@@@Z 00437550 f i ResourceWindowPC.obj
 0001:00036570       ??0?$_Rb_tree_iterator@U?$pair@QAVDIdent@@UTimerStatusName@@@@AAU1@PAU1@@@QAE@ABU0@@Z 00437570 f i ResourceWindowPC.obj
 0001:00036580       ??0?$map@JUFileName@@U?$less@J@@V?$__default_alloc_template@$00$0A@@@@@QAE@XZ 00437580 f i ResourceWindowPC.obj
 0001:000365e0       ?erase@?$map@JUFileName@@U?$less@J@@V?$__default_alloc_template@$00$0A@@@@@QAEXU?$_Rb_tree_iterator@U?$pair@$$CBJUFileName@@@@AAU1@PAU1@@@@Z 004375e0 f i ResourceWindowPC.obj
 0001:00036600       ?erase@?$map@PAVDIdent@@UBmpViewWnd@@U?$less@PAVDIdent@@@@V?$__default_alloc_template@$00$0A@@@@@QAEXU?$_Rb_tree_iterator@U?$pair@QAVDIdent@@UBmpViewWnd@@@@AAU1@PAU1@@@@Z 00437600 f i ResourceWindowPC.obj
 0001:00036620       ??E?$_Rb_tree_iterator@U?$pair@QAVDIdent@@UBmpViewWnd@@@@AAU1@PAU1@@@QAE?AU0@H@Z 00437620 f i ResourceWindowPC.obj
 0001:00036680       ??1?$_Rb_tree_base@U?$pair@QAVDIdent@@UBmpName@@@@V?$__default_alloc_template@$00$0A@@@@@QAE@XZ 00437680 f i ResourceWindowPC.obj
 0001:00036690       ?insert@?$map@PAVDIdent@@UTimerStatusName@@U?$less@PAVDIdent@@@@V?$__default_alloc_template@$00$0A@@@@@QAE?AU?$_Rb_tree_iterator@U?$pair@QAVDIdent@@UTimerStatusName@@@@AAU1@PAU1@@@U2@ABU?$pair@QAVDIdent@@UTimerStatusName@@@@@Z 00437690 f i ResourceWindowPC.obj
 0001:000366c0       ??1?$_Rb_tree_base@U?$pair@QAVDIdent@@UTimerStatusName@@@@V?$__default_alloc_template@$00$0A@@@@@QAE@XZ 004376c0 f i ResourceWindowPC.obj
 0001:000366e0       ??1?$_Rb_tree_base@U?$pair@$$CBJUFileName@@@@V?$__default_alloc_template@$00$0A@@@@@QAE@XZ 004376e0 f i ResourceWindowPC.obj
 0001:00036700       ??0?$_Rb_tree@PAVDIdent@@U?$pair@QAVDIdent@@UBmpViewWnd@@@@U?$_Select1st@U?$pair@QAVDIdent@@UBmpViewWnd@@@@@@U?$less@PAVDIdent@@@@V?$__default_alloc_template@$00$0A@@@@@QAE@ABU?$less@PAVDIdent@@@@ABV?$__default_alloc_template@$00$0A@@@@Z 00437700 f i ResourceWindowPC.obj
 0001:000367d0       ??1?$_Rb_tree_base@U?$pair@QAVDIdent@@UBmpViewWnd@@@@V?$__default_alloc_template@$00$0A@@@@@QAE@XZ 004377d0 f i ResourceWindowPC.obj
 0001:000367e0       ?find@?$_Rb_tree@PBDU?$pair@QBDUInfo@@@@U?$_Select1st@U?$pair@QBDUInfo@@@@@@Umystrcmp@@V?$__default_alloc_template@$00$0A@@@@@QAE?AU?$_Rb_tree_iterator@U?$pair@QBDUInfo@@@@AAU1@PAU1@@@ABQBD@Z 004377e0 f i ResourceWindowPC.obj
 0001:00036870       ?_M_erase@?$_Rb_tree@PAVDIdent@@U?$pair@QAVDIdent@@UBmpName@@@@U?$_Select1st@U?$pair@QAVDIdent@@UBmpName@@@@@@U?$less@PAVDIdent@@@@V?$__default_alloc_template@$00$0A@@@@@AAEXPAU?$_Rb_tree_node@U?$pair@QAVDIdent@@UBmpName@@@@@@@Z 00437870 f i ResourceWindowPC.obj
 0001:000368b0       ?insert_unique@?$_Rb_tree@PAVDIdent@@U?$pair@QAVDIdent@@UBmpName@@@@U?$_Select1st@U?$pair@QAVDIdent@@UBmpName@@@@@@U?$less@PAVDIdent@@@@V?$__default_alloc_template@$00$0A@@@@@QAE?AU?$pair@U?$_Rb_tree_iterator@U?$pair@QAVDIdent@@UBmpName@@@@AAU1@PAU1@@@_N@@ABU?$pair@QAVDIdent@@UBmpName@@@@@Z 004378b0 f i ResourceWindowPC.obj
 0001:00036a20       ?erase@?$_Rb_tree@PAVDIdent@@U?$pair@QAVDIdent@@UBmpName@@@@U?$_Select1st@U?$pair@QAVDIdent@@UBmpName@@@@@@U?$less@PAVDIdent@@@@V?$__default_alloc_template@$00$0A@@@@@QAEXU?$_Rb_tree_iterator@U?$pair@QAVDIdent@@UBmpName@@@@AAU1@PAU1@@@@Z 00437a20 f i ResourceWindowPC.obj
 0001:00036a50       ?find@?$_Rb_tree@PAVDIdent@@U?$pair@QAVDIdent@@UBmpName@@@@U?$_Select1st@U?$pair@QAVDIdent@@UBmpName@@@@@@U?$less@PAVDIdent@@@@V?$__default_alloc_template@$00$0A@@@@@QAE?AU?$_Rb_tree_iterator@U?$pair@QAVDIdent@@UBmpName@@@@AAU1@PAU1@@@ABQAVDIdent@@@Z 00437a50 f i ResourceWindowPC.obj
 0001:00036ab0       ?_M_erase@?$_Rb_tree@PAVDIdent@@U?$pair@QAVDIdent@@UTimerStatusName@@@@U?$_Select1st@U?$pair@QAVDIdent@@UTimerStatusName@@@@@@U?$less@PAVDIdent@@@@V?$__default_alloc_template@$00$0A@@@@@AAEXPAU?$_Rb_tree_node@U?$pair@QAVDIdent@@UTimerStatusName@@@@@@@Z 00437ab0 f i ResourceWindowPC.obj
 0001:00036af0       ?insert_unique@?$_Rb_tree@PAVDIdent@@U?$pair@QAVDIdent@@UTimerStatusName@@@@U?$_Select1st@U?$pair@QAVDIdent@@UTimerStatusName@@@@@@U?$less@PAVDIdent@@@@V?$__default_alloc_template@$00$0A@@@@@QAE?AU?$_Rb_tree_iterator@U?$pair@QAVDIdent@@UTimerStatusName@@@@AAU1@PAU1@@@U2@ABU?$pair@QAVDIdent@@UTimerStatusName@@@@@Z 00437af0 f i ResourceWindowPC.obj
 0001:00036db0       ??0?$pair@U?$_Rb_tree_iterator@U?$pair@QAVDIdent@@UTimerStatusName@@@@AAU1@PAU1@@@_N@@QAE@ABU0@@Z 00437db0 f i ResourceWindowPC.obj
 0001:00036dd0       ?begin@?$_Rb_tree@PAVDIdent@@U?$pair@QAVDIdent@@UTimerStatusName@@@@U?$_Select1st@U?$pair@QAVDIdent@@UTimerStatusName@@@@@@U?$less@PAVDIdent@@@@V?$__default_alloc_template@$00$0A@@@@@QAE?AU?$_Rb_tree_iterator@U?$pair@QAVDIdent@@UTimerStatusName@@@@AAU1@PAU1@@@XZ 00437dd0 f i ResourceWindowPC.obj
 0001:00036de0       ?insert_unique@?$_Rb_tree@PAVDIdent@@U?$pair@QAVDIdent@@UTimerStatusName@@@@U?$_Select1st@U?$pair@QAVDIdent@@UTimerStatusName@@@@@@U?$less@PAVDIdent@@@@V?$__default_alloc_template@$00$0A@@@@@QAE?AU?$pair@U?$_Rb_tree_iterator@U?$pair@QAVDIdent@@UTimerStatusName@@@@AAU1@PAU1@@@_N@@ABU?$pair@QAVDIdent@@UTimerStatusName@@@@@Z 00437de0 f i ResourceWindowPC.obj
 0001:00036f50       ?erase@?$_Rb_tree@PAVDIdent@@U?$pair@QAVDIdent@@UTimerStatusName@@@@U?$_Select1st@U?$pair@QAVDIdent@@UTimerStatusName@@@@@@U?$less@PAVDIdent@@@@V?$__default_alloc_template@$00$0A@@@@@QAEXU?$_Rb_tree_iterator@U?$pair@QAVDIdent@@UTimerStatusName@@@@AAU1@PAU1@@@@Z 00437f50 f i ResourceWindowPC.obj
 0001:00036f90       ?find@?$_Rb_tree@PAVDIdent@@U?$pair@QAVDIdent@@UTimerStatusName@@@@U?$_Select1st@U?$pair@QAVDIdent@@UTimerStatusName@@@@@@U?$less@PAVDIdent@@@@V?$__default_alloc_template@$00$0A@@@@@QAE?AU?$_Rb_tree_iterator@U?$pair@QAVDIdent@@UTimerStatusName@@@@AAU1@PAU1@@@ABQAVDIdent@@@Z 00437f90 f i ResourceWindowPC.obj
 0001:00036ff0       ?lower_bound@?$_Rb_tree@PAVDIdent@@U?$pair@QAVDIdent@@UTimerStatusName@@@@U?$_Select1st@U?$pair@QAVDIdent@@UTimerStatusName@@@@@@U?$less@PAVDIdent@@@@V?$__default_alloc_template@$00$0A@@@@@QAE?AU?$_Rb_tree_iterator@U?$pair@QAVDIdent@@UTimerStatusName@@@@AAU1@PAU1@@@ABQAVDIdent@@@Z 00437ff0 f i ResourceWindowPC.obj
 0001:00037030       ?_M_erase@?$_Rb_tree@JU?$pair@$$CBJUFileName@@@@U?$_Select1st@U?$pair@$$CBJUFileName@@@@@@U?$less@J@@V?$__default_alloc_template@$00$0A@@@@@AAEXPAU?$_Rb_tree_node@U?$pair@$$CBJUFileName@@@@@@@Z 00438030 f i ResourceWindowPC.obj
 0001:00037070       ?insert_unique@?$_Rb_tree@JU?$pair@$$CBJUFileName@@@@U?$_Select1st@U?$pair@$$CBJUFileName@@@@@@U?$less@J@@V?$__default_alloc_template@$00$0A@@@@@QAE?AU?$pair@U?$_Rb_tree_iterator@U?$pair@$$CBJUFileName@@@@AAU1@PAU1@@@_N@@ABU?$pair@$$CBJUFileName@@@@@Z 00438070 f i ResourceWindowPC.obj
 0001:000371e0       ?erase@?$_Rb_tree@JU?$pair@$$CBJUFileName@@@@U?$_Select1st@U?$pair@$$CBJUFileName@@@@@@U?$less@J@@V?$__default_alloc_template@$00$0A@@@@@QAEXU?$_Rb_tree_iterator@U?$pair@$$CBJUFileName@@@@AAU1@PAU1@@@@Z 004381e0 f i ResourceWindowPC.obj
 0001:00037220       ?_M_erase@?$_Rb_tree@PAVDIdent@@U?$pair@QAVDIdent@@UBmpViewWnd@@@@U?$_Select1st@U?$pair@QAVDIdent@@UBmpViewWnd@@@@@@U?$less@PAVDIdent@@@@V?$__default_alloc_template@$00$0A@@@@@AAEXPAU?$_Rb_tree_node@U?$pair@QAVDIdent@@UBmpViewWnd@@@@@@@Z 00438220 f i ResourceWindowPC.obj
 0001:00037260       ?insert_unique@?$_Rb_tree@PAVDIdent@@U?$pair@QAVDIdent@@UBmpViewWnd@@@@U?$_Select1st@U?$pair@QAVDIdent@@UBmpViewWnd@@@@@@U?$less@PAVDIdent@@@@V?$__default_alloc_template@$00$0A@@@@@QAE?AU?$pair@U?$_Rb_tree_iterator@U?$pair@QAVDIdent@@UBmpViewWnd@@@@AAU1@PAU1@@@_N@@ABU?$pair@QAVDIdent@@UBmpViewWnd@@@@@Z 00438260 f i ResourceWindowPC.obj
 0001:000373d0       ?erase@?$_Rb_tree@PAVDIdent@@U?$pair@QAVDIdent@@UBmpViewWnd@@@@U?$_Select1st@U?$pair@QAVDIdent@@UBmpViewWnd@@@@@@U?$less@PAVDIdent@@@@V?$__default_alloc_template@$00$0A@@@@@QAEXU?$_Rb_tree_iterator@U?$pair@QAVDIdent@@UBmpViewWnd@@@@AAU1@PAU1@@@@Z 004383d0 f i ResourceWindowPC.obj
 0001:00037400       ?find@?$_Rb_tree@PAVDIdent@@U?$pair@QAVDIdent@@UBmpViewWnd@@@@U?$_Select1st@U?$pair@QAVDIdent@@UBmpViewWnd@@@@@@U?$less@PAVDIdent@@@@V?$__default_alloc_template@$00$0A@@@@@QAE?AU?$_Rb_tree_iterator@U?$pair@QAVDIdent@@UBmpViewWnd@@@@AAU1@PAU1@@@ABQAVDIdent@@@Z 00438400 f i ResourceWindowPC.obj
 0001:00037460       ??0?$pair@U?$_Rb_tree_iterator@U?$pair@QAVDIdent@@UTimerStatusName@@@@AAU1@PAU1@@@_N@@QAE@ABU?$_Rb_tree_iterator@U?$pair@QAVDIdent@@UTimerStatusName@@@@AAU1@PAU1@@@AB_N@Z 00438460 f i ResourceWindowPC.obj
 0001:00037480       ?_M_insert@?$_Rb_tree@PAVDIdent@@U?$pair@QAVDIdent@@UTimerStatusName@@@@U?$_Select1st@U?$pair@QAVDIdent@@UTimerStatusName@@@@@@U?$less@PAVDIdent@@@@V?$__default_alloc_template@$00$0A@@@@@AAE?AU?$_Rb_tree_iterator@U?$pair@QAVDIdent@@UTimerStatusName@@@@AAU1@PAU1@@@PAU_Rb_tree_node_base@@0ABU?$pair@QAVDIdent@@UTimerStatusName@@@@@Z 00438480 f i ResourceWindowPC.obj
 0001:00037610       ?_M_create_node@?$_Rb_tree@PAVDIdent@@U?$pair@QAVDIdent@@UBmpName@@@@U?$_Select1st@U?$pair@QAVDIdent@@UBmpName@@@@@@U?$less@PAVDIdent@@@@V?$__default_alloc_template@$00$0A@@@@@IAEPAU?$_Rb_tree_node@U?$pair@QAVDIdent@@UBmpName@@@@@@ABU?$pair@QAVDIdent@@UBmpName@@@@@Z 00438610 f i ResourceWindowPC.obj
 0001:000376d0       ?_M_create_node@?$_Rb_tree@PAVDIdent@@U?$pair@QAVDIdent@@UTimerStatusName@@@@U?$_Select1st@U?$pair@QAVDIdent@@UTimerStatusName@@@@@@U?$less@PAVDIdent@@@@V?$__default_alloc_template@$00$0A@@@@@IAEPAU?$_Rb_tree_node@U?$pair@QAVDIdent@@UTimerStatusName@@@@@@ABU?$pair@QAVDIdent@@UTimerStatusName@@@@@Z 004386d0 f i ResourceWindowPC.obj
 0001:00037730       ?_M_create_node@?$_Rb_tree@JU?$pair@$$CBJUFileName@@@@U?$_Select1st@U?$pair@$$CBJUFileName@@@@@@U?$less@J@@V?$__default_alloc_template@$00$0A@@@@@IAEPAU?$_Rb_tree_node@U?$pair@$$CBJUFileName@@@@@@ABU?$pair@$$CBJUFileName@@@@@Z 00438730 f i ResourceWindowPC.obj
 0001:00037790       ?_M_create_node@?$_Rb_tree@PAVDIdent@@U?$pair@QAVDIdent@@UBmpViewWnd@@@@U?$_Select1st@U?$pair@QAVDIdent@@UBmpViewWnd@@@@@@U?$less@PAVDIdent@@@@V?$__default_alloc_template@$00$0A@@@@@IAEPAU?$_Rb_tree_node@U?$pair@QAVDIdent@@UBmpViewWnd@@@@@@ABU?$pair@QAVDIdent@@UBmpViewWnd@@@@@Z 00438790 f i ResourceWindowPC.obj
 0001:00037850       ?SysCall@@YAXK@Z           00438850 f   SysCall.obj
 0001:0003a830       _RunTimer                  0043b830 f   TimerPC.obj
 0001:0003a850       _StopTimer                 0043b850 f   TimerPC.obj
 0001:0003a870       ?CreateWindowTrace@@YAPAUHWND__@@HHHHPAUHINSTANCE__@@@Z 0043b870 f   TraceWindowPC.obj
 0001:0003a920       ?DestroyWindowTrace@@YAXPAUHWND__@@@Z 0043b920 f   TraceWindowPC.obj
 0001:0003aa60       ?TraceWndProc@@YGJPAUHWND__@@IIJ@Z 0043ba60 f   TraceWindowPC.obj
 0001:0003aef0       ?InitLVTraceColumns@@YAHPAUHWND__@@PAPAD@Z 0043bef0 f   TraceWindowPC.obj
 0001:0003af90       ?AddLVTraceEntry@@YAHPAUHWND__@@PAPAD@Z 0043bf90 f   TraceWindowPC.obj
 0001:0003b090       ?ClearLVTraceEntry@@YAHPAUHWND__@@@Z 0043c090 f   TraceWindowPC.obj
 0001:0003b0b0       ?AddTraceEntry@@YAHPAUHWND__@@PBD1@Z 0043c0b0 f   TraceWindowPC.obj
 0001:0003b1c0       ??1?$Dico@PAVDIdent@@@@QAE@XZ 0043c1c0 f i ULoader.obj
 0001:0003b350       ??0?$Dico@PAVDIdent@@@@QAE@XZ 0043c350 f i ULoader.obj
 0001:0003b460       ??1?$Dico@PAVDObj@@@@QAE@XZ 0043c460 f i ULoader.obj
 0001:0003b5f0       ??0?$Dico@PAVDObj@@@@QAE@XZ 0043c5f0 f i ULoader.obj
 0001:0003b6c0       ??0ULoader@@QAE@XZ         0043c6c0 f   ULoader.obj
 0001:0003b6d0       ??1ULoader@@QAE@XZ         0043c6d0 f   ULoader.obj
 0001:0003b710       ?Param@ULoader@@SAPADPBD0@Z 0043c710 f   ULoader.obj
 0001:0003b7b0       ?Init@ULoader@@SAXPADQAD@Z 0043c7b0 f   ULoader.obj
 0001:0003cf90       ?Close@ULoader@@SAXXZ      0043df90 f   ULoader.obj
 0001:0003d030       ?WarningBox@ULoader@@SAXPBD0K@Z 0043e030 f   ULoader.obj
 0001:0003d160       ?ErrorBox@ULoader@@SAXPBD0K@Z 0043e160 f   ULoader.obj
 0001:0003d1b0       ?InfoBox@ULoader@@SAXPBD00K@Z 0043e1b0 f   ULoader.obj
 0001:0003d2e0       ?TitleErrorMsg@ULoader@@SAPADKPADK@Z 0043e2e0 f   ULoader.obj
 0001:0003d3a0       ?TextErrorMsg@ULoader@@SAPADKPADK@Z 0043e3a0 f   ULoader.obj
 0001:0003d450       ??1?$_Rb_tree_base@U?$pair@QBDPAVDIdent@@@@V?$__default_alloc_template@$00$0A@@@@@QAE@XZ 0043e450 f i ULoader.obj
 0001:0003d460       ??1?$_Rb_tree_base@U?$pair@QBDPAVDObj@@@@V?$__default_alloc_template@$00$0A@@@@@QAE@XZ 0043e460 f i ULoader.obj
 0001:0003d470       ?_Atomic_swap@@YAKPAKK@Z   0043e470 f i ULoader.obj
 0001:0003d490       ?_M_erase@?$_Rb_tree@PBDU?$pair@QBDPAVDIdent@@@@U?$_Select1st@U?$pair@QBDPAVDIdent@@@@@@Ueqstr@@V?$__default_alloc_template@$00$0A@@@@@AAEXPAU?$_Rb_tree_node@U?$pair@QBDPAVDIdent@@@@@@@Z 0043e490 f i ULoader.obj
 0001:0003d4d0       ?_M_erase@?$_Rb_tree@PBDU?$pair@QBDPAVDObj@@@@U?$_Select1st@U?$pair@QBDPAVDObj@@@@@@Ueqstr@@V?$__default_alloc_template@$00$0A@@@@@AAEXPAU?$_Rb_tree_node@U?$pair@QBDPAVDObj@@@@@@@Z 0043e4d0 f i ULoader.obj
 0001:0003d550       ??0WatchElement@@QAE@PAVDWatch@@@Z 0043e550 f   WatchWindowPC.obj
 0001:0003d620       ??1WatchElement@@QAE@XZ    0043e620 f   WatchWindowPC.obj
 0001:0003d630       ?GetType@WatchElement@@QAEKXZ 0043e630 f   WatchWindowPC.obj
 0001:0003d640       ?GetName@WatchElement@@QAEPBDXZ 0043e640 f   WatchWindowPC.obj
 0001:0003d650       ?GetValue@WatchElement@@QAEPAXXZ 0043e650 f   WatchWindowPC.obj
 0001:0003d660       ?SetValue@WatchElement@@QAEXPAX@Z 0043e660 f   WatchWindowPC.obj
 0001:0003d670       ??0WatchWindow@@QAE@HHHHPAUHINSTANCE__@@@Z 0043e670 f   WatchWindowPC.obj
 0001:0003d730       ??1WatchWindow@@QAE@XZ     0043e730 f   WatchWindowPC.obj
 0001:0003d8d0       ?GetHandle@WatchWindow@@QAEPAUHWND__@@XZ 0043e8d0 f   WatchWindowPC.obj
 0001:0003d8e0       ?FreeListWatch@WatchWindow@@CAXXZ 0043e8e0 f   WatchWindowPC.obj
 0001:0003d930       ?InitListView@WatchWindow@@CA_NPAPAD@Z 0043e930 f   WatchWindowPC.obj
 0001:0003d9a0       ?AddListView@WatchWindow@@CA_NQAPAD@Z 0043e9a0 f   WatchWindowPC.obj
 0001:0003da90       ?RefreshListView@WatchWindow@@CA_NHQAPAD@Z 0043ea90 f   WatchWindowPC.obj
 0001:0003daf0       ?ClearListView@WatchWindow@@CA_NXZ 0043eaf0 f   WatchWindowPC.obj
 0001:0003db10       ?SupprListView@WatchWindow@@CAXXZ 0043eb10 f   WatchWindowPC.obj
 0001:0003dbd0       ?ManageWatch@WatchWindow@@SA_NPAVDWatch@@K@Z 0043ebd0 f   WatchWindowPC.obj
 0001:0003dd80       ?AddWatch@WatchWindow@@CA_NPAVDWatch@@@Z 0043ed80 f   WatchWindowPC.obj
 0001:0003ded0       ?TextWatch@WatchWindow@@CAXPAVWatchElement@@QAPBD@Z 0043eed0 f   WatchWindowPC.obj
 0001:0003e060       ?IndexWatch@WatchWindow@@CAJPAVDWatch@@@Z 0043f060 f   WatchWindowPC.obj
 0001:0003e0b0       ?UpdateWatch@WatchWindow@@CA_NPAVDWatch@@@Z 0043f0b0 f   WatchWindowPC.obj
 0001:0003e170       ?UpdateAllWatch@WatchWindow@@CAXXZ 0043f170 f   WatchWindowPC.obj
 0001:0003e200       ?DeleteWatch@WatchWindow@@CA_NPAVDWatch@@@Z 0043f200 f   WatchWindowPC.obj
 0001:0003e2c0       ?WatchWndProc@WatchWindow@@CGJPAUHWND__@@IIJ@Z 0043f2c0 f   WatchWindowPC.obj
 0001:0003e900       ??0?$vector@PAVWatchElement@@V?$__default_alloc_template@$00$0A@@@@@QAE@ABV?$__default_alloc_template@$00$0A@@@@Z 0043f900 f i WatchWindowPC.obj
 0001:0003e910       ??1?$vector@PAVWatchElement@@V?$__default_alloc_template@$00$0A@@@@@QAE@XZ 0043f910 f i WatchWindowPC.obj
 0001:0003ea70       ?_M_insert_aux@?$vector@PAVWatchElement@@V?$__default_alloc_template@$00$0A@@@@@IAEXPAPAVWatchElement@@ABQAV2@@Z 0043fa70 f i WatchWindowPC.obj
 0001:0003ed30       ?__uninitialized_copy_aux@@YAPAPAVWatchElement@@PAPAV1@00U__false_type@@@Z 0043fd30 f i WatchWindowPC.obj
 0001:0003ed60       ?EnumWndProc@@YGHPAUHWND__@@J@Z 0043fd60 f   windowpc.obj
 0001:0003ed90       ?SysFlushKeyEvents@@YAXXZ  0043fd90 f   windowpc.obj
 0001:0003ede0       ?SysFlushMouseEvents@@YAXXZ 0043fde0 f   windowpc.obj
 0001:0003ee30       ?MDOGetKeyState@@YAJJ@Z    0043fe30 f   windowpc.obj
 0001:0003f1f0       ?KeyFilter2@@YAJJ@Z        004401f0 f   windowpc.obj
 0001:0003f250       ?KeyFilter3@@YAJJ@Z        00440250 f   windowpc.obj
 0001:0003f260       ?DefaultMainWndProc@@YGJPAUHWND__@@IIJ@Z 00440260 f   windowpc.obj
 0001:00040250       ?MessageLoop@@YAXH@Z       00441250 f   windowpc.obj
 0001:000402b0       ?ManageEvents@@YAXXZ       004412b0 f   windowpc.obj
 0001:000403f0       ?MDOSystemLoop@@YAXXZ      004413f0 f   windowpc.obj
 0001:00040410       ?QuitMDOSystemLoop@@YAXXZ  00441410 f   windowpc.obj
 0001:000404c0       ?TraceWindow@@YAXPBD0@Z    004414c0 f   windowpc.obj
 0001:000406e0       ?Loop@@YAXXZ               004416e0 f   windowpc.obj
 0001:00040790       ?LibSoundError@@YAXPBD0K@Z 00441790 f   windowpc.obj
 0001:000407e0       ?OnExit@@YAXXZ             004417e0 f   windowpc.obj
 0001:000408a0       _WinMain@16                004418a0 f   windowpc.obj
 0001:000411d0       ?LancerProgrammeExterne@@YAJPBDCPAJ@Z 004421d0 f   windowpc.obj
 0001:000413d0       ?RetourneProgrammeInfo@@YACJPAJ@Z 004423d0 f   windowpc.obj
 0001:000413f0       ?LancerURL@@YAJPBD@Z       004423f0 f   windowpc.obj
 0001:00041410       _Sleep@4                   00442410 f   kernel32:KERNEL32.dll
 0001:00041416       _InterlockedExchange@8     00442416 f   kernel32:KERNEL32.dll
 0001:0004141c       _GetSystemDirectoryA@8     0044241c f   kernel32:KERNEL32.dll
 0001:00041422       _InitializeCriticalSection@4 00442422 f   kernel32:KERNEL32.dll
 0001:00041428       _DeleteCriticalSection@4   00442428 f   kernel32:KERNEL32.dll
 0001:0004142e       _LeaveCriticalSection@4    0044242e f   kernel32:KERNEL32.dll
 0001:00041434       _EnterCriticalSection@4    00442434 f   kernel32:KERNEL32.dll
 0001:0004143a       _WritePrivateProfileStringA@16 0044243a f   kernel32:KERNEL32.dll
 0001:00041440       _CreateProcessA@40         00442440 f   kernel32:KERNEL32.dll
 0001:00041446       _GetPrivateProfileStringA@24 00442446 f   kernel32:KERNEL32.dll
 0001:0004144c       _CloseHandle@4             0044244c f   kernel32:KERNEL32.dll
 0001:00041452       _GetLastError@0            00442452 f   kernel32:KERNEL32.dll
 0001:00041458       _CreateMutexA@12           00442458 f   kernel32:KERNEL32.dll
 0001:0004145e       _lstrlenA@4                0044245e f   kernel32:KERNEL32.dll
 0001:00041464       _GetLocalTime@4            00442464 f   kernel32:KERNEL32.dll
 0001:0004146a       _GetCurrentThreadId@0      0044246a f   kernel32:KERNEL32.dll
 0001:00041470       _GetExitCodeProcess@8      00442470 f   kernel32:KERNEL32.dll
 0001:00041476       _MessageBoxA@16            00442476 f   user32:USER32.dll
 0001:0004147c       _OemToCharA@8              0044247c f   user32:USER32.dll
 0001:00041482       _CharToOemA@8              00442482 f   user32:USER32.dll
 0001:00041488       _SetDlgItemTextA@12        00442488 f   user32:USER32.dll
 0001:0004148e       _EndDialog@8               0044248e f   user32:USER32.dll
 0001:00041494       _DialogBoxParamA@20        00442494 f   user32:USER32.dll
 0001:0004149a       _SendMessageA@16           0044249a f   user32:USER32.dll
 0001:000414a0       _IsDlgButtonChecked@8      004424a0 f   user32:USER32.dll
 0001:000414a6       _DefWindowProcA@16         004424a6 f   user32:USER32.dll
 0001:000414ac       _SetWindowTextA@8          004424ac f   user32:USER32.dll
 0001:000414b2       _CheckDlgButton@12         004424b2 f   user32:USER32.dll
 0001:000414b8       _DestroyWindow@4           004424b8 f   user32:USER32.dll
 0001:000414be       _CreateWindowExA@48        004424be f   user32:USER32.dll
 0001:000414c4       _GetClientRect@8           004424c4 f   user32:USER32.dll
 0001:000414ca       _GetDlgItem@8              004424ca f   user32:USER32.dll
 0001:000414d0       _SetWindowPos@28           004424d0 f   user32:USER32.dll
 0001:000414d6       _GetWindowPlacement@8      004424d6 f   user32:USER32.dll
 0001:000414dc       _MoveWindow@24             004424dc f   user32:USER32.dll
 0001:000414e2       _RegisterClassA@4          004424e2 f   user32:USER32.dll
 0001:000414e8       _LoadCursorA@8             004424e8 f   user32:USER32.dll
 0001:000414ee       _LoadIconA@8               004424ee f   user32:USER32.dll
 0001:000414f4       _IsWindow@4                004424f4 f   user32:USER32.dll
 0001:000414fa       _ShowWindow@8              004424fa f   user32:USER32.dll
 0001:00041500       _OffsetRect@12             00442500 f   user32:USER32.dll
 0001:00041506       _AdjustWindowRect@12       00442506 f   user32:USER32.dll
 0001:0004150c       _GetSystemMetrics@4        0044250c f   user32:USER32.dll
 0001:00041512       _SetWindowLongA@12         00442512 f   user32:USER32.dll
 0001:00041518       _GetWindowRect@8           00442518 f   user32:USER32.dll
 0001:0004151e       _EndPaint@8                0044251e f   user32:USER32.dll
 0001:00041524       _ReleaseDC@8               00442524 f   user32:USER32.dll
 0001:0004152a       _GetWindowLongA@8          0044252a f   user32:USER32.dll
 0001:00041530       _BeginPaint@8              00442530 f   user32:USER32.dll
 0001:00041536       _InvalidateRect@12         00442536 f   user32:USER32.dll
 0001:0004153c       _KillTimer@8               0044253c f   user32:USER32.dll
 0001:00041542       _BringWindowToTop@4        00442542 f   user32:USER32.dll
 0001:00041548       _SetTimer@16               00442548 f   user32:USER32.dll
 0001:0004154e       _UpdateWindow@4            0044254e f   user32:USER32.dll
 0001:00041554       _SetWindowPlacement@8      00442554 f   user32:USER32.dll
 0001:0004155a       _GetWindowThreadProcessId@8 0044255a f   user32:USER32.dll
 0001:00041560       _PeekMessageA@20           00442560 f   user32:USER32.dll
 0001:00041566       _GetAsyncKeyState@4        00442566 f   user32:USER32.dll
 0001:0004156c       _CheckMenuItem@12          0044256c f   user32:USER32.dll
 0001:00041572       _GetMenuState@12           00442572 f   user32:USER32.dll
 0001:00041578       _SetCursor@4               00442578 f   user32:USER32.dll
 0001:0004157e       _GetDC@4                   0044257e f   user32:USER32.dll
 0001:00041584       _GetUpdateRect@12          00442584 f   user32:USER32.dll
 0001:0004158a       _FillRect@12               0044258a f   user32:USER32.dll
 0001:00041590       _GetClassLongA@8           00442590 f   user32:USER32.dll
 0001:00041596       _SetActiveWindow@4         00442596 f   user32:USER32.dll
 0001:0004159c       _SetForegroundWindow@4     0044259c f   user32:USER32.dll
 0001:000415a2       _GetParent@4               004425a2 f   user32:USER32.dll
 0001:000415a8       _EnumWindows@8             004425a8 f   user32:USER32.dll
 0001:000415ae       _DispatchMessageA@4        004425ae f   user32:USER32.dll
 0001:000415b4       _TranslateMessage@4        004425b4 f   user32:USER32.dll
 0001:000415ba       _SystemParametersInfoA@16  004425ba f   user32:USER32.dll
 0001:000415c0       _UnregisterClassA@8        004425c0 f   user32:USER32.dll
 0001:000415c6       _SetFocus@4                004425c6 f   user32:USER32.dll
 0001:000415cc       _InsertMenuItemA@16        004425cc f   user32:USER32.dll
 0001:000415d2       _AppendMenuA@16            004425d2 f   user32:USER32.dll
 0001:000415d8       _CreateMenu@0              004425d8 f   user32:USER32.dll
 0001:000415de       _GetStockObject@4          004425de f   gdi32:GDI32.dll
 0001:000415e4       _DeleteObject@4            004425e4 f   gdi32:GDI32.dll
 0001:000415ea       _GetDeviceCaps@8           004425ea f   gdi32:GDI32.dll
 0001:000415f0       _RegCloseKey@4             004425f0 f   advapi32:ADVAPI32.dll
 0001:000415f6       _RegSetValueExA@24         004425f6 f   advapi32:ADVAPI32.dll
 0001:000415fc       _RegOpenKeyExA@20          004425fc f   advapi32:ADVAPI32.dll
 0001:00041602       _RegCreateKeyExA@36        00442602 f   advapi32:ADVAPI32.dll
 0001:00041608       _RegQueryValueExA@24       00442608 f   advapi32:ADVAPI32.dll
 0001:0004160e       _ShellExecuteA@24          0044260e f   shell32:SHELL32.dll
 0001:00041614       _CoUninitialize@0          00442614 f   ole32:ole32.dll
 0001:0004161a       _CoInitialize@4            0044261a f   ole32:ole32.dll
 0001:00041620       _InitCommonControls@0      00442620 f   comctl32:COMCTL32.dll
 0001:00041630       ??0UDGlobal@@QAE@XZ        00442630 f   Libs Engine:UDGlobal.obj
 0001:00041640       ??1UDGlobal@@QAE@XZ        00442640 f   Libs Engine:UDGlobal.obj
 0001:00041650       ?Go@UDGlobal@@SAXPBD00@Z   00442650 f   Libs Engine:UDGlobal.obj
 0001:00041790       ?OpenEngine@UDGlobal@@SA_NXZ 00442790 f   Libs Engine:UDGlobal.obj
 0001:000417f0       ?CloseEngine@UDGlobal@@SA_NXZ 004427f0 f   Libs Engine:UDGlobal.obj
 0001:00041810       ?IsEngineActive@UDGlobal@@SA_NXZ 00442810 f   Libs Engine:UDGlobal.obj
 0001:00041820       ?Run@UDGlobal@@SA_NPBD00@Z 00442820 f   Libs Engine:UDGlobal.obj
 0001:000418b0       ?GetStackVar@UDGlobal@@SAPAVDStack@@XZ 004428b0 f   Libs Engine:UDGlobal.obj
 0001:00041930       ?PushReturnByte@UDGlobal@@SAXC@Z 00442930 f   Libs Engine:UDGlobal.obj
 0001:000419c0       ?PushReturnWord@UDGlobal@@SAXF@Z 004429c0 f   Libs Engine:UDGlobal.obj
 0001:00041a50       ?PushReturnLong@UDGlobal@@SAXJ@Z 00442a50 f   Libs Engine:UDGlobal.obj
 0001:00041ae0       ?PushReturnReal@UDGlobal@@SAXN@Z 00442ae0 f   Libs Engine:UDGlobal.obj
 0001:00041b70       ?PushReturnString@UDGlobal@@SAXPBD@Z 00442b70 f   Libs Engine:UDGlobal.obj
 0001:00041c20       ?PushReturnIdent@UDGlobal@@SAXPAVDIdent@@@Z 00442c20 f   Libs Engine:UDGlobal.obj
 0001:00041cb0       ?PushReturnObj@UDGlobal@@SAXPAVDObj@@@Z 00442cb0 f   Libs Engine:UDGlobal.obj
 0001:00041d40       ?PushReturnVoid@UDGlobal@@SAXXZ 00442d40 f   Libs Engine:UDGlobal.obj
 0001:00041dd0       ?GetElementByte@UDGlobal@@SACK@Z 00442dd0 f   Libs Engine:UDGlobal.obj
 0001:00041ec0       ?SetElement@UDGlobal@@SAXKJ@Z 00442ec0 f   Libs Engine:UDGlobal.obj
 0001:00041fa0       ?GetElementWord@UDGlobal@@SAFK@Z 00442fa0 f   Libs Engine:UDGlobal.obj
 0001:00042090       ?GetElementLong@UDGlobal@@SAJK@Z 00443090 f   Libs Engine:UDGlobal.obj
 0001:00042170       ?GetElementReal@UDGlobal@@SANK@Z 00443170 f   Libs Engine:UDGlobal.obj
 0001:00042260       ?GetElementArray1Double@UDGlobal@@SAPANKAAH@Z 00443260 f   Libs Engine:UDGlobal.obj
 0001:00042340       ?SetElement@UDGlobal@@SAXKN@Z 00443340 f   Libs Engine:UDGlobal.obj
 0001:00042430       ?GetElementString@UDGlobal@@SAPBDK@Z 00443430 f   Libs Engine:UDGlobal.obj
 0001:00042520       ?GetElement@UDGlobal@@SAPAUDVar@@K@Z 00443520 f   Libs Engine:UDGlobal.obj
 0001:000425b0       ?SetElement@UDGlobal@@SAXKPBD@Z 004435b0 f   Libs Engine:UDGlobal.obj
 0001:00042690       ?GetElementIdent@UDGlobal@@SAPAVDIdent@@K@Z 00443690 f   Libs Engine:UDGlobal.obj
 0001:00042770       ?SetElement@UDGlobal@@SAXKPAVDIdent@@@Z 00443770 f   Libs Engine:UDGlobal.obj
 0001:00042850       ?GetElementObj@UDGlobal@@SAPAVDObj@@K@Z 00443850 f   Libs Engine:UDGlobal.obj
 0001:00042930       ?SetElement@UDGlobal@@SAXKPAVDObj@@@Z 00443930 f   Libs Engine:UDGlobal.obj
 0001:00042a10       ?LoadObc@UDGlobal@@SAPAVDObc@@PBD@Z 00443a10 f   Libs Engine:UDGlobal.obj
 0001:00042aa0       ?IsObcLoaded@UDGlobal@@SA_NPBD@Z 00443aa0 f   Libs Engine:UDGlobal.obj
 0001:00042b30       ?UnLoadObc@UDGlobal@@SA_NPBD@Z 00443b30 f   Libs Engine:UDGlobal.obj
 0001:00042bc0       ?SetTrace@UDGlobal@@SAXKPAVDTrace@@@Z 00443bc0 f   Libs Engine:UDGlobal.obj
 0001:00042be0       ?SetTrace@UDGlobal@@SAXK@Z 00443be0 f   Libs Engine:UDGlobal.obj
 0001:00042bf0       ?Trace@UDGlobal@@SAXKPBD@Z 00443bf0 f   Libs Engine:UDGlobal.obj
 0001:00042c20       ?Trace@UDGlobal@@SAXKK@Z   00443c20 f   Libs Engine:UDGlobal.obj
 0001:00042c50       ?Trace@UDGlobal@@SAXKJ@Z   00443c50 f   Libs Engine:UDGlobal.obj
 0001:00042c80       ?Trace@UDGlobal@@SAXKN@Z   00443c80 f   Libs Engine:UDGlobal.obj
 0001:00042cb0       ?GlobalExtractFileName@UDGlobal@@SAXPBDPAD@Z 00443cb0 f   Libs Engine:UDGlobal.obj
 0001:00042db0       ?DisplayErrorEngineNotFound@UDGlobal@@CAXXZ 00443db0 f   Libs Engine:UDGlobal.obj
 0001:00042e20       ?GetRelativeIndex@UDGlobal@@SAJXZ 00443e20 f   Libs Engine:UDGlobal.obj
 0001:00042e40       ?GetContextOf@UDGlobal@@SA_NPBDAAUDContextEngine@@@Z 00443e40 f   Libs Engine:UDGlobal.obj
 0001:00042e60       ?CleanContext@UDGlobal@@SAXAAUDContextEngine@@@Z 00443e60 f   Libs Engine:UDGlobal.obj
 0001:00042e80       ?GetContextOfExternalObj@UDGlobal@@SA_NPBDAAUDContextEngine@@PAVDObj@@@Z 00443e80 f   Libs Engine:UDGlobal.obj
 0001:00042eb0       ?CallHandler@UDGlobal@@SAJPAUDContextEngine@@J_N@Z 00443eb0 f   Libs Engine:UDGlobal.obj
 0001:00042ee0       ?WarningBox@UDGlobal@@SAXPBD0K@Z 00443ee0 f   Libs Engine:UDGlobal.obj
 0001:00042f10       ?ErrorBox@UDGlobal@@SAXPBD0K@Z 00443f10 f   Libs Engine:UDGlobal.obj
 0001:00042f40       ?TitleErrorMsg@UDGlobal@@SAPADKPADK@Z 00443f40 f   Libs Engine:UDGlobal.obj
 0001:00042f70       ?TextErrorMsg@UDGlobal@@SAPADKPADK@Z 00443f70 f   Libs Engine:UDGlobal.obj
 0001:00042fa0       ?FileLoadObc@UDGlobal@@SAPAXPBD@Z 00443fa0 f   Libs Engine:UDGlobal.obj
 0001:00042fc0       ?FileReleaseObc@UDGlobal@@SAPAXPAX@Z 00443fc0 f   Libs Engine:UDGlobal.obj
 0001:00042fe0       ?GetNameTypeIdent@UDGlobal@@SAPBDK@Z 00443fe0 f   Libs Engine:UDGlobal.obj
 0001:00043130       ?GetMaxTick@UDGlobal@@SAKXZ 00444130 f   Libs Engine:UDGlobal.obj
 0001:00043140       ?SetFctLoop@UDGlobal@@SAXP6AXXZK@Z 00444140 f   Libs Engine:UDGlobal.obj
 0001:00043160       ?SetFctSysCall@UDGlobal@@SAXP6AXK@Z@Z 00444160 f   Libs Engine:UDGlobal.obj
 0001:00043170       ?SetFctTitleErrorMsg@UDGlobal@@SAXP6APADKPADK@Z@Z 00444170 f   Libs Engine:UDGlobal.obj
 0001:00043180       ?SetFctTextErrorMsg@UDGlobal@@SAXP6APADKPADK@Z@Z 00444180 f   Libs Engine:UDGlobal.obj
 0001:00043190       ?SetFctWarningBox@UDGlobal@@SAXP6AXPBD0K@Z@Z 00444190 f   Libs Engine:UDGlobal.obj
 0001:000431a0       ?SetFctErrorManager@UDGlobal@@SAXP6AXKPAPBD@Z@Z 004441a0 f   Libs Engine:UDGlobal.obj
 0001:000431b0       ?SetFctLoadObc@UDGlobal@@SAXP6APAXPBD@Z@Z 004441b0 f   Libs Engine:UDGlobal.obj
 0001:000431c0       ?SetFctReleaseObc@UDGlobal@@SAXP6APAXPAX@Z@Z 004441c0 f   Libs Engine:UDGlobal.obj
 0001:000431d0       ?GetMaxSizeStack@UDGlobal@@SAKXZ 004441d0 f   Libs Engine:UDGlobal.obj
 0001:000431e0       ?SetMaxSizeStack@UDGlobal@@SAXK@Z 004441e0 f   Libs Engine:UDGlobal.obj
 0001:000431f0       ?SetFctWatch@UDGlobal@@SAXP6A_NPAVDWatch@@K@Z@Z 004441f0 f   Libs Engine:UDGlobal.obj
 0001:00043200       ?UpdateWatch@UDGlobal@@SAXPAUDVar@@@Z 00444200 f   Libs Engine:UDGlobal.obj
 0001:000432a0       ?DeleteWatch@UDGlobal@@SAXPAUDVar@@@Z 004442a0 f   Libs Engine:UDGlobal.obj
 0001:00043340       ?SetWatch@UDGlobal@@SAXK@Z 00444340 f   Libs Engine:UDGlobal.obj
 0001:00043350       ?AddExtension@UDGlobal@@SAPADPBD0@Z 00444350 f   Libs Engine:UDGlobal.obj
 0001:000433f0       ??0DIdent@@QAE@KPBX@Z      004443f0 f   Libs Engine:DIdent.obj
 0001:00043420       ??1DIdent@@QAE@XZ          00444420 f   Libs Engine:DIdent.obj
 0001:000434d0       ?IncRef@DIdent@@QAEXXZ     004444d0 f   Libs Engine:DIdent.obj
 0001:000434e0       ?DecRef@DIdent@@QAEXXZ     004444e0 f   Libs Engine:DIdent.obj
 0001:000434f0       ?CountRef@DIdent@@QAEKXZ   004444f0 f   Libs Engine:DIdent.obj
 0001:00043500       ?GetType@DIdent@@QAEKXZ    00444500 f   Libs Engine:DIdent.obj
 0001:00043510       ?GetPtr@DIdent@@QAEPAXXZ   00444510 f   Libs Engine:DIdent.obj
 0001:00043520       ?Erase@DIdent@@QAEXXZ      00444520 f   Libs Engine:DIdent.obj
 0001:00043530       ?IsStillReferenced@DIdent@@QAE_NXZ 00444530 f   Libs Engine:DIdent.obj
 0001:00043550       ?GetNameTypeIdent@DIdent@@QAEPBDXZ 00444550 f   Libs Engine:DIdent.obj
 0001:00043560       ??0DString@@QAE@PBD@Z      00444560 f   Libs Engine:DString.obj
 0001:000435c0       ??0DString@@QAE@XZ         004445c0 f   Libs Engine:DString.obj
 0001:000435d0       ??1DString@@QAE@XZ         004445d0 f   Libs Engine:DString.obj
 0001:000435f0       ??4DString@@QAEAAV0@PBD@Z  004445f0 f   Libs Engine:DString.obj
 0001:00043660       ??4DString@@QAEAAV0@ABV0@@Z 00444660 f   Libs Engine:DString.obj
 0001:000436d0       ??YDString@@QAEAAV0@ABV0@@Z 004446d0 f   Libs Engine:DString.obj
 0001:00043770       ??8DString@@QAE_NABV0@@Z   00444770 f   Libs Engine:DString.obj
 0001:00043790       ??9DString@@QAE_NABV0@@Z   00444790 f   Libs Engine:DString.obj
 0001:000437b0       ?Len@DString@@QAEKXZ       004447b0 f   Libs Engine:DString.obj
 0001:000437d0       ??BDString@@QAEPADXZ       004447d0 f   Libs Engine:DString.obj
 0001:000437e0       ?GetPtr@DString@@QAEPADXZ  004447e0 f   Libs Engine:DString.obj
 0001:000437f0       ??0DObj@@QAE@PAVDObc@@@Z   004447f0 f   Libs Engine:DObj.obj
 0001:00043900       ?Alloc@DObj@@QAEXPAVDObc@@@Z 00444900 f   Libs Engine:DObj.obj
 0001:00043a90       ?Erase@DObj@@QAEXXZ        00444a90 f   Libs Engine:DObj.obj
 0001:00043f60       ??1DObj@@QAE@XZ            00444f60 f   Libs Engine:DObj.obj
 0001:00044120       ?IncRef@DObj@@QAEXXZ       00445120 f   Libs Engine:DObj.obj
 0001:00044130       ?DecRef@DObj@@QAEXXZ       00445130 f   Libs Engine:DObj.obj
 0001:00044140       ?CountRef@DObj@@QAEKXZ     00445140 f   Libs Engine:DObj.obj
 0001:00044150       ?SetContext@DObj@@QAEXPAVDObc@@PAUDVar@@@Z 00445150 f   Libs Engine:DObj.obj
 0001:000441d0       ?UnSetContext@DObj@@QAEXXZ 004451d0 f   Libs Engine:DObj.obj
 0001:00044210       ?GetObc@DObj@@QAEPAVDObc@@XZ 00445210 f   Libs Engine:DObj.obj
 0001:00044220       ?GetCurrentObc@DObj@@QAEPAVDObc@@XZ 00445220 f   Libs Engine:DObj.obj
 0001:00044230       ?GetTabIdentFuncSon@DObj@@QAEPAUDIdentFunc@@XZ 00445230 f   Libs Engine:DObj.obj
 0001:00044240       ?GetCurrentTabVar@DObj@@QAEPAUDVar@@XZ 00445240 f   Libs Engine:DObj.obj
 0001:00044250       ?GetTabVar@DObj@@QAEPAUDVar@@XZ 00445250 f   Libs Engine:DObj.obj
 0001:00044260       ?GetFuncByIndex@DObj@@QAEKK@Z 00445260 f   Libs Engine:DObj.obj
 0001:00044280       ?GetVarCurrentByIndex@DObj@@QAEPAUDVar@@K@Z 00445280 f   Libs Engine:DObj.obj
 0001:00044340       ?GetVarByIndex@DObj@@QAEPAUDVar@@K@Z 00445340 f   Libs Engine:DObj.obj
 0001:00044400       ?GetFuncByTabIdent@DObj@@QAEPAUDIdentFunc@@PAU2@K@Z 00445400 f   Libs Engine:DObj.obj
 0001:000444f0       ?GetNameFuncByTabIdent@DObj@@QAEPBDPAUDIdentFunc@@K@Z 004454f0 f   Libs Engine:DObj.obj
 0001:00044510       ?GetVarByTabIdentObj@DObj@@QAEPAUDVar@@PAKK@Z 00445510 f   Libs Engine:DObj.obj
 0001:00044670       ?GetNameVarByTabIdentObj@DObj@@QAEPBDPAKK@Z 00445670 f   Libs Engine:DObj.obj
 0001:00044690       ?GetFuncDadByIndex@DObj@@QAEPAUDIdentFunc@@KK@Z 00445690 f   Libs Engine:DObj.obj
 0001:00044710       ?GetNameFuncDadByIndex@DObj@@QAEPBDKK@Z 00445710 f   Libs Engine:DObj.obj
 0001:00044740       ?GetFuncSonByIndex@DObj@@QAEPAUDIdentFunc@@K@Z 00445740 f   Libs Engine:DObj.obj
 0001:00044880       ?GetNameFuncSonByIndex@DObj@@QAEPBDK@Z 00445880 f   Libs Engine:DObj.obj
 0001:000448b0       ?GetVarDadByIndex@DObj@@QAEPAUDVar@@K@Z 004458b0 f   Libs Engine:DObj.obj
 0001:00044920       ?GetTabIdentVarObj@DObj@@QAEPAKK@Z 00445920 f   Libs Engine:DObj.obj
 0001:00044980       ?GetTabIdentFuncObj@DObj@@QAEPAUDIdentFunc@@K@Z 00445980 f   Libs Engine:DObj.obj
 0001:000449e0       ?ErrorObjNull@DObj@@AAEXXZ 004459e0 f   Libs Engine:DObj.obj
 0001:00044a20       ?IncStackRef@DObj@@QAEXXZ  00445a20 f   Libs Engine:DObj.obj
 0001:00044a30       ?DecStackRef@DObj@@QAEXXZ  00445a30 f   Libs Engine:DObj.obj
 0001:00044a40       ?GetStackRef@DObj@@QAEGXZ  00445a40 f   Libs Engine:DObj.obj
 0001:00044a50       ?AddHandler@DObj@@QAEXPAUDContextEngine@@@Z 00445a50 f   Libs Engine:DObj.obj
 0001:00044a90       ?RemoveHandler@DObj@@QAEXPAUDContextEngine@@@Z 00445a90 f   Libs Engine:DObj.obj
 0001:00044af0       ?SetAllHandlerToNULL@DObj@@QAEXXZ 00445af0 f   Libs Engine:DObj.obj
 0001:00044b10       ??1?$vector@PAVDObc@@V?$__default_alloc_template@$00$0A@@@@@QAE@XZ 00445b10 f i Libs Engine:DObj.obj
 0001:00044c70       ??1?$vector@PAUDVar@@V?$__default_alloc_template@$00$0A@@@@@QAE@XZ 00445c70 f i Libs Engine:DObj.obj
 0001:00044dd0       ??E?$_List_iterator@PAUDContextEngine@@AAPAU1@PAPAU1@@@QAE?AU0@H@Z 00445dd0 f i Libs Engine:DObj.obj
 0001:00044de0       ?_M_insert_aux@?$vector@PAVDObc@@V?$__default_alloc_template@$00$0A@@@@@IAEXPAPAVDObc@@ABQAV2@@Z 00445de0 f i Libs Engine:DObj.obj
 0001:000450a0       ?_M_insert_aux@?$vector@PAUDVar@@V?$__default_alloc_template@$00$0A@@@@@IAEXPAPAUDVar@@ABQAU2@@Z 004460a0 f i Libs Engine:DObj.obj
 0001:00045360       ?__uninitialized_copy_aux@@YAPAPAVDObc@@PAPAV1@00U__false_type@@@Z 00446360 f i Libs Engine:DObj.obj
 0001:00045390       ?__uninitialized_copy_aux@@YAPAPAUDVar@@PAPAU1@00U__false_type@@@Z 00446390 f i Libs Engine:DObj.obj
 0001:000453c0       ??0DObc@@QAE@PBD@Z         004463c0 f   Libs Engine:DObc.obj
 0001:00045500       ??1?$Dico@K@@QAE@XZ        00446500 f i Libs Engine:DObc.obj
 0001:00045690       ??1DObc@@QAE@XZ            00446690 f   Libs Engine:DObc.obj
 0001:000458c0       ?GetClean@DObc@@QAE_NXZ    004468c0 f   Libs Engine:DObc.obj
 0001:000458d0       ?GetFather@DObc@@QAEPAV1@XZ 004468d0 f   Libs Engine:DObc.obj
 0001:000458e0       ?GetPtrFile@DObc@@QAEKXZ   004468e0 f   Libs Engine:DObc.obj
 0001:000458f0       ?GetNbParent@DObc@@QAEKXZ  004468f0 f   Libs Engine:DObc.obj
 0001:00045900       ?LoadFileObc@DObc@@AAE_NPBD@Z 00446900 f   Libs Engine:DObc.obj
 0001:00045d70       ?IncRef@DObc@@QAEXXZ       00446d70 f   Libs Engine:DObc.obj
 0001:00045d80       ?DecRef@DObc@@QAEXXZ       00446d80 f   Libs Engine:DObc.obj
 0001:00045d90       ?CountRef@DObc@@QAEKXZ     00446d90 f   Libs Engine:DObc.obj
 0001:00045da0       ?GetName@DObc@@QAEPADXZ    00446da0 f   Libs Engine:DObc.obj
 0001:00045db0       ?GetVarByName@DObc@@QAEKPBD@Z 00446db0 f   Libs Engine:DObc.obj
 0001:00045f10       ?GetVarDadByIndex@DObc@@QAEKPAVDObj@@K@Z 00446f10 f   Libs Engine:DObc.obj
 0001:00045f80       ?GetVarIndexCurrentByName@DObc@@QAEPAUDVar@@PAVDObj@@PBDAAK@Z 00446f80 f   Libs Engine:DObc.obj
 0001:00046170       ?GetVarIndexAbsoluteByName@DObc@@QAEPAUDVar@@PAVDObj@@PBDAAK@Z 00447170 f   Libs Engine:DObc.obj
 0001:00046320       ?GetFuncByName@DObc@@QAEKPBD@Z 00447320 f   Libs Engine:DObc.obj
 0001:00046480       ?GetFuncByIndex@DObc@@QAEKK@Z 00447480 f   Libs Engine:DObc.obj
 0001:000465e0       ?GetFuncIdentByName@DObc@@QAE_NPAUDIdentFunc@@PBD_N@Z 004475e0 f   Libs Engine:DObc.obj
 0001:00046890       ?GetFuncDadIdentByName@DObc@@QAE_NPAUDIdentFunc@@PBDK@Z 00447890 f   Libs Engine:DObc.obj
 0001:00046b80       ?GetFuncIdentByNameWithObc@DObc@@QAE_NPAUDIdentFunc@@PBDPAV1@@Z 00447b80 f   Libs Engine:DObc.obj
 0001:00046e10       ?InitTabVar@DObc@@QAEPAEPAV1@PAUDVar@@PAEAAK3@Z 00447e10 f   Libs Engine:DObc.obj
 0001:00047690       ?GetNbTotalVar@DObc@@QAEKXZ 00448690 f   Libs Engine:DObc.obj
 0001:000476b0       ?GetTotalSizeVar@DObc@@QAEKXZ 004486b0 f   Libs Engine:DObc.obj
 0001:000476d0       ?GetNbVar@DObc@@QAEKXZ     004486d0 f   Libs Engine:DObc.obj
 0001:000477e0       ?GetSizeVar@DObc@@QAEKXZ   004487e0 f   Libs Engine:DObc.obj
 0001:00047840       ?GetNbFuncSon@DObc@@QAEKXZ 00448840 f   Libs Engine:DObc.obj
 0001:00047910       ?GetNbFuncDad@DObc@@QAEKXZ 00448910 f   Libs Engine:DObc.obj
 0001:000479e0       ?GetNbTotalFuncSon@DObc@@QAEKXZ 004489e0 f   Libs Engine:DObc.obj
 0001:00047a00       ?GetNbTotalFuncDad@DObc@@QAEKXZ 00448a00 f   Libs Engine:DObc.obj
 0001:00047a20       ?GetIndexFuncSon@DObc@@QAEKPAV1@@Z 00448a20 f   Libs Engine:DObc.obj
 0001:00047a50       ?GetIndexFuncDad@DObc@@QAEKPAV1@@Z 00448a50 f   Libs Engine:DObc.obj
 0001:00047a80       ?GetSectionFunction@DObc@@AAEKXZ 00448a80 f   Libs Engine:DObc.obj
 0001:00047b10       ?GetSectionVarMember@DObc@@AAEKXZ 00448b10 f   Libs Engine:DObc.obj
 0001:00047ba0       ?GetSectionVar@DObc@@AAEKXZ 00448ba0 f   Libs Engine:DObc.obj
 0001:00047c30       ?GetSectionDadVar@DObc@@AAEKXZ 00448c30 f   Libs Engine:DObc.obj
 0001:00047cc0       ?GetSectionDadFunction@DObc@@AAEKXZ 00448cc0 f   Libs Engine:DObc.obj
 0001:00047d50       ?GetSectionSonFunction@DObc@@AAEKXZ 00448d50 f   Libs Engine:DObc.obj
 0001:00047de0       ?GetNameVarDad@DObc@@AAEPBDK@Z 00448de0 f   Libs Engine:DObc.obj
 0001:00047eb0       ?GetNameFuncDad@DObc@@QAEPBDK@Z 00448eb0 f   Libs Engine:DObc.obj
 0001:00047f80       ?GetNameFuncSon@DObc@@QAEPBDK@Z 00448f80 f   Libs Engine:DObc.obj
 0001:00048050       ?GetTabIdentVarMemberObj@DObc@@QAEXPBDPAPAKPAPAUDIdentFunc@@@Z 00449050 f   Libs Engine:DObc.obj
 0001:00048270       ?GetTabIdentVarObj@DObc@@QAEPAKK@Z 00449270 f   Libs Engine:DObc.obj
 0001:00048400       ?GetTabIdentFuncObj@DObc@@QAEPAUDIdentFunc@@K@Z 00449400 f   Libs Engine:DObc.obj
 0001:000485b0       ?GetIndexFuncOnNew@DObc@@QAEKXZ 004495b0 f   Libs Engine:DObc.obj
 0001:00048620       ?GetIndexFuncOnDelete@DObc@@QAEKXZ 00449620 f   Libs Engine:DObc.obj
 0001:00048690       ?GetNameFunc@DObc@@QAEPBDK@Z 00449690 f   Libs Engine:DObc.obj
 0001:00048810       ?GetInfos@DObc@@AAEXPAVostream@@@Z 00449810 f   Libs Engine:DObc.obj
 0001:00048ad0       ??A?$map@PBDKUeqstr@@V?$__default_alloc_template@$00$0A@@@@@QAEAAKABQBD@Z 00449ad0 f i Libs Engine:DObc.obj
 0001:00048b70       ?insert@?$map@PBDKUeqstr@@V?$__default_alloc_template@$00$0A@@@@@QAE?AU?$_Rb_tree_iterator@U?$pair@QBDK@@AAU1@PAU1@@@U2@ABU?$pair@QBDK@@@Z 00449b70 f i Libs Engine:DObc.obj
 0001:00048ba0       ??1?$_Rb_tree_base@U?$pair@QBDK@@V?$__default_alloc_template@$00$0A@@@@@QAE@XZ 00449ba0 f i Libs Engine:DObc.obj
 0001:00048bb0       ??0?$_Rb_tree_iterator@U?$pair@QBDK@@AAU1@PAU1@@@QAE@ABU0@@Z 00449bb0 f i Libs Engine:DObc.obj
 0001:00048bc0       ??0?$pair@QBDK@@QAE@ABQBDABK@Z 00449bc0 f i Libs Engine:DObc.obj
 0001:00048be0       ?_M_erase@?$_Rb_tree@PBDU?$pair@QBDK@@U?$_Select1st@U?$pair@QBDK@@@@Ueqstr@@V?$__default_alloc_template@$00$0A@@@@@AAEXPAU?$_Rb_tree_node@U?$pair@QBDK@@@@@Z 00449be0 f i Libs Engine:DObc.obj
 0001:00048c20       ?insert_unique@?$_Rb_tree@PBDU?$pair@QBDK@@U?$_Select1st@U?$pair@QBDK@@@@Ueqstr@@V?$__default_alloc_template@$00$0A@@@@@QAE?AU?$_Rb_tree_iterator@U?$pair@QBDK@@AAU1@PAU1@@@U2@ABU?$pair@QBDK@@@Z 00449c20 f i Libs Engine:DObc.obj
 0001:00049090       ?find@?$_Rb_tree@PBDU?$pair@QBDK@@U?$_Select1st@U?$pair@QBDK@@@@Ueqstr@@V?$__default_alloc_template@$00$0A@@@@@QAE?AU?$_Rb_tree_iterator@U?$pair@QBDK@@AAU1@PAU1@@@ABQBD@Z 0044a090 f i Libs Engine:DObc.obj
 0001:00049160       ?lower_bound@?$_Rb_tree@PBDU?$pair@QBDK@@U?$_Select1st@U?$pair@QBDK@@@@Ueqstr@@V?$__default_alloc_template@$00$0A@@@@@QAE?AU?$_Rb_tree_iterator@U?$pair@QBDK@@AAU1@PAU1@@@ABQBD@Z 0044a160 f i Libs Engine:DObc.obj
 0001:000491d0       ?_M_insert@?$_Rb_tree@PBDU?$pair@QBDK@@U?$_Select1st@U?$pair@QBDK@@@@Ueqstr@@V?$__default_alloc_template@$00$0A@@@@@AAE?AU?$_Rb_tree_iterator@U?$pair@QBDK@@AAU1@PAU1@@@PAU_Rb_tree_node_base@@0ABU?$pair@QBDK@@@Z 0044a1d0 f i Libs Engine:DObc.obj
 0001:00049390       ?insert_unique@?$_Rb_tree@PBDU?$pair@QBDK@@U?$_Select1st@U?$pair@QBDK@@@@Ueqstr@@V?$__default_alloc_template@$00$0A@@@@@QAE?AU?$pair@U?$_Rb_tree_iterator@U?$pair@QBDK@@AAU1@PAU1@@@_N@@ABU?$pair@QBDK@@@Z 0044a390 f i Libs Engine:DObc.obj
 0001:000495a0       ??0?$pair@U?$_Rb_tree_iterator@U?$pair@QBDK@@AAU1@PAU1@@@_N@@QAE@ABU0@@Z 0044a5a0 f i Libs Engine:DObc.obj
 0001:000495c0       ?_M_create_node@?$_Rb_tree@PBDU?$pair@QBDK@@U?$_Select1st@U?$pair@QBDK@@@@Ueqstr@@V?$__default_alloc_template@$00$0A@@@@@IAEPAU?$_Rb_tree_node@U?$pair@QBDK@@@@ABU?$pair@QBDK@@@Z 0044a5c0 f i Libs Engine:DObc.obj
 0001:00049680       ?begin@?$_Rb_tree@PBDU?$pair@QBDK@@U?$_Select1st@U?$pair@QBDK@@@@Ueqstr@@V?$__default_alloc_template@$00$0A@@@@@QAE?AU?$_Rb_tree_iterator@U?$pair@QBDK@@AAU1@PAU1@@@XZ 0044a680 f i Libs Engine:DObc.obj
 0001:00049690       ??0?$pair@U?$_Rb_tree_iterator@U?$pair@QBDK@@AAU1@PAU1@@@_N@@QAE@ABU?$_Rb_tree_iterator@U?$pair@QBDK@@AAU1@PAU1@@@AB_N@Z 0044a690 f i Libs Engine:DObc.obj
 0001:000496b0       ??0DPCode@@QAE@XZ          0044a6b0 f   Libs Engine:DPCode.obj
 0001:000496c0       ??0DPCode@@QAE@K@Z         0044a6c0 f   Libs Engine:DPCode.obj
 0001:000496e0       ??0DPCode@@QAE@KK@Z        0044a6e0 f   Libs Engine:DPCode.obj
 0001:00049700       ??1DPCode@@QAE@XZ          0044a700 f   Libs Engine:DPCode.obj
 0001:00049710       ?SetPtr@DPCode@@QAEXK@Z    0044a710 f   Libs Engine:DPCode.obj
 0001:00049720       ?SetPtrPSTRING@DPCode@@QAEXK@Z 0044a720 f   Libs Engine:DPCode.obj
 0001:00049730       ?AddPtr@DPCode@@QAEXJ@Z    0044a730 f   Libs Engine:DPCode.obj
 0001:00049740       ?GetPtr@DPCode@@QAEKXZ     0044a740 f   Libs Engine:DPCode.obj
 0001:00049750       ?ReadUBYTE@DPCode@@QAEJXZ  0044a750 f   Libs Engine:DPCode.obj
 0001:00049760       ?ReadBYTE@DPCode@@QAEJXZ   0044a760 f   Libs Engine:DPCode.obj
 0001:00049770       ?ReadUWORD@DPCode@@QAEJXZ  0044a770 f   Libs Engine:DPCode.obj
 0001:00049780       ?ReadWORD@DPCode@@QAEJXZ   0044a780 f   Libs Engine:DPCode.obj
 0001:00049790       ?ReadLONG@DPCode@@QAEJXZ   0044a790 f   Libs Engine:DPCode.obj
 0001:000497a0       ?ReadULONG@DPCode@@QAEKXZ  0044a7a0 f   Libs Engine:DPCode.obj
 0001:000497b0       ?ReadREAL@DPCode@@QAENXZ   0044a7b0 f   Libs Engine:DPCode.obj
 0001:000497c0       ?ReadSTRING@DPCode@@QAEPBDXZ 0044a7c0 f   Libs Engine:DPCode.obj
 0001:000497e0       ?ReadPSTRING@DPCode@@QAEPBDXZ 0044a7e0 f   Libs Engine:DPCode.obj
 0001:00049800       ?Save@DPCode@@QAEXXZ       0044a800 f   Libs Engine:DPCode.obj
 0001:00049810       ?Load@DPCode@@QAEXXZ       0044a810 f   Libs Engine:DPCode.obj
 0001:00049820       ?GetByte@DVar@@QAECJ@Z     0044a820 f   Libs Engine:DVar.obj
 0001:000498f0       ?GetWord@DVar@@QAEFJ@Z     0044a8f0 f   Libs Engine:DVar.obj
 0001:000499c0       ?SetTabIdentVarToNull@DVar@@QAEXPAK@Z 0044a9c0 f   Libs Engine:DVar.obj
 0001:000499e0       ?SetTabIdentFuncToNull@DVar@@QAEXPAUDIdentFunc@@@Z 0044a9e0 f   Libs Engine:DVar.obj
 0001:00049a20       ?SetTabIdentObjToNull@DVar@@QAEXXZ 0044aa20 f   Libs Engine:DVar.obj
 0001:00049c80       ?FreeTabIdentVarObj@DVar@@QAEXPAK@Z 0044ac80 f   Libs Engine:DVar.obj
 0001:00049ca0       ?FreeTabIdentFuncObj@DVar@@QAEXPAUDIdentFunc@@@Z 0044aca0 f   Libs Engine:DVar.obj
 0001:00049cc0       ?FreeTabIdentVarObjMember@DVar@@QAEXPAPAK@Z 0044acc0 f   Libs Engine:DVar.obj
 0001:00049d00       ?FreeTabIdentFuncObjMember@DVar@@QAEXPAPAUDIdentFunc@@@Z 0044ad00 f   Libs Engine:DVar.obj
 0001:00049d40       ?GetTabIdentVarObj@DVar@@QAEPAKXZ 0044ad40 f   Libs Engine:DVar.obj
 0001:00049db0       ?SetTabIdentVarObj@DVar@@QAEXPAK@Z 0044adb0 f   Libs Engine:DVar.obj
 0001:00049e50       ?SetTabIdentFuncObj@DVar@@QAEXPAUDIdentFunc@@@Z 0044ae50 f   Libs Engine:DVar.obj
 0001:00049ef0       ?GetTabIdentFuncObj@DVar@@QAEPAUDIdentFunc@@XZ 0044aef0 f   Libs Engine:DVar.obj
 0001:00049f60       ?DeleteArrayObj@DVar@@QAEXPAX@Z 0044af60 f   Libs Engine:DVar.obj
 0001:0004a150       ?DeleteArrayIdent@DVar@@QAEXPAX@Z 0044b150 f   Libs Engine:DVar.obj
 0001:0004a290       ?DeleteArrayString@DVar@@QAEXPAX@Z 0044b290 f   Libs Engine:DVar.obj
 0001:0004a2d0       ?SetValue@DVar@@QAEXPAU1@@Z 0044b2d0 f   Libs Engine:DVar.obj
 0001:0004a7a0       ?SetValue@DVar@@QAEXJ@Z    0044b7a0 f   Libs Engine:DVar.obj
 0001:0004ac70       ?SetValue@DVar@@QAEXN@Z    0044bc70 f   Libs Engine:DVar.obj
 0001:0004af10       ?SetValue@DVar@@QAEXPBD@Z  0044bf10 f   Libs Engine:DVar.obj
 0001:0004b220       ?SetValue@DVar@@QAEXPAVDObj@@@Z 0044c220 f   Libs Engine:DVar.obj
 0001:0004b440       ?SetValue@DVar@@QAEXPAVDIdent@@@Z 0044c440 f   Libs Engine:DVar.obj
 0001:0004b650       ?SetValueTab@DVar@@QAEXKJ@Z 0044c650 f   Libs Engine:DVar.obj
 0001:0004bbd0       ?GetValueINTEGER@DVar@@QAEJXZ 0044cbd0 f   Libs Engine:DVar.obj
 0001:0004bdd0       ?GetValueREAL@DVar@@QAENXZ 0044cdd0 f   Libs Engine:DVar.obj
 0001:0004bfb0       ?GetValueArray1REAL@DVar@@QAEPANAAH@Z 0044cfb0 f   Libs Engine:DVar.obj
 0001:0004c0e0       ?GetValueIDENT@DVar@@QAEPAVDIdent@@XZ 0044d0e0 f   Libs Engine:DVar.obj
 0001:0004c2c0       ?GetValueOBJ@DVar@@QAEPAVDObj@@XZ 0044d2c0 f   Libs Engine:DVar.obj
 0001:0004c4a0       ?GetValueSTRING@DVar@@QAEPAVDString@@XZ 0044d4a0 f   Libs Engine:DVar.obj
 0001:0004c680       ?GetValueTabINTEGER@DVar@@QAEJK@Z 0044d680 f   Libs Engine:DVar.obj
 0001:0004cb40       ?GetSize@DVar@@QAEKXZ      0044db40 f   Libs Engine:DVar.obj
 0001:0004cbb0       ?GetNbElts@DVar@@QAEKXZ    0044dbb0 f   Libs Engine:DVar.obj
 0001:0004cc20       ?SetDim@DVar@@QAEXKKKK@Z   0044dc20 f   Libs Engine:DVar.obj
 0001:0004ceb0       ?IsNoNull@DVar@@QAE_NXZ    0044deb0 f   Libs Engine:DVar.obj
 0001:0004d120       ?IsPositive@DVar@@QAE_NXZ  0044e120 f   Libs Engine:DVar.obj
 0001:0004d430       ?IsNegative@DVar@@QAE_NXZ  0044e430 f   Libs Engine:DVar.obj
 0001:0004d740       ??HDVar@@QAEXAAU0@@Z       0044e740 f   Libs Engine:DVar.obj
 0001:0004dcf0       ??GDVar@@QAEXAAU0@@Z       0044ecf0 f   Libs Engine:DVar.obj
 0001:0004e0e0       ??DDVar@@QAEXAAU0@@Z       0044f0e0 f   Libs Engine:DVar.obj
 0001:0004e4e0       ??KDVar@@QAEXAAU0@@Z       0044f4e0 f   Libs Engine:DVar.obj
 0001:0004e8f0       ??8DVar@@QAEXAAU0@@Z       0044f8f0 f   Libs Engine:DVar.obj
 0001:0004ef90       ??9DVar@@QAEXAAU0@@Z       0044ff90 f   Libs Engine:DVar.obj
 0001:0004f610       ??ODVar@@QAEXAAU0@@Z       00450610 f   Libs Engine:DVar.obj
 0001:0004fa90       ??PDVar@@QAEXAAU0@@Z       00450a90 f   Libs Engine:DVar.obj
 0001:0004ff40       ??MDVar@@QAEXAAU0@@Z       00450f40 f   Libs Engine:DVar.obj
 0001:000503e0       ??NDVar@@QAEXAAU0@@Z       004513e0 f   Libs Engine:DVar.obj
 0001:00050860       ??VDVar@@QAEXAAU0@@Z       00451860 f   Libs Engine:DVar.obj
 0001:000508b0       ??WDVar@@QAEXAAU0@@Z       004518b0 f   Libs Engine:DVar.obj
 0001:00050900       ?XOR@DVar@@QAEXAAU1@@Z     00451900 f   Libs Engine:DVar.obj
 0001:00050950       ??TDVar@@QAEXAAU0@@Z       00451950 f   Libs Engine:DVar.obj
 0001:00050d50       ?IsEqualObjTo@DVar@@QAE_NPAU1@@Z 00451d50 f   Libs Engine:DVar.obj
 0001:00051160       ?IsEqualStringTo@DVar@@QAE_NPAU1@@Z 00452160 f   Libs Engine:DVar.obj
 0001:000515b0       ?DisplayErrorVarType@DVar@@QAEXPAU1@0@Z 004525b0 f   Libs Engine:DVar.obj
 0001:000516d0       ?DisplayErrorVarIncorrect@DVar@@QAEXPAU1@@Z 004526d0 f   Libs Engine:DVar.obj
 0001:000517c0       ?DisplayErrorReadOnly@DVar@@QAEXXZ 004527c0 f   Libs Engine:DVar.obj
 0001:00051870       ?DisplayErrorArrayIncorrect@DVar@@QAEXPAU1@@Z 00452870 f   Libs Engine:DVar.obj
 0001:00051960       ?DisplayErrorInvalidDimArray@DVar@@QAEXPAU1@@Z 00452960 f   Libs Engine:DVar.obj
 0001:00051a50       ?DisplayErrorDivideByZero@DVar@@QAEXXZ 00452a50 f   Libs Engine:DVar.obj
 0001:00051b00       ?DisplayErrorInvalidIndexArray@DVar@@QAEXPAU1@K@Z 00452b00 f   Libs Engine:DVar.obj
 0001:00051c00       ?GetNameType@DVar@@QAEPADPADK@Z 00452c00 f   Libs Engine:DVar.obj
 0001:00051de0       ?GetNameMaskType@DVar@@QAEPADPADKK@Z 00452de0 f   Libs Engine:DVar.obj
 0001:00051ea0       ?GetPtrFirstElem@DVar@@QAEPAXXZ 00452ea0 f   Libs Engine:DVar.obj
 0001:00051ef0       ?FormatLocalVariable@DVar@@QAEPADPAD@Z 00452ef0 f   Libs Engine:DVar.obj
 0001:00051f50       ?IsINTEGER@DVar@@QAE_NXZ   00452f50 f i Libs Engine:DVar.obj
 0001:00051f80       ??0DWatch@@QAE@PBDPAUDVar@@@Z 00452f80 f   Libs Engine:DWatch.obj
 0001:00051fa0       ??0DWatch@@QAE@PAV0@@Z     00452fa0 f   Libs Engine:DWatch.obj
 0001:00051fc0       ??1DWatch@@QAE@XZ          00452fc0 f   Libs Engine:DWatch.obj
 0001:00051fd0       ?GetName@DWatch@@QAEPBDXZ  00452fd0 f   Libs Engine:DWatch.obj
 0001:00051fe0       ?GetVar@DWatch@@QAEPAUDVar@@XZ 00452fe0 f   Libs Engine:DWatch.obj
 0001:00051ff0       ??0DStack@@QAE@XZ          00452ff0 f   Libs Engine:DStack.obj
 0001:00052110       ??1DStack@@QAE@XZ          00453110 f   Libs Engine:DStack.obj
 0001:00052330       ?Allocate@DStack@@QAEXXZ   00453330 f   Libs Engine:DStack.obj
 0001:000523d0       ?DisAllocate@DStack@@QAEXXZ 004533d0 f   Libs Engine:DStack.obj
 0001:00052400       ?GetNextElement@DStack@@AAEPAUDStackElement@@XZ 00453400 f   Libs Engine:DStack.obj
 0001:00052450       ?PushVOID@DStack@@QAEXXZ   00453450 f   Libs Engine:DStack.obj
 0001:000524c0       ?PushReadWriteBYTE@DStack@@QAEXJ@Z 004534c0 f   Libs Engine:DStack.obj
 0001:00052540       ?PushReadOnlyBYTE@DStack@@QAEXJ@Z 00453540 f   Libs Engine:DStack.obj
 0001:000525d0       ?PushBYTE@DStack@@AAEPAUDVar@@J@Z 004535d0 f   Libs Engine:DStack.obj
 0001:00052660       ?PushARRAYBYTE@DStack@@QAEXKKKK@Z 00453660 f   Libs Engine:DStack.obj
 0001:00052850       ?PushReadWriteWORD@DStack@@QAEXJ@Z 00453850 f   Libs Engine:DStack.obj
 0001:000528e0       ?PushReadOnlyWORD@DStack@@QAEXJ@Z 004538e0 f   Libs Engine:DStack.obj
 0001:00052970       ?PushWORD@DStack@@AAEPAUDVar@@J@Z 00453970 f   Libs Engine:DStack.obj
 0001:00052a00       ?PushARRAYWORD@DStack@@QAEXKKKK@Z 00453a00 f   Libs Engine:DStack.obj
 0001:00052c00       ?PushReadWriteLONG@DStack@@QAEXJ@Z 00453c00 f   Libs Engine:DStack.obj
 0001:00052c90       ?PushReadOnlyLONG@DStack@@QAEXJ@Z 00453c90 f   Libs Engine:DStack.obj
 0001:00052d20       ?PushLONG@DStack@@AAEPAUDVar@@J@Z 00453d20 f   Libs Engine:DStack.obj
 0001:00052db0       ?PushARRAYLONG@DStack@@QAEXKKKK@Z 00453db0 f   Libs Engine:DStack.obj
 0001:00052fb0       ?PushReadWriteREAL@DStack@@QAEXN@Z 00453fb0 f   Libs Engine:DStack.obj
 0001:00053040       ?PushReadOnlyREAL@DStack@@QAEXN@Z 00454040 f   Libs Engine:DStack.obj
 0001:000530e0       ?PushREAL@DStack@@AAEPAUDVar@@N@Z 004540e0 f   Libs Engine:DStack.obj
 0001:00053180       ?PushARRAYREAL@DStack@@QAEXKKKK@Z 00454180 f   Libs Engine:DStack.obj
 0001:00053380       ?PushReadWriteSTRING@DStack@@QAEXPBD@Z 00454380 f   Libs Engine:DStack.obj
 0001:00053390       ?PushReadOnlySTRING@DStack@@QAEXPBD@Z 00454390 f   Libs Engine:DStack.obj
 0001:000533b0       ?PushSTRING@DStack@@AAEPAUDVar@@PBD@Z 004543b0 f   Libs Engine:DStack.obj
 0001:00053500       ?PushARRAYSTRING@DStack@@QAEXKKKK@Z 00454500 f   Libs Engine:DStack.obj
 0001:00053700       ?PushReadWriteIDENT@DStack@@QAEXPAVDIdent@@@Z 00454700 f   Libs Engine:DStack.obj
 0001:00053790       ?PushReadOnlyIDENT@DStack@@QAEXPAVDIdent@@@Z 00454790 f   Libs Engine:DStack.obj
 0001:00053830       ?PushIDENT@DStack@@AAEPAUDVar@@PAVDIdent@@@Z 00454830 f   Libs Engine:DStack.obj
 0001:000538d0       ?PushARRAYIDENT@DStack@@QAEXKKKK@Z 004548d0 f   Libs Engine:DStack.obj
 0001:00053ad0       ?PushReadWriteOBJ@DStack@@QAEXPAVDObj@@PAKPAUDIdentFunc@@@Z 00454ad0 f   Libs Engine:DStack.obj
 0001:00053af0       ?PushReadOnlyOBJ@DStack@@QAEXPAVDObj@@PAKPAUDIdentFunc@@@Z 00454af0 f   Libs Engine:DStack.obj
 0001:00053b10       ?PushOBJ@DStack@@AAEPAUDVar@@PAVDObj@@PAKPAUDIdentFunc@@@Z 00454b10 f   Libs Engine:DStack.obj
 0001:00053bd0       ?PushARRAYOBJ@DStack@@QAEXPAKPAUDIdentFunc@@KKKK@Z 00454bd0 f   Libs Engine:DStack.obj
 0001:00053de0       ?Push@DStack@@AAEPAUDVar@@PAU2@@Z 00454de0 f   Libs Engine:DStack.obj
 0001:00053e70       ?PushReadOnly@DStack@@QAEXPAUDVar@@@Z 00454e70 f   Libs Engine:DStack.obj
 0001:00053f00       ?PushReadWrite@DStack@@QAEXPAUDVar@@@Z 00454f00 f   Libs Engine:DStack.obj
 0001:00053f90       ?PushReadWriteARRAYELT@DStack@@QAEXXZ 00454f90 f   Libs Engine:DStack.obj
 0001:00053fa0       ?PushReadOnlyARRAYELT@DStack@@QAEXXZ 00454fa0 f   Libs Engine:DStack.obj
 0001:00053fb0       ?PushARRAYELT@DStack@@AAEPAUDVar@@XZ 00454fb0 f   Libs Engine:DStack.obj
 0001:00054370       ?Pop@DStack@@QAEXK@Z       00455370 f   Libs Engine:DStack.obj
 0001:00054890       ?PopToIndex@DStack@@QAEXK@Z 00455890 f   Libs Engine:DStack.obj
 0001:000548e0       ?GetIndex@DStack@@QAEKXZ   004558e0 f   Libs Engine:DStack.obj
 0001:00054900       ?GetElement@DStack@@QAEPAUDVar@@KK@Z 00455900 f   Libs Engine:DStack.obj
 0001:00054a00       ?GetElement@DStack@@QAEPAUDVar@@K@Z 00455a00 f   Libs Engine:DStack.obj
 0001:00054a10       ?GetLast@DStack@@QAEPAUDVar@@K@Z 00455a10 f   Libs Engine:DStack.obj
 0001:00054a90       ?SetStackIndex@DStack@@QAEXK@Z 00455a90 f   Libs Engine:DStack.obj
 0001:00054b10       ?GetStackIndex@DStack@@QAEKXZ 00455b10 f   Libs Engine:DStack.obj
 0001:00054b20       ?GetRelativeIndex@DStack@@QAEJXZ 00455b20 f   Libs Engine:DStack.obj
 0001:00054b40       ?ThrowErrorInvalidDimArray@DStack@@AAEXXZ 00455b40 f   Libs Engine:DStack.obj
 0001:00054bb0       ?GetSize@DStack@@QAEKXZ    00455bb0 f   Libs Engine:DStack.obj
 0001:00054be0       ??1?$vector@PAUDStackElement@@V?$__default_alloc_template@$00$0A@@@@@QAE@XZ 00455be0 f i Libs Engine:DStack.obj
 0001:00054d40       ?_M_insert_aux@?$vector@PAUDStackElement@@V?$__default_alloc_template@$00$0A@@@@@IAEXPAPAUDStackElement@@ABQAU2@@Z 00455d40 f i Libs Engine:DStack.obj
 0001:00055000       ?__uninitialized_copy_aux@@YAPAPAUDStackElement@@PAPAU1@00U__false_type@@@Z 00456000 f i Libs Engine:DStack.obj
 0001:00055030       ??0DTrace@@QAE@KP6AXPBD0@Z@Z 00456030 f   Libs Engine:DTrace.obj
 0001:00055060       ??1DTrace@@QAE@XZ          00456060 f   Libs Engine:DTrace.obj
 0001:00055070       ?EraseStrWindow@DTrace@@AAEXXZ 00456070 f   Libs Engine:DTrace.obj
 0001:00055090       ?AddStrWindow@DTrace@@AAEXPBD@Z 00456090 f   Libs Engine:DTrace.obj
 0001:00055120       ?SetTrace@DTrace@@QAEXKP6AXPBD0@Z@Z 00456120 f   Libs Engine:DTrace.obj
 0001:00055130       ??6DTrace@@QAEXPBD@Z       00456130 f   Libs Engine:DTrace.obj
 0001:000551d0       ??6DTrace@@QAEXK@Z         004561d0 f   Libs Engine:DTrace.obj
 0001:000552b0       ??6DTrace@@QAEXJ@Z         004562b0 f   Libs Engine:DTrace.obj
 0001:00055390       ??6DTrace@@QAEXN@Z         00456390 f   Libs Engine:DTrace.obj
 0001:00055470       ??0DException@@QAE@KPBD@Z  00456470 f   Libs Engine:DException.obj
 0001:00055540       ??_EDException@@UAEPAXI@Z  00456540 f i Libs Engine:DException.obj
 0001:00055540       ??_GDException@@UAEPAXI@Z  00456540 f i Libs Engine:DException.obj
 0001:00055560       ??1DException@@UAE@XZ      00456560 f   Libs Engine:DException.obj
 0001:00055590       ?what@DException@@UBEPBDXZ 00456590 f   Libs Engine:DException.obj
 0001:000555a0       ?GetMsg@DException@@QAEPBDXZ 004565a0 f   Libs Engine:DException.obj
 0001:000555b0       ?GetNumber@DException@@QAEKXZ 004565b0 f   Libs Engine:DException.obj
 0001:000555c0       ??0DEngine@@QAE@XZ         004565c0 f   Libs Engine:DEngine.obj
 0001:000556f0       ??1DEngine@@QAE@XZ         004566f0 f   Libs Engine:DEngine.obj
 0001:00055950       ?GetStackVar@DEngine@@QAEPAVDStack@@XZ 00456950 f   Libs Engine:DEngine.obj
 0001:00055960       ?IsObcLoaded@DEngine@@QAE_NPBD@Z 00456960 f   Libs Engine:DEngine.obj
 0001:00055ad0       ?LoadObc@DEngine@@QAEPAVDObc@@PBD@Z 00456ad0 f   Libs Engine:DEngine.obj
 0001:00055d70       ?UnLoadObc@DEngine@@QAE_NPBD@Z 00456d70 f   Libs Engine:DEngine.obj
 0001:00055fa0       ?NewObj@DEngine@@QAEPAVDObj@@PBD@Z 00456fa0 f   Libs Engine:DEngine.obj
 0001:00056010       ?DeleteObj@DEngine@@QAEXPAVDObj@@_N@Z 00457010 f   Libs Engine:DEngine.obj
 0001:00056050       ?CallFunctionOnNew@DEngine@@QAE_NPAVDObc@@PAUDVar@@PAVDObj@@K@Z 00457050 f   Libs Engine:DEngine.obj
 0001:00056110       ?CallFunctionOnDelete@DEngine@@QAEXPAVDObc@@PAUDVar@@PAVDObj@@K@Z 00457110 f   Libs Engine:DEngine.obj
 0001:00056200       ?Run@DEngine@@QAEXPBD00@Z  00457200 f   Libs Engine:DEngine.obj
 0001:00056340       ?GetStackPointer@DEngine@@AAEKXZ 00457340 f   Libs Engine:DEngine.obj
 0001:00056360       ?CheckStack@DEngine@@AAEXXZ 00457360 f   Libs Engine:DEngine.obj
 0001:000563b0       ?CheckParams@DEngine@@AAEXXZ 004573b0 f   Libs Engine:DEngine.obj
 0001:00056eb0       ?SaveTabIdentParams@DEngine@@QAEXPAV?$vector@PAKV?$__default_alloc_template@$00$0A@@@@@PAV?$vector@PAUDIdentFunc@@V?$__default_alloc_template@$00$0A@@@@@@Z 00457eb0 f   Libs Engine:DEngine.obj
 0001:00057000       ?RestoreTabIdentParams@DEngine@@QAEXPAV?$vector@PAKV?$__default_alloc_template@$00$0A@@@@@PAV?$vector@PAUDIdentFunc@@V?$__default_alloc_template@$00$0A@@@@@@Z 00458000 f   Libs Engine:DEngine.obj
 0001:000571a0       ?LTracePCode@DEngine@@AAEXXZ 004581a0 f   Libs Engine:DEngine.obj
 0001:000571b0       ?CallFunction@DEngine@@QAEXPAVDObc@@PAUDVar@@PAVDObj@@PAVDPCode@@K@Z 004581b0 f   Libs Engine:DEngine.obj
 0001:00058e20       ?CallHandler@DEngine@@QAEJPAUDContextEngine@@J_N@Z 00459e20 f   Libs Engine:DEngine.obj
 0001:00058fa0       ?GetContextOf@DEngine@@QAE_NPBDAAUDContextEngine@@@Z 00459fa0 f   Libs Engine:DEngine.obj
 0001:000590b0       ?GetContextOfExternalObj@DEngine@@QAE_NPBDAAUDContextEngine@@PAVDObj@@@Z 0045a0b0 f   Libs Engine:DEngine.obj
 0001:000592b0       ?CleanContext@DEngine@@QAEXAAUDContextEngine@@@Z 0045a2b0 f   Libs Engine:DEngine.obj
 0001:000592f0       ?ErrorBox@DEngine@@QAEXPBD0K@Z 0045a2f0 f   Libs Engine:DEngine.obj
 0001:00059490       ?SaveContextPCode@DEngine@@QAEXPAVDPCode@@@Z 0045a490 f   Libs Engine:DEngine.obj
 0001:000594a0       ?RestoreContextPCode@DEngine@@QAEXXZ 0045a4a0 f   Libs Engine:DEngine.obj
 0001:000594d0       ?Debug@DEngine@@QAEXXZ     0045a4d0 f   Libs Engine:DEngine.obj
 0001:00059500       ??1?$vector@KV?$__default_alloc_template@$00$0A@@@@@QAE@XZ 0045a500 f i Libs Engine:DEngine.obj
 0001:00059650       ?erase@?$map@PBDPAVDObc@@Ueqstr@@V?$__default_alloc_template@$00$0A@@@@@QAEXU?$_Rb_tree_iterator@U?$pair@QBDPAVDObc@@@@AAU1@PAU1@@@@Z 0045a650 f i Libs Engine:DEngine.obj
 0001:00059670       ??0?$_Rb_tree_iterator@U?$pair@QBDPAVDObc@@@@AAU1@PAU1@@@QAE@ABU0@@Z 0045a670 f i Libs Engine:DEngine.obj
 0001:00059680       ?erase@?$vector@KV?$__default_alloc_template@$00$0A@@@@@QAEPAKPAK0@Z 0045a680 f i Libs Engine:DEngine.obj
 0001:000596d0       ?insert@?$map@PBDPAVDObc@@Ueqstr@@V?$__default_alloc_template@$00$0A@@@@@QAE?AU?$_Rb_tree_iterator@U?$pair@QBDPAVDObc@@@@AAU1@PAU1@@@U2@ABU?$pair@QBDPAVDObc@@@@@Z 0045a6d0 f i Libs Engine:DEngine.obj
 0001:00059700       ?clear@?$_Rb_tree@PBDU?$pair@QBDPAVDObc@@@@U?$_Select1st@U?$pair@QBDPAVDObc@@@@@@Ueqstr@@V?$__default_alloc_template@$00$0A@@@@@QAEXXZ 0045a700 f i Libs Engine:DEngine.obj
 0001:00059760       ??1?$_Rb_tree_base@U?$pair@QBDPAVDObc@@@@V?$__default_alloc_template@$00$0A@@@@@QAE@XZ 0045a760 f i Libs Engine:DEngine.obj
 0001:00059770       ?_M_insert_aux@?$vector@KV?$__default_alloc_template@$00$0A@@@@@IAEXPAKABK@Z 0045a770 f i Libs Engine:DEngine.obj
 0001:00059a00       ?_M_erase@?$_Rb_tree@PBDU?$pair@QBDPAVDObc@@@@U?$_Select1st@U?$pair@QBDPAVDObc@@@@@@Ueqstr@@V?$__default_alloc_template@$00$0A@@@@@AAEXPAU?$_Rb_tree_node@U?$pair@QBDPAVDObc@@@@@@@Z 0045aa00 f i Libs Engine:DEngine.obj
 0001:00059a40       ?insert_unique@?$_Rb_tree@PBDU?$pair@QBDPAVDObc@@@@U?$_Select1st@U?$pair@QBDPAVDObc@@@@@@Ueqstr@@V?$__default_alloc_template@$00$0A@@@@@QAE?AU?$_Rb_tree_iterator@U?$pair@QBDPAVDObc@@@@AAU1@PAU1@@@U2@ABU?$pair@QBDPAVDObc@@@@@Z 0045aa40 f i Libs Engine:DEngine.obj
 0001:00059eb0       ?begin@?$_Rb_tree@PBDU?$pair@QBDPAVDObc@@@@U?$_Select1st@U?$pair@QBDPAVDObc@@@@@@Ueqstr@@V?$__default_alloc_template@$00$0A@@@@@QAE?AU?$_Rb_tree_iterator@U?$pair@QBDPAVDObc@@@@AAU1@PAU1@@@XZ 0045aeb0 f i Libs Engine:DEngine.obj
 0001:00059ec0       ?erase@?$_Rb_tree@PBDU?$pair@QBDPAVDObc@@@@U?$_Select1st@U?$pair@QBDPAVDObc@@@@@@Ueqstr@@V?$__default_alloc_template@$00$0A@@@@@QAEXU?$_Rb_tree_iterator@U?$pair@QBDPAVDObc@@@@AAU1@PAU1@@@@Z 0045aec0 f i Libs Engine:DEngine.obj
 0001:00059ef0       ?find@?$_Rb_tree@PBDU?$pair@QBDPAVDObc@@@@U?$_Select1st@U?$pair@QBDPAVDObc@@@@@@Ueqstr@@V?$__default_alloc_template@$00$0A@@@@@QAE?AU?$_Rb_tree_iterator@U?$pair@QBDPAVDObc@@@@AAU1@PAU1@@@ABQBD@Z 0045aef0 f i Libs Engine:DEngine.obj
 0001:00059fc0       ?lower_bound@?$_Rb_tree@PBDU?$pair@QBDPAVDObc@@@@U?$_Select1st@U?$pair@QBDPAVDObc@@@@@@Ueqstr@@V?$__default_alloc_template@$00$0A@@@@@QAE?AU?$_Rb_tree_iterator@U?$pair@QBDPAVDObc@@@@AAU1@PAU1@@@ABQBD@Z 0045afc0 f i Libs Engine:DEngine.obj
 0001:0005a030       ?_M_insert_aux@?$vector@PAKV?$__default_alloc_template@$00$0A@@@@@IAEXPAPAKABQAK@Z 0045b030 f i Libs Engine:DEngine.obj
 0001:0005a2f0       ?_M_insert_aux@?$vector@PAUDIdentFunc@@V?$__default_alloc_template@$00$0A@@@@@IAEXPAPAUDIdentFunc@@ABQAU2@@Z 0045b2f0 f i Libs Engine:DEngine.obj
 0001:0005a5b0       ?_M_insert@?$_Rb_tree@PBDU?$pair@QBDPAVDObc@@@@U?$_Select1st@U?$pair@QBDPAVDObc@@@@@@Ueqstr@@V?$__default_alloc_template@$00$0A@@@@@AAE?AU?$_Rb_tree_iterator@U?$pair@QBDPAVDObc@@@@AAU1@PAU1@@@PAU_Rb_tree_node_base@@0ABU?$pair@QBDPAVDObc@@@@@Z 0045b5b0 f i Libs Engine:DEngine.obj
 0001:0005a770       ?insert_unique@?$_Rb_tree@PBDU?$pair@QBDPAVDObc@@@@U?$_Select1st@U?$pair@QBDPAVDObc@@@@@@Ueqstr@@V?$__default_alloc_template@$00$0A@@@@@QAE?AU?$pair@U?$_Rb_tree_iterator@U?$pair@QBDPAVDObc@@@@AAU1@PAU1@@@_N@@ABU?$pair@QBDPAVDObc@@@@@Z 0045b770 f i Libs Engine:DEngine.obj
 0001:0005a980       ?__copy@@YAPAKPAK00Urandom_access_iterator_tag@@PAH@Z 0045b980 f i Libs Engine:DEngine.obj
 0001:0005a9b0       ??0?$pair@U?$_Rb_tree_iterator@U?$pair@QBDPAVDObc@@@@AAU1@PAU1@@@_N@@QAE@ABU0@@Z 0045b9b0 f i Libs Engine:DEngine.obj
 0001:0005a9d0       ?_M_create_node@?$_Rb_tree@PBDU?$pair@QBDPAVDObc@@@@U?$_Select1st@U?$pair@QBDPAVDObc@@@@@@Ueqstr@@V?$__default_alloc_template@$00$0A@@@@@IAEPAU?$_Rb_tree_node@U?$pair@QBDPAVDObc@@@@@@ABU?$pair@QBDPAVDObc@@@@@Z 0045b9d0 f i Libs Engine:DEngine.obj
 0001:0005aa90       ??0?$pair@U?$_Rb_tree_iterator@U?$pair@QBDPAVDObc@@@@AAU1@PAU1@@@_N@@QAE@ABU?$_Rb_tree_iterator@U?$pair@QBDPAVDObc@@@@AAU1@PAU1@@@AB_N@Z 0045ba90 f i Libs Engine:DEngine.obj
 0001:0005aab0       ?__uninitialized_copy_aux@@YAPAPAKPAPAK00U__false_type@@@Z 0045bab0 f i Libs Engine:DEngine.obj
 0001:0005aae0       ?__uninitialized_copy_aux@@YAPAPAUDIdentFunc@@PAPAU1@00U__false_type@@@Z 0045bae0 f i Libs Engine:DEngine.obj
 0001:0005ab10       ?TransFunc@DSystException@@SAXIPAU_EXCEPTION_POINTERS@@@Z 0045bb10 f   Libs Engine:DSystExceptionPC.obj
 0001:0005ab50       ?Init@DSystException@@SAXXZ 0045bb50 f   Libs Engine:DSystExceptionPC.obj
 0001:0005ab60       ?GetNumber@DSystException@@QAEIXZ 0045bb60 f   Libs Engine:DSystExceptionPC.obj
 0001:0005ab70       ?GetMsg@DSystException@@QAEPBDXZ 0045bb70 f   Libs Engine:DSystExceptionPC.obj
 0001:0005ab90       ?what@DSystException@@UAEPBDXZ 0045bb90 f   Libs Engine:DSystExceptionPC.obj
 0001:0005aba0       ??0DCounter@@QAE@XZ        0045bba0 f   Libs Engine:DCounter.obj
 0001:0005abb0       ??1DCounter@@QAE@XZ        0045bbb0 f   Libs Engine:DCounter.obj
 0001:0005ac10       ?Acquire@DCounter@@QAEXXZ  0045bc10 f   Libs Engine:DCounter.obj
 0001:0005ac60       ?Release@DCounter@@QAEXXZ  0045bc60 f   Libs Engine:DCounter.obj
 0001:0005acb0       ?IsNull@DCounter@@QAE_NXZ  0045bcb0 f   Libs Engine:DCounter.obj
 0001:0005acc0       ?Count@DCounter@@QAEKXZ    0045bcc0 f   Libs Engine:DCounter.obj
 0001:0005acd0       ??0UDMem@@QAE@XZ           0045bcd0 f   Libs Engine:UDMem.obj
 0001:0005ace0       ??1UDMem@@QAE@XZ           0045bce0 f   Libs Engine:UDMem.obj
 0001:0005acf0       ?GetHeapMem@UDMem@@SAPAXK@Z 0045bcf0 f   Libs Engine:UDMem.obj
 0001:0005ad70       ?FreeHeapMem@UDMem@@SAXPAX@Z 0045bd70 f   Libs Engine:UDMem.obj
 0001:0005adc0       ??0DDynStack@@QAE@XZ       0045bdc0 f   Libs Engine:DDynStack.obj
 0001:0005ae60       ??1DDynStack@@QAE@XZ       0045be60 f   Libs Engine:DDynStack.obj
 0001:0005b040       ?Allocate@DDynStack@@AAEXXZ 0045c040 f   Libs Engine:DDynStack.obj
 0001:0005b0d0       ?Push@DDynStack@@QAEPAXG@Z 0045c0d0 f   Libs Engine:DDynStack.obj
 0001:0005b150       ?Pop@DDynStack@@QAEPAXXZ   0045c150 f   Libs Engine:DDynStack.obj
 0001:0005b200       ?GetSize@DDynStack@@QAEKXZ 0045c200 f   Libs Engine:DDynStack.obj
 0001:0005b210       ??1?$vector@PAXV?$__default_alloc_template@$00$0A@@@@@QAE@XZ 0045c210 f i Libs Engine:DDynStack.obj
 0001:0005b370       ?_M_insert_aux@?$vector@PAXV?$__default_alloc_template@$00$0A@@@@@IAEXPAPAXABQAX@Z 0045c370 f i Libs Engine:DDynStack.obj
 0001:0005b630       ?__uninitialized_copy_aux@@YAPAPAXPAPAX00U__false_type@@@Z 0045c630 f i Libs Engine:DDynStack.obj
 0001:0005b660       ?OutputDebug@DTrace@@QAEXPBD@Z 0045c660 f   Libs Engine:DTracePC.obj
 0001:0005b670       _LibWarningBox             0045c670 f   Libs files:ErrorPC.obj
 0001:0005b6b0       _LibErrorBox               0045c6b0 f   Libs files:ErrorPC.obj
 0001:0005b6f0       _LibTitleErrorMsg          0045c6f0 f   Libs files:ErrorPC.obj
 0001:0005b720       _LibTextErrorMsg           0045c720 f   Libs files:ErrorPC.obj
 0001:0005b750       _System_Err                0045c750 f   Libs files:ErrorPC.obj
 0001:0005b830       _GetPreloadState           0045c830 f   Libs files:MDOFile.obj
 0001:0005b930       _PreloadAsync              0045c930 f   Libs files:MDOFile.obj
 0001:0005ba00       _DoPreloadAsync            0045ca00 f   Libs files:MDOFile.obj
 0001:0005bae0       _CancelPreload             0045cae0 f   Libs files:MDOFile.obj
 0001:0005bbf0       _CheckValidHandle          0045cbf0 f   Libs files:MDOFile.obj
 0001:0005bcb0       ?ChercheFirstFileOpenInSTK@@YAPAUFileHandles@@PAVCSTK@@@Z 0045ccb0 f   Libs files:MDOFile.obj
 0001:0005bd00       _CloseFileSystem           0045cd00 f   Libs files:MDOFile.obj
 0001:0005bd30       _InitFileSystem            0045cd30 f   Libs files:MDOFile.obj
 0001:0005bd40       _GXfilesize                0045cd40 f   Libs files:MDOFile.obj
 0001:0005be00       _GXfileLoad                0045ce00 f   Libs files:MDOFile.obj
 0001:0005c000       _GXopen                    0045d000 f   Libs files:MDOFile.obj
 0001:0005c1e0       _GXopenInSTKList           0045d1e0 f   Libs files:MDOFile.obj
 0001:0005c280       _GXclose                   0045d280 f   Libs files:MDOFile.obj
 0001:0005c2d0       _GXread                    0045d2d0 f   Libs files:MDOFile.obj
 0001:0005c320       ?GXreadl@@YAGFPAXJ@Z       0045d320 f   Libs files:MDOFile.obj
 0001:0005c370       _GXwrite                   0045d370 f   Libs files:MDOFile.obj
 0001:0005c3e0       _GXlseek                   0045d3e0 f   Libs files:MDOFile.obj
 0001:0005c430       _BlocProcess               0045d430 f   Libs files:MDOFile.obj
 0001:0005c4e0       _AddGlobalList_            0045d4e0 f   Libs files:MDOFile.obj
 0001:0005c500       _DelGlobalList_            0045d500 f   Libs files:MDOFile.obj
 0001:0005c510       _DelGlobalListByName       0045d510 f   Libs files:MDOFile.obj
 0001:0005c520       _AddGlobalList             0045d520 f   Libs files:MDOFile.obj
 0001:0005c530       _DelGlobalList             0045d530 f   Libs files:MDOFile.obj
 0001:0005c540       _DeleteSTK                 0045d540 f   Libs files:MDOFile.obj
 0001:0005c560       _AddSTK                    0045d560 f   Libs files:MDOFile.obj
 0001:0005c580       _GXfindFirst               0045d580 f   Libs files:MDOFile.obj
 0001:0005c6a0       _GXfindNext                0045d6a0 f   Libs files:MDOFile.obj
 0001:0005c750       _GXFileIsInSTK             0045d750 f   Libs files:MDOFile.obj
 0001:0005c790       _GetContainer              0045d790 f   Libs files:MDOFile.obj
 0001:0005c7b0       _GXFileCopy                0045d7b0 f   Libs files:MDOFile.obj
 0001:0005c8d0       _GXGetFileDate             0045d8d0 f   Libs files:MDOFile.obj
 0001:0005c950       ?seek@CNormalFile@@UAEJJH@Z 0045d950 f i Libs files:MDOFile.obj
 0001:0005c970       ?read@CNormalFile@@UAEJPAXG@Z 0045d970 f i Libs files:MDOFile.obj
 0001:0005c990       ?write@CNormalFile@@UAEJPAXG@Z 0045d990 f i Libs files:MDOFile.obj
 0001:0005c9b0       ?GetContainerClassPtr@CNormalFile@@UAEPAXXZ 0045d9b0 f i Libs files:MDOFile.obj
 0001:0005c9c0       ??_ECNormalFile@@UAEPAXI@Z 0045d9c0 f i Libs files:MDOFile.obj
 0001:0005c9c0       ??_GCNormalFile@@UAEPAXI@Z 0045d9c0 f i Libs files:MDOFile.obj
 0001:0005c9e0       ??1CNormalFile@@UAE@XZ     0045d9e0 f i Libs files:MDOFile.obj
 0001:0005ca00       ??_ECMDOFile@@UAEPAXI@Z    0045da00 f i Libs files:MDOFile.obj
 0001:0005ca00       ??_GCMDOFile@@UAEPAXI@Z    0045da00 f i Libs files:MDOFile.obj
 0001:0005ca20       _GetMem                    0045da20 f   Libs files:MDOMemory.obj
 0001:0005caf0       ?GetMem2@@YAPAXJ@Z         0045daf0 f   Libs files:MDOMemory.obj
 0001:0005cb00       _ReallocMem                0045db00 f   Libs files:MDOMemory.obj
 0001:0005cbc0       _Release                   0045dbc0 f   Libs files:MDOMemory.obj
 0001:0005cc50       _MMfreeMem                 0045dc50 f   Libs files:MDOMemory.obj
 0001:0005cc90       _MMmaxBlock                0045dc90 f   Libs files:MDOMemory.obj
 0001:0005ccd0       _CheckMemory               0045dcd0 f   Libs files:MDOMemory.obj
 0001:0005cce0       _LockPointer               0045dce0 f   Libs files:MDOMemory.obj
 0001:0005ccf0       _UnlockPointer             0045dcf0 f   Libs files:MDOMemory.obj
 0001:0005cd00       _GXCloseFileSystem         0045dd00 f   Libs files:MDOFilePC.obj
 0001:0005cd10       _GXInitFileSystem          0045dd10 f   Libs files:MDOFilePC.obj
 0001:0005cd20       _DetectRealCDDrive         0045dd20 f   Libs files:MDOFilePC.obj
 0001:0005cd70       _SystemReadAbsolutePath    0045dd70 f   Libs files:MDOFilePC.obj
 0001:0005ce50       _CheckCurrentCD            0045de50 f   Libs files:MDOFilePC.obj
 0001:0005d080       _GXopenOld2                0045e080 f   Libs files:MDOFilePC.obj
 0001:0005d1c0       _GXcloseOld2               0045e1c0 f   Libs files:MDOFilePC.obj
 0001:0005d220       _GXreadOld2                0045e220 f   Libs files:MDOFilePC.obj
 0001:0005d290       _GXwriteOld2               0045e290 f   Libs files:MDOFilePC.obj
 0001:0005d2b0       _GXlseekOld2               0045e2b0 f   Libs files:MDOFilePC.obj
 0001:0005d2d0       _GXFileRename              0045e2d0 f   Libs files:MDOFilePC.obj
 0001:0005d350       _GXFileDelete              0045e350 f   Libs files:MDOFilePC.obj
 0001:0005d3e0       _GXDirectoryRename         0045e3e0 f   Libs files:MDOFilePC.obj
 0001:0005d4d0       _GXDirectoryCreate         0045e4d0 f   Libs files:MDOFilePC.obj
 0001:0005d560       _GXDirectoryDelete         0045e560 f   Libs files:MDOFilePC.obj
 0001:0005d8a0       _GXfilesizeOld             0045e8a0 f   Libs files:MDOFilePC.obj
 0001:0005d8d0       _GXFileGetInfos            0045e8d0 f   Libs files:MDOFilePC.obj
 0001:0005da80       _GXFileSetInfos            0045ea80 f   Libs files:MDOFilePC.obj
 0001:0005dc90       _GXIsDirectory             0045ec90 f   Libs files:MDOFilePC.obj
 0001:0005dd30       _GXfileLoadOld             0045ed30 f   Libs files:MDOFilePC.obj
 0001:0005dd90       _LocalTime                 0045ed90 f   Libs files:MDOFilePC.obj
 0001:0005de30       _MDOGetDiskFreeSpace       0045ee30 f   Libs files:MDOFilePC.obj
 0001:0005ded0       _CD_CreateList             0045eed0 f   Libs files:MDOFilePC.obj
 0001:0005df70       _GXunlink                  0045ef70 f   Libs files:MDOFilePC.obj
 0001:0005dfa0       _GXgetcwd                  0045efa0 f   Libs files:MDOFilePC.obj
 0001:0005e000       _GXgetLoaderDirectory      0045f000 f   Libs files:MDOFilePC.obj
 0001:0005e160       _AddVCDROM                 0045f160 f   Libs files:VCdrom.obj
 0001:0005e1c0       _DecoderLigneDeCommande    0045f1c0 f   Libs files:VCdrom.obj
 0001:0005e5e0       _CalculerPathDEV           0045f5e0 f   Libs files:VCdrom.obj
 0001:0005e660       _ChangerCD                 0045f660 f   Libs files:VCdrom.obj
 0001:0005eb90       _FindMultiCD               0045fb90 f   Libs files:VCdrom.obj
 0001:0005ed80       ??0?$deque@PAVCSTKPath@@V?$__default_alloc_template@$00$0A@@@$0A@@@QAE@ABV?$__default_alloc_template@$00$0A@@@@Z 0045fd80 f i Libs files:VCdrom.obj
 0001:0005edb0       ??1?$deque@PAVCSTKPath@@V?$__default_alloc_template@$00$0A@@@$0A@@@QAE@XZ 0045fdb0 f i Libs files:VCdrom.obj
 0001:0005efa0       ??0?$_Deque_iterator@PAVCSTKPath@@AAPAV1@PAPAV1@@@QAE@ABU0@@Z 0045ffa0 f i Libs files:VCdrom.obj
 0001:0005efc0       ??Y?$_Deque_iterator@PAVCSTKPath@@AAPAV1@PAPAV1@@@QAEAAU0@H@Z 0045ffc0 f i Libs files:VCdrom.obj
 0001:0005f030       ?_M_set_node@?$_Deque_iterator@PAVCSTKPath@@AAPAV1@PAPAV1@@@QAEXPAPAPAVCSTKPath@@@Z 00460030 f i Libs files:VCdrom.obj
 0001:0005f050       ??1?$_Deque_base@PAVCSTKPath@@V?$__default_alloc_template@$00$0A@@@$0A@@@QAE@XZ 00460050 f i Libs files:VCdrom.obj
 0001:0005f0a0       ?_M_initialize_map@?$_Deque_base@PAVCSTKPath@@V?$__default_alloc_template@$00$0A@@@$0A@@@IAEXI@Z 004600a0 f i Libs files:VCdrom.obj
 0001:0005f230       ?_M_push_front_aux@?$deque@PAVCSTKPath@@V?$__default_alloc_template@$00$0A@@@$0A@@@IAEXABQAVCSTKPath@@@Z 00460230 f i Libs files:VCdrom.obj
 0001:0005f2d0       ?destroy@@YAXU?$_Deque_iterator@PAVCSTKPath@@AAPAV1@PAPAV1@@@0@Z 004602d0 f i Libs files:VCdrom.obj
 0001:0005f300       ?_M_create_nodes@?$_Deque_base@PAVCSTKPath@@V?$__default_alloc_template@$00$0A@@@$0A@@@IAEXPAPAPAVCSTKPath@@0@Z 00460300 f i Libs files:VCdrom.obj
 0001:0005f3a0       ?_M_reallocate_map@?$deque@PAVCSTKPath@@V?$__default_alloc_template@$00$0A@@@$0A@@@IAEXI_N@Z 004603a0 f i Libs files:VCdrom.obj
 0001:0005f500       ?__destroy@@YAXU?$_Deque_iterator@PAVCSTKPath@@AAPAV1@PAPAV1@@@0PAPAVCSTKPath@@@Z 00460500 f i Libs files:VCdrom.obj
 0001:0005f530       ?__destroy_aux@@YAXU?$_Deque_iterator@PAVCSTKPath@@AAPAV1@PAPAV1@@@0U__false_type@@@Z 00460530 f i Libs files:VCdrom.obj
 0001:0005f560       _MdoTimeGetTime            00460560 f   Libs files:DateUtilsPC.obj
 0001:0005f570       _MdoGetHour                00460570 f   Libs files:DateUtilsPC.obj
 0001:0005f5c0       _MdoGetDate                004605c0 f   Libs files:DateUtilsPC.obj
 0001:0005f620       _MdoGetGmtTime             00460620 f   Libs files:DateUtils.obj
 0001:0005f630       _MdoGetLocalTime           00460630 f   Libs files:DateUtils.obj
 0001:0005f690       _MdoDateToSeconds          00460690 f   Libs files:DateUtils.obj
 0001:0005f790       _MdoSecondsToDate          00460790 f   Libs files:DateUtils.obj
 0001:0005f970       _AddExtension              00460970 f   Libs files:FilesTools.obj
 0001:0005fa40       ??1CSTKList@@QAE@XZ        00460a40 f i Libs files:Stk.obj
 0001:0005fb10       ??0CSTK10File@@AAE@PAUSTK_File@@PAVCSTK10@@@Z 00460b10 f   Libs files:Stk.obj
 0001:0005fb30       ??_ECSTK10File@@UAEPAXI@Z  00460b30 f i Libs files:Stk.obj
 0001:0005fb30       ??_GCSTK10File@@UAEPAXI@Z  00460b30 f i Libs files:Stk.obj
 0001:0005fb50       ??1CSTK10File@@UAE@XZ      00460b50 f   Libs files:Stk.obj
 0001:0005fba0       ?seek@CSTK10File@@UAEJJH@Z 00460ba0 f   Libs files:Stk.obj
 0001:0005fc70       ?read@CSTK10File@@UAEJPAXG@Z 00460c70 f   Libs files:Stk.obj
 0001:0005fcf0       ?write@CSTK10File@@UAEJPAXG@Z 00460cf0 f   Libs files:Stk.obj
 0001:0005fd40       ??0CSTK20File@@AAE@PAUSTK_File20@@PAVCSTK20@@@Z 00460d40 f   Libs files:Stk.obj
 0001:0005fd60       ??_ECSTK20File@@UAEPAXI@Z  00460d60 f i Libs files:Stk.obj
 0001:0005fd60       ??_GCSTK20File@@UAEPAXI@Z  00460d60 f i Libs files:Stk.obj
 0001:0005fd80       ??1CSTK20File@@UAE@XZ      00460d80 f   Libs files:Stk.obj
 0001:0005fdd0       ?seek@CSTK20File@@UAEJJH@Z 00460dd0 f   Libs files:Stk.obj
 0001:0005fea0       ?read@CSTK20File@@UAEJPAXG@Z 00460ea0 f   Libs files:Stk.obj
 0001:0005ff20       ?write@CSTK20File@@UAEJPAXG@Z 00460f20 f   Libs files:Stk.obj
 0001:0005ff70       ??0CSTK10@@AAE@PBD@Z       00460f70 f   Libs files:Stk.obj
 0001:000603f0       ??_ECSTK10@@EAEPAXI@Z      004613f0 f i Libs files:Stk.obj
 0001:000603f0       ??_GCSTK10@@EAEPAXI@Z      004613f0 f i Libs files:Stk.obj
 0001:00060410       ??1CSTK10@@EAE@XZ          00461410 f   Libs files:Stk.obj
 0001:00060520       ?Read@CSTK10@@MAEJJPAXJ@Z  00461520 f   Libs files:Stk.obj
 0001:00060610       ?CompareFiles@CSTK10@@KAHPBX0@Z 00461610 f   Libs files:Stk.obj
 0001:00060660       ?OpenFile@CSTK10@@EAEPAVCMDOFile@@PBD@Z 00461660 f   Libs files:Stk.obj
 0001:000606b0       ?CloseFile@CSTK10@@EAEXPAVCSTK10File@@@Z 004616b0 f   Libs files:Stk.obj
 0001:000606c0       ?FindFile@CSTK10@@IAEPAUSTK_File@@PBD@Z 004616c0 f   Libs files:Stk.obj
 0001:00060750       ?IsFileInSTK@CSTK10@@EAECPBD@Z 00461750 f   Libs files:Stk.obj
 0001:00060770       ?LoadFile@CSTK10@@EAEPAXPBD@Z 00461770 f   Libs files:Stk.obj
 0001:00060820       ?FileSize@CSTK10@@EAEJPBD@Z 00461820 f   Libs files:Stk.obj
 0001:00060870       ?GetFileDate@CSTK10@@EAE_NPBDPAUMDO_FILEINFOS@@@Z 00461870 f   Libs files:Stk.obj
 0001:000608b0       ?FindFirst@CSTK10@@EAECPBDPADJ@Z 004618b0 f   Libs files:Stk.obj
 0001:00060900       ?FindNext@CSTK10@@EAECPADJ@Z 00461900 f   Libs files:Stk.obj
 0001:000609a0       ??0CSTK20@@AAE@PBD@Z       004619a0 f   Libs files:Stk.obj
 0001:00060fc0       ??_ECSTK20@@EAEPAXI@Z      00461fc0 f i Libs files:Stk.obj
 0001:00060fc0       ??_GCSTK20@@EAEPAXI@Z      00461fc0 f i Libs files:Stk.obj
 0001:00060fe0       ??1CSTK20@@EAE@XZ          00461fe0 f   Libs files:Stk.obj
 0001:00061100       ?Read@CSTK20@@EAEJJPAXJ@Z  00462100 f   Libs files:Stk.obj
 0001:000611f0       ?OpenFile@CSTK20@@EAEPAVCMDOFile@@PBD@Z 004621f0 f   Libs files:Stk.obj
 0001:00061240       ?CloseFile@CSTK20@@EAEXPAVCSTK20File@@@Z 00462240 f   Libs files:Stk.obj
 0001:00061250       ?LoadFile@CSTK20@@EAEPAXPBD@Z 00462250 f   Libs files:Stk.obj
 0001:000613e0       ?FileSize@CSTK20@@EAEJPBD@Z 004623e0 f   Libs files:Stk.obj
 0001:00061410       ?GetFileDate@CSTK20@@EAE_NPBDPAUMDO_FILEINFOS@@@Z 00462410 f   Libs files:Stk.obj
 0001:00061440       ?CompareFiles@CSTK20@@CAHPBX0@Z 00462440 f   Libs files:Stk.obj
 0001:00061490       ?FindFile@CSTK20@@AAEPAUSTK_File20@@PBD@Z 00462490 f   Libs files:Stk.obj
 0001:00061530       ?IsFileInSTK@CSTK20@@EAECPBD@Z 00462530 f   Libs files:Stk.obj
 0001:00061550       ?FindFirst@CSTK20@@EAECPBDPADJ@Z 00462550 f   Libs files:Stk.obj
 0001:000615a0       ?FindNext@CSTK20@@EAECPADJ@Z 004625a0 f   Libs files:Stk.obj
 0001:00061630       ??0CSTKVirtual@@AAE@PBDPAV?$list@PADV?$__default_alloc_template@$00$0A@@@@@@Z 00462630 f   Libs files:Stk.obj
 0001:00061f40       ??_GCSTKVirtual@@EAEPAXI@Z 00462f40 f i Libs files:Stk.obj
 0001:00061f40       ??_ECSTKVirtual@@EAEPAXI@Z 00462f40 f i Libs files:Stk.obj
 0001:00061f60       ??1CSTKVirtual@@EAE@XZ     00462f60 f   Libs files:Stk.obj
 0001:00062140       ?OpenFile@CSTKVirtual@@EAEPAVCMDOFile@@PBD@Z 00463140 f   Libs files:Stk.obj
 0001:00062220       ?CloseFile@CSTKVirtual@@EAEXPAVCSTKVirtualFile@@@Z 00463220 f   Libs files:Stk.obj
 0001:00062230       ?LoadFile@CSTKVirtual@@EAEPAXPBD@Z 00463230 f   Libs files:Stk.obj
 0001:000622d0       ?FileSize@CSTKVirtual@@EAEJPBD@Z 004632d0 f   Libs files:Stk.obj
 0001:000622f0       ?GetFileDate@CSTKVirtual@@EAE_NPBDPAUMDO_FILEINFOS@@@Z 004632f0 f   Libs files:Stk.obj
 0001:000623a0       ?CompareFiles@CSTKVirtual@@CAHPBX0@Z 004633a0 f   Libs files:Stk.obj
 0001:000623f0       ?FindFile@CSTKVirtual@@AAEPAUSTK_FileVirtual@@PBD@Z 004633f0 f   Libs files:Stk.obj
 0001:00062470       ?IsFileInSTK@CSTKVirtual@@EAECPBD@Z 00463470 f   Libs files:Stk.obj
 0001:00062490       ?FindFirst@CSTKVirtual@@EAECPBDPADJ@Z 00463490 f   Libs files:Stk.obj
 0001:000624e0       ?FindNext@CSTKVirtual@@EAECPADJ@Z 004634e0 f   Libs files:Stk.obj
 0001:00062560       ??0CSTKPath@@QAE@PBD@Z     00463560 f   Libs files:Stk.obj
 0001:00062600       ??_ECSTKPath@@UAEPAXI@Z    00463600 f i Libs files:Stk.obj
 0001:00062600       ??_GCSTKPath@@UAEPAXI@Z    00463600 f i Libs files:Stk.obj
 0001:00062620       ??1CSTKPath@@UAE@XZ        00463620 f   Libs files:Stk.obj
 0001:00062710       ?OpenFile@CSTKPath@@UAEPAVCMDOFile@@PBD@Z 00463710 f   Libs files:Stk.obj
 0001:000627f0       ?CloseFile@CSTKPath@@UAEXPAVCSTKPathFile@@@Z 004637f0 f   Libs files:Stk.obj
 0001:00062800       ?LoadFile@CSTKPath@@UAEPAXPBD@Z 00463800 f   Libs files:Stk.obj
 0001:00062880       ?FileSize@CSTKPath@@UAEJPBD@Z 00463880 f   Libs files:Stk.obj
 0001:00062900       ?GetFileDate@CSTKPath@@UAE_NPBDPAUMDO_FILEINFOS@@@Z 00463900 f   Libs files:Stk.obj
 0001:00062990       ?FindFirst@CSTKPath@@UAECPBDPADJ@Z 00463990 f   Libs files:Stk.obj
 0001:000629e0       ?FindNext@CSTKPath@@UAECPADJ@Z 004639e0 f   Libs files:Stk.obj
 0001:00062a30       ?IsFileInSTK@CSTKPath@@UAECPBD@Z 00463a30 f   Libs files:Stk.obj
 0001:00062ad0       ??0CSTKList@@QAE@XZ        00463ad0 f   Libs files:Stk.obj
 0001:00062b80       ?OpenSTK@CSTKList@@QAEPAVCSTK@@PBDC@Z 00463b80 f   Libs files:Stk.obj
 0001:00062c90       ?RemovePath@CSTKList@@QAE_NPBD@Z 00463c90 f   Libs files:Stk.obj
 0001:00062db0       ?DelSTK@CSTKList@@QAECC@Z  00463db0 f   Libs files:Stk.obj
 0001:00062e50       ?DelSTK@CSTKList@@QAECPAVCSTK@@@Z 00463e50 f   Libs files:Stk.obj
 0001:00062ef0       ?DelSTK@CSTKList@@QAECPBD@Z 00463ef0 f   Libs files:Stk.obj
 0001:00062fc0       ?CreateSTK@CSTKList@@AAEPAVCSTK@@PBDH@Z 00463fc0 f   Libs files:Stk.obj
 0001:000633d0       ??1CSTK@@UAE@XZ            004643d0 f i Libs files:Stk.obj
 0001:000633e0       ??_ECSTK@@UAEPAXI@Z        004643e0 f i Libs files:Stk.obj
 0001:000633e0       ??_GCSTK@@UAEPAXI@Z        004643e0 f i Libs files:Stk.obj
 0001:00063400       ?GetName@CSTK10@@EAEPADXZ  00464400 f i Libs files:Stk.obj
 0001:00063410       ?GetName@CSTK20@@EAEPADXZ  00464410 f i Libs files:Stk.obj
 0001:00063420       ?GetName@CSTKVirtual@@EAEPADXZ 00464420 f i Libs files:Stk.obj
 0001:00063430       ?GetName@CSTKPath@@UAEPADXZ 00464430 f i Libs files:Stk.obj
 0001:00063440       ??1CMDOFile@@UAE@XZ        00464440 f i Libs files:Stk.obj
 0001:00063450       ?GetVirtualSTKPath@CSTKList@@QAE_NPBDPAV?$list@PADV?$__default_alloc_template@$00$0A@@@@@@Z 00464450 f   Libs files:Stk.obj
 0001:00063510       ?AddVirtualSTKName@CSTKList@@QAEXPBD0@Z 00464510 f   Libs files:Stk.obj
 0001:000635b0       ?OpenFile@CSTKList@@QAEPAVCMDOFile@@PBD@Z 004645b0 f   Libs files:Stk.obj
 0001:000635e0       ?OpenFileInRealSTK@CSTKList@@QAEPAVCMDOFile@@PBD@Z 004645e0 f   Libs files:Stk.obj
 0001:00063620       ?seek@CSTKPathFile@@UAEJJH@Z 00464620 f i Libs files:Stk.obj
 0001:00063640       ?LoadFile@CSTKList@@QAEPAXPBD@Z 00464640 f   Libs files:Stk.obj
 0001:00063670       ?read@CSTKPathFile@@UAEJPAXG@Z 00464670 f i Libs files:Stk.obj
 0001:00063690       ?write@CSTKPathFile@@UAEJPAXG@Z 00464690 f i Libs files:Stk.obj
 0001:000636b0       ?GetContainerClassPtr@CSTKPathFile@@UAEPAXXZ 004646b0 f i Libs files:Stk.obj
 0001:000636c0       ??_GCSTKPathFile@@UAEPAXI@Z 004646c0 f i Libs files:Stk.obj
 0001:000636c0       ??_ECSTKPathFile@@UAEPAXI@Z 004646c0 f i Libs files:Stk.obj
 0001:000636e0       ??1CSTKPathFile@@UAE@XZ    004646e0 f i Libs files:Stk.obj
 0001:00063740       ?FileSize@CSTKList@@QAEJPBD@Z 00464740 f   Libs files:Stk.obj
 0001:00063780       ?SearchInRealSTK@CSTKList@@QAECPBDPADJ@Z 00464780 f   Libs files:Stk.obj
 0001:000637f0       ?seek@CSTKVirtualFile@@UAEJJH@Z 004647f0 f i Libs files:Stk.obj
 0001:00063810       ?read@CSTKVirtualFile@@UAEJPAXG@Z 00464810 f i Libs files:Stk.obj
 0001:00063830       ?write@CSTKVirtualFile@@UAEJPAXG@Z 00464830 f i Libs files:Stk.obj
 0001:00063850       ?GetFileDate@CSTKList@@QAE_NPBDPAUMDO_FILEINFOS@@@Z 00464850 f   Libs files:Stk.obj
 0001:00063890       ?GetContainerClassPtr@CSTKVirtualFile@@UAEPAXXZ 00464890 f i Libs files:Stk.obj
 0001:000638a0       ??_ECSTKVirtualFile@@UAEPAXI@Z 004648a0 f i Libs files:Stk.obj
 0001:000638a0       ??_GCSTKVirtualFile@@UAEPAXI@Z 004648a0 f i Libs files:Stk.obj
 0001:000638c0       ??1CSTKVirtualFile@@UAE@XZ 004648c0 f i Libs files:Stk.obj
 0001:00063920       ?GetContainerClassPtr@CSTK10File@@UAEPAXXZ 00464920 f i Libs files:Stk.obj
 0001:00063930       ?GetContainerClassPtr@CSTK20File@@UAEPAXXZ 00464930 f i Libs files:Stk.obj
 0001:00063940       ?FindFirst@CSTKList@@QAECPBDPADJ@Z 00464940 f   Libs files:Stk.obj
 0001:00063980       ?FindNext@CSTKList@@QAECPADJ@Z 00464980 f   Libs files:Stk.obj
 0001:00063a00       _AddVirtualSTKName         00464a00 f   Libs files:Stk.obj
 0001:00063a20       _AddPath                   00464a20 f   Libs files:Stk.obj
 0001:00063a40       _RemovePath                00464a40 f   Libs files:Stk.obj
 0001:00063a50       ??1?$vector@PADV?$__default_alloc_template@$00$0A@@@@@QAE@XZ 00464a50 f i Libs files:Stk.obj
 0001:00063ba0       ?begin@?$list@PADV?$__default_alloc_template@$00$0A@@@@@QAE?AU?$_List_iterator@PADAAPADPAPAD@@XZ 00464ba0 f i Libs files:Stk.obj
 0001:00063bb0       ??0?$_List_iterator@PADAAPADPAPAD@@QAE@ABU0@@Z 00464bb0 f i Libs files:Stk.obj
 0001:00063bc0       ?end@?$list@UVirtualSTKName@@V?$__default_alloc_template@$00$0A@@@@@QAE?AU?$_List_iterator@UVirtualSTKName@@AAU1@PAU1@@@XZ 00464bc0 f i Libs files:Stk.obj
 0001:00063bd0       ??1?$list@UVirtualSTKName@@V?$__default_alloc_template@$00$0A@@@@@QAE@XZ 00464bd0 f i Libs files:Stk.obj
 0001:00063c10       ??0?$_List_iterator@UVirtualSTKName@@AAU1@PAU1@@@QAE@ABU0@@Z 00464c10 f i Libs files:Stk.obj
 0001:00063c20       ?begin@?$list@PAVCSTK@@V?$__default_alloc_template@$00$0A@@@@@QAE?AU?$_List_iterator@PAVCSTK@@AAPAV1@PAPAV1@@@XZ 00464c20 f i Libs files:Stk.obj
 0001:00063c30       ?insert@?$list@PAVCSTK@@V?$__default_alloc_template@$00$0A@@@@@QAE?AU?$_List_iterator@PAVCSTK@@AAPAV1@PAPAV1@@@U2@ABQAVCSTK@@@Z 00464c30 f i Libs files:Stk.obj
 0001:00063c60       ?erase@?$list@PAVCSTK@@V?$__default_alloc_template@$00$0A@@@@@QAE?AU?$_List_iterator@PAVCSTK@@AAPAV1@PAPAV1@@@U2@@Z 00464c60 f i Libs files:Stk.obj
 0001:00063c90       ??0?$_List_iterator@PAVCSTK@@AAPAV1@PAPAV1@@@QAE@ABU0@@Z 00464c90 f i Libs files:Stk.obj
 0001:00063ca0       ??1?$list@PAUSTK_FileVirtual@@V?$__default_alloc_template@$00$0A@@@@@QAE@XZ 00464ca0 f i Libs files:Stk.obj
 0001:00063e00       ?insert@?$list@PADV?$__default_alloc_template@$00$0A@@@@@QAE?AU?$_List_iterator@PADAAPADPAPAD@@U2@ABQAD@Z 00464e00 f i Libs files:Stk.obj
 0001:00063e30       ?erase@?$list@PADV?$__default_alloc_template@$00$0A@@@@@QAE?AU?$_List_iterator@PADAAPADPAPAD@@U2@@Z 00464e30 f i Libs files:Stk.obj
 0001:00063e60       ?insert@?$list@UVirtualSTKName@@V?$__default_alloc_template@$00$0A@@@@@QAE?AU?$_List_iterator@UVirtualSTKName@@AAU1@PAU1@@@U2@ABUVirtualSTKName@@@Z 00464e60 f i Libs files:Stk.obj
 0001:00063e90       ?_M_create_node@?$list@PAVCSTK@@V?$__default_alloc_template@$00$0A@@@@@IAEPAU?$_List_node@PAVCSTK@@@@ABQAVCSTK@@@Z 00464e90 f i Libs files:Stk.obj
 0001:00063f50       ?begin@?$list@PAUSTK_FileVirtual@@V?$__default_alloc_template@$00$0A@@@@@QAE?AU?$_List_iterator@PAUSTK_FileVirtual@@AAPAU1@PAPAU1@@@XZ 00464f50 f i Libs files:Stk.obj
 0001:00063f60       ?end@?$list@PAUSTK_FileVirtual@@V?$__default_alloc_template@$00$0A@@@@@QAE?AU?$_List_iterator@PAUSTK_FileVirtual@@AAPAU1@PAPAU1@@@XZ 00464f60 f i Libs files:Stk.obj
 0001:00063f70       ?insert@?$list@PAUSTK_FileVirtual@@V?$__default_alloc_template@$00$0A@@@@@QAE?AU?$_List_iterator@PAUSTK_FileVirtual@@AAPAU1@PAPAU1@@@U2@ABQAUSTK_FileVirtual@@@Z 00464f70 f i Libs files:Stk.obj
 0001:00063fa0       ?erase@?$list@PAUSTK_FileVirtual@@V?$__default_alloc_template@$00$0A@@@@@QAE?AU?$_List_iterator@PAUSTK_FileVirtual@@AAPAU1@PAPAU1@@@U2@@Z 00464fa0 f i Libs files:Stk.obj
 0001:00063fd0       ??0?$_List_iterator@PAUSTK_FileVirtual@@AAPAU1@PAPAU1@@@QAE@ABU0@@Z 00464fd0 f i Libs files:Stk.obj
 0001:00063fe0       ?_M_create_node@?$list@PADV?$__default_alloc_template@$00$0A@@@@@IAEPAU?$_List_node@PAD@@ABQAD@Z 00464fe0 f i Libs files:Stk.obj
 0001:000640a0       ?_M_create_node@?$list@UVirtualSTKName@@V?$__default_alloc_template@$00$0A@@@@@IAEPAU?$_List_node@UVirtualSTKName@@@@ABUVirtualSTKName@@@Z 004650a0 f i Libs files:Stk.obj
 0001:00064100       ?_M_create_node@?$list@PAUSTK_FileVirtual@@V?$__default_alloc_template@$00$0A@@@@@IAEPAU?$_List_node@PAUSTK_FileVirtual@@@@ABQAUSTK_FileVirtual@@@Z 00465100 f i Libs files:Stk.obj
 0001:000641c0       ?_M_insert_aux@?$vector@PADV?$__default_alloc_template@$00$0A@@@@@IAEXPAPADABQAD@Z 004651c0 f i Libs files:Stk.obj
 0001:00064460       ?__copy@@YAPAPADPAPAD00Urandom_access_iterator_tag@@PAH@Z 00465460 f i Libs files:Stk.obj
 0001:000644e0       ?MDOGetDriveList@@YAPAV?$list@PBDV?$__default_alloc_template@$00$0A@@@@@XZ 004654e0 f   Libs files:DrivesPC.obj
 0001:00064560       ?MDOGetDriveType@@YAJPBD@Z 00465560 f   Libs files:DrivesPC.obj
 0001:00064620       ?MDOGetDriveFreeSpace@@YAJPBD@Z 00465620 f   Libs files:DrivesPC.obj
 0001:00064680       ?MDOEject@@YAJPBD@Z        00465680 f   Libs files:DrivesPC.obj
 0001:00064690       ?MDOReleaseDrivesList@@YAXXZ 00465690 f   Libs files:DrivesPC.obj
 0001:000646f0       ??0?$list@PBDV?$__default_alloc_template@$00$0A@@@@@QAE@ABV?$__default_alloc_template@$00$0A@@@@Z 004656f0 f i Libs files:DrivesPC.obj
 0001:000647b0       ?end@?$list@PBDV?$__default_alloc_template@$00$0A@@@@@QAE?AU?$_List_iterator@PBDAAPBDPAPBD@@XZ 004657b0 f i Libs files:DrivesPC.obj
 0001:000647c0       ?erase@?$list@PBDV?$__default_alloc_template@$00$0A@@@@@QAE?AU?$_List_iterator@PBDAAPBDPAPBD@@U2@@Z 004657c0 f i Libs files:DrivesPC.obj
 0001:000647f0       ?GXCopyStrToClipboard@@YAXPAD@Z 004657f0 f   Libs files:ClipboardPC.obj
 0001:00064880       ?GXGetStrFromClipboard@@YAFPADI@Z 00465880 f   Libs files:ClipboardPC.obj
 0001:00064900       _GetFileName               00465900 f   Libs files:pathtools.obj
 0001:000649d0       _IsGoodFile                004659d0 f   Libs files:pathtools.obj
 0001:00064b00       _FindFirst                 00465b00 f   Libs files:FindfPC.obj
 0001:00064cd0       _FindNext                  00465cd0 f   Libs files:FindfPC.obj
 0001:00064e30       _MDOFindFirst              00465e30 f   Libs files:FindfPC.obj
 0001:00065080       _MDOFindNext               00466080 f   Libs files:FindfPC.obj
 0001:000651f0       _strclip                   004661f0 f   Libs files:FindfPC.obj
 0001:000652c0       _DecompressData            004662c0 f   Libs files:Decomp32.obj
 0001:00065610       _uclCompress               00466610 f   Libs files:uclCompress.obj
 0001:000656c0       _uclDecompress             004666c0 f   Libs files:uclCompress.obj
 0001:00065760       _IsValidVideoMode          00466760 f   libs graph:Graphic.obj
 0001:00065780       _GRsizePict                00466780 f   libs graph:Graphic.obj
 0001:00065850       _GRsetVideoMode            00466850 f   libs graph:Graphic.obj
 0001:000658d0       _GRinitBitMap              004668d0 f   libs graph:Graphic.obj
 0001:00065a40       _GRfreeBitMap              00466a40 f   libs graph:Graphic.obj
 0001:00065b30       _GRpictMove                00466b30 f   libs graph:Graphic.obj
 0001:00065cd0       _GRsetAlphaZone            00466cd0 f   libs graph:Graphic.obj
 0001:00065dd0       _GRfillZone                00466dd0 f   libs graph:Graphic.obj
 0001:00065eb0       _GRplot                    00466eb0 f   libs graph:Graphic.obj
 0001:00065f40       _ClearBitMap               00466f40 f   libs graph:Graphic.obj
 0001:00065f80       _GRinvertRect              00466f80 f   libs graph:Graphic.obj
 0001:00065fe0       _GRdrawCircle              00466fe0 f   libs graph:Graphic.obj
 0001:00066150       _GRdrawCircleRGB           00467150 f   libs graph:Graphic.obj
 0001:000662b0       _IsVisible                 004672b0 f   libs graph:Graphic.obj
 0001:00066310       _GRdrawArcRGB              00467310 f   libs graph:Graphic.obj
 0001:00066570       _GRdrawLine                00467570 f   libs graph:Graphic.obj
 0001:00066770       _GRdrawLineRGB             00467770 f   libs graph:Graphic.obj
 0001:00066900       _GRfillPattern             00467900 f   libs graph:Graphic.obj
 0001:00066a30       _GRcopyPattern             00467a30 f   libs graph:Graphic.obj
 0001:00066b70       _GetColorInPalette         00467b70 f   libs graph:Graphic.obj
 0001:00066c30       _ShrinkImage               00467c30 f   libs graph:Graphic.obj
 0001:00067470       _UnMakeBMP                 00468470 f   libs graph:LoadImage.obj
 0001:00067680       _GXloadSharedImage         00468680 f   libs graph:LoadImage.obj
 0001:00067980       _GRreleaseSharedBmp        00468980 f   libs graph:LoadImage.obj
 0001:00067a00       _GXloadImage               00468a00 f   libs graph:LoadImage.obj
 0001:00067ab0       ??0?$map@PBDUInfo@@Umystrcmp@@V?$__default_alloc_template@$00$0A@@@@@QAE@XZ 00468ab0 f i libs graph:LoadImage.obj
 0001:00067b80       ?erase@?$map@PBDUInfo@@Umystrcmp@@V?$__default_alloc_template@$00$0A@@@@@QAEXU?$_Rb_tree_iterator@U?$pair@QBDUInfo@@@@AAU1@PAU1@@@@Z 00468b80 f i libs graph:LoadImage.obj
 0001:00067ba0       ??0?$_Rb_tree_iterator@U?$pair@QBDUInfo@@@@AAU1@PAU1@@@QAE@ABU0@@Z 00468ba0 f i libs graph:LoadImage.obj
 0001:00067bb0       ?insert@?$map@PBDUInfo@@Umystrcmp@@V?$__default_alloc_template@$00$0A@@@@@QAE?AU?$_Rb_tree_iterator@U?$pair@QBDUInfo@@@@AAU1@PAU1@@@U2@ABU?$pair@QBDUInfo@@@@@Z 00468bb0 f i libs graph:LoadImage.obj
 0001:00067be0       ?insert_unique@?$_Rb_tree@PBDU?$pair@QBDUInfo@@@@U?$_Select1st@U?$pair@QBDUInfo@@@@@@Umystrcmp@@V?$__default_alloc_template@$00$0A@@@@@QAE?AU?$_Rb_tree_iterator@U?$pair@QBDUInfo@@@@AAU1@PAU1@@@U2@ABU?$pair@QBDUInfo@@@@@Z 00468be0 f i libs graph:LoadImage.obj
 0001:00067ee0       ?begin@?$_Rb_tree@PBDU?$pair@QBDUInfo@@@@U?$_Select1st@U?$pair@QBDUInfo@@@@@@Umystrcmp@@V?$__default_alloc_template@$00$0A@@@@@QAE?AU?$_Rb_tree_iterator@U?$pair@QBDUInfo@@@@AAU1@PAU1@@@XZ 00468ee0 f i libs graph:LoadImage.obj
 0001:00067ef0       ?erase@?$_Rb_tree@PBDU?$pair@QBDUInfo@@@@U?$_Select1st@U?$pair@QBDUInfo@@@@@@Umystrcmp@@V?$__default_alloc_template@$00$0A@@@@@QAEXU?$_Rb_tree_iterator@U?$pair@QBDUInfo@@@@AAU1@PAU1@@@@Z 00468ef0 f i libs graph:LoadImage.obj
 0001:00067f20       ?lower_bound@?$_Rb_tree@PBDU?$pair@QBDUInfo@@@@U?$_Select1st@U?$pair@QBDUInfo@@@@@@Umystrcmp@@V?$__default_alloc_template@$00$0A@@@@@QAE?AU?$_Rb_tree_iterator@U?$pair@QBDUInfo@@@@AAU1@PAU1@@@ABQBD@Z 00468f20 f i libs graph:LoadImage.obj
 0001:00067f70       ?_M_insert@?$_Rb_tree@PBDU?$pair@QBDUInfo@@@@U?$_Select1st@U?$pair@QBDUInfo@@@@@@Umystrcmp@@V?$__default_alloc_template@$00$0A@@@@@AAE?AU?$_Rb_tree_iterator@U?$pair@QBDUInfo@@@@AAU1@PAU1@@@PAU_Rb_tree_node_base@@0ABU?$pair@QBDUInfo@@@@@Z 00468f70 f i libs graph:LoadImage.obj
 0001:00068110       ?insert_unique@?$_Rb_tree@PBDU?$pair@QBDUInfo@@@@U?$_Select1st@U?$pair@QBDUInfo@@@@@@Umystrcmp@@V?$__default_alloc_template@$00$0A@@@@@QAE?AU?$pair@U?$_Rb_tree_iterator@U?$pair@QBDUInfo@@@@AAU1@PAU1@@@_N@@ABU?$pair@QBDUInfo@@@@@Z 00469110 f i libs graph:LoadImage.obj
 0001:00068280       ??0?$pair@U?$_Rb_tree_iterator@U?$pair@QBDUInfo@@@@AAU1@PAU1@@@_N@@QAE@ABU0@@Z 00469280 f i libs graph:LoadImage.obj
 0001:000682a0       ?_M_create_node@?$_Rb_tree@PBDU?$pair@QBDUInfo@@@@U?$_Select1st@U?$pair@QBDUInfo@@@@@@Umystrcmp@@V?$__default_alloc_template@$00$0A@@@@@IAEPAU?$_Rb_tree_node@U?$pair@QBDUInfo@@@@@@ABU?$pair@QBDUInfo@@@@@Z 004692a0 f i libs graph:LoadImage.obj
 0001:00068370       ??0?$pair@U?$_Rb_tree_iterator@U?$pair@QBDUInfo@@@@AAU1@PAU1@@@_N@@QAE@ABU?$_Rb_tree_iterator@U?$pair@QBDUInfo@@@@AAU1@PAU1@@@AB_N@Z 00469370 f i libs graph:LoadImage.obj
 0001:00068390       ??1?$map@PBDUInfo@@Umystrcmp@@V?$__default_alloc_template@$00$0A@@@@@QAE@XZ 00469390 f i libs graph:LoadImage.obj
 0001:00068520       ??1?$_Rb_tree_base@U?$pair@QBDUInfo@@@@V?$__default_alloc_template@$00$0A@@@@@QAE@XZ 00469520 f i libs graph:LoadImage.obj
 0001:00068530       ?_M_erase@?$_Rb_tree@PBDU?$pair@QBDUInfo@@@@U?$_Select1st@U?$pair@QBDUInfo@@@@@@Umystrcmp@@V?$__default_alloc_template@$00$0A@@@@@AAEXPAU?$_Rb_tree_node@U?$pair@QBDUInfo@@@@@@@Z 00469530 f i libs graph:LoadImage.obj
 0001:000685c0       ?CalculRealZone@@YAXPAVECRAN_ELEM@@@Z 004695c0 f   libs graph:Regions.obj
 0001:00068690       _AddToBmpRegion            00469690 f   libs graph:Regions.obj
 0001:00068760       _RazRegion                 00469760 f   libs graph:Regions.obj
 0001:000687a0       _ReleaseRegion             004697a0 f   libs graph:Regions.obj
 0001:000687c0       _AddAllBmpToEcran          004697c0 f   libs graph:Regions.obj
 0001:000687f0       _AddPartialBmpToEcran      004697f0 f   libs graph:Regions.obj
 0001:000689c0       _AddAllVmdToEcran          004699c0 f   libs graph:Regions.obj
 0001:000689f0       _AddPartialVmdToEcran      004699f0 f   libs graph:Regions.obj
 0001:00068bf0       _RemoveElemFromEcran       00469bf0 f   libs graph:Regions.obj
 0001:00068c80       ??1ECRAN_ELEM@@QAE@XZ      00469c80 f i libs graph:Regions.obj
 0001:00068de0       _ChangeElemMode            00469de0 f   libs graph:Regions.obj
 0001:00068e40       _ChangeElemPlan            00469e40 f   libs graph:Regions.obj
 0001:00068f30       _ShowElem                  00469f30 f   libs graph:Regions.obj
 0001:00068fa0       _HideElem                  00469fa0 f   libs graph:Regions.obj
 0001:00069000       _ShowElemAll               0046a000 f   libs graph:Regions.obj
 0001:00069050       _HideElemAll               0046a050 f   libs graph:Regions.obj
 0001:000690b0       _MoveElem                  0046a0b0 f   libs graph:Regions.obj
 0001:00069180       _ChangeElemPos             0046a180 f   libs graph:Regions.obj
 0001:00069240       _SetClipDest               0046a240 f   libs graph:Regions.obj
 0001:00069300       _RedrawEcran               0046a300 f   libs graph:Regions.obj
 0001:000693d0       _DrawEcranIntoBmp          0046a3d0 f   libs graph:Regions.obj
 0001:00069470       _RefreshEcran              0046a470 f   libs graph:Regions.obj
 0001:000699b0       _SetBmpEcran               0046a9b0 f   libs graph:Regions.obj
 0001:00069af0       _GetBmpEcran               0046aaf0 f   libs graph:Regions.obj
 0001:00069b00       _RefreshRealScreen         0046ab00 f   libs graph:Regions.obj
 0001:00069c40       _RedrawRealScreen          0046ac40 f   libs graph:Regions.obj
 0001:00069c80       _SetEcranBackColor         0046ac80 f   libs graph:Regions.obj
 0001:00069cd0       _SetEcranBackPattern       0046acd0 f   libs graph:Regions.obj
 0001:00069d20       _CopieEcran                0046ad20 f   libs graph:Regions.obj
 0001:00069d50       ?end@?$list@VCMDORECT@@V?$__default_alloc_template@$00$0A@@@@@QAE?AU?$_List_iterator@VCMDORECT@@AAV1@PAV1@@@XZ 0046ad50 f i libs graph:Regions.obj
 0001:00069d60       ??1?$list@VCMDORECT@@V?$__default_alloc_template@$00$0A@@@@@QAE@XZ 0046ad60 f i libs graph:Regions.obj
 0001:00069ec0       ??0?$_List_iterator@VCMDORECT@@AAV1@PAV1@@@QAE@ABU0@@Z 0046aec0 f i libs graph:Regions.obj
 0001:00069ed0       ??0?$list@PAVECRAN_ELEM@@V?$__default_alloc_template@$00$0A@@@@@QAE@ABV?$__default_alloc_template@$00$0A@@@@Z 0046aed0 f i libs graph:Regions.obj
 0001:00069f90       ?insert@?$list@PAVECRAN_ELEM@@V?$__default_alloc_template@$00$0A@@@@@QAE?AU?$_List_iterator@PAVECRAN_ELEM@@AAPAV1@PAPAV1@@@U2@ABQAVECRAN_ELEM@@@Z 0046af90 f i libs graph:Regions.obj
 0001:00069fc0       ?erase@?$list@PAVECRAN_ELEM@@V?$__default_alloc_template@$00$0A@@@@@QAE?AU?$_List_iterator@PAVECRAN_ELEM@@AAPAV1@PAPAV1@@@U2@@Z 0046afc0 f i libs graph:Regions.obj
 0001:00069ff0       ??1?$list@PAVECRAN_ELEM@@V?$__default_alloc_template@$00$0A@@@@@QAE@XZ 0046aff0 f i libs graph:Regions.obj
 0001:0006a150       ??0?$_List_iterator@PAVECRAN_ELEM@@AAPAV1@PAPAV1@@@QAE@ABU0@@Z 0046b150 f i libs graph:Regions.obj
 0001:0006a160       ?insert@?$list@VCMDORECT@@V?$__default_alloc_template@$00$0A@@@@@QAE?AU?$_List_iterator@VCMDORECT@@AAV1@PAV1@@@U2@ABVCMDORECT@@@Z 0046b160 f i libs graph:Regions.obj
 0001:0006a190       ??0?$_List_base@VCMDORECT@@V?$__default_alloc_template@$00$0A@@@@@QAE@ABV?$__default_alloc_template@$00$0A@@@@Z 0046b190 f i libs graph:Regions.obj
 0001:0006a1b0       ?_M_create_node@?$list@PAVECRAN_ELEM@@V?$__default_alloc_template@$00$0A@@@@@IAEPAU?$_List_node@PAVECRAN_ELEM@@@@ABQAVECRAN_ELEM@@@Z 0046b1b0 f i libs graph:Regions.obj
 0001:0006a270       ?_M_create_node@?$list@VCMDORECT@@V?$__default_alloc_template@$00$0A@@@@@IAEPAU?$_List_node@VCMDORECT@@@@ABVCMDORECT@@@Z 0046b270 f i libs graph:Regions.obj
 0001:0006a390       ?IsPixelTransp@@YA_NPAUmdobitmap@@JJ@Z 0046b390 f   libs graph:Zones.obj
 0001:0006a460       _IsZoneExist               0046b460 f   libs graph:Zones.obj
 0001:0006a4d0       _AddRectToZone             0046b4d0 f   libs graph:Zones.obj
 0001:0006a560       _GetZoneData               0046b560 f   libs graph:Zones.obj
 0001:0006a590       _SetZoneData               0046b590 f   libs graph:Zones.obj
 0001:0006a5d0       _SetZoneZOrder             0046b5d0 f   libs graph:Zones.obj
 0001:0006a690       _ActivateZone              0046b690 f   libs graph:Zones.obj
 0001:0006a6c0       _UnactivateZone            0046b6c0 f   libs graph:Zones.obj
 0001:0006a6f0       _ActivateAllZone           0046b6f0 f   libs graph:Zones.obj
 0001:0006a720       _UnactivateAllZone         0046b720 f   libs graph:Zones.obj
 0001:0006a750       _SetZoneVisibleRegion      0046b750 f   libs graph:Zones.obj
 0001:0006a7a0       _ActiveZoneManageCursor    0046b7a0 f   libs graph:Zones.obj
 0001:0006a7d0       _UnactiveZoneManageCursor  0046b7d0 f   libs graph:Zones.obj
 0001:0006a800       _DoesZoneManageCursor      0046b800 f   libs graph:Zones.obj
 0001:0006a840       _SetZonePos                0046b840 f   libs graph:Zones.obj
 0001:0006a8e0       _CreateZone                0046b8e0 f   libs graph:Zones.obj
 0001:0006aa10       _CreateMaskZone            0046ba10 f   libs graph:Zones.obj
 0001:0006ab00       ?CreateGenericZone@@YAPAXPAVMDOGenericZone@@JJJJ@Z 0046bb00 f   libs graph:Zones.obj
 0001:0006abd0       ?GetMDOGenericZone@@YAPAVMDOGenericZone@@PAX@Z 0046bbd0 f   libs graph:Zones.obj
 0001:0006abe0       _DeleteZone                0046bbe0 f   libs graph:Zones.obj
 0001:0006ac80       _GetActiveZone             0046bc80 f   libs graph:Zones.obj
 0001:0006ae00       ??0?$list@PAVCMDOZone@@V?$__default_alloc_template@$00$0A@@@@@QAE@ABV?$__default_alloc_template@$00$0A@@@@Z 0046be00 f i libs graph:Zones.obj
 0001:0006aec0       ?begin@?$list@PAVCMDOZone@@V?$__default_alloc_template@$00$0A@@@@@QAE?AU?$_List_iterator@PAVCMDOZone@@AAPAV1@PAPAV1@@@XZ 0046bec0 f i libs graph:Zones.obj
 0001:0006aed0       ?end@?$list@PAVCMDOZone@@V?$__default_alloc_template@$00$0A@@@@@QAE?AU?$_List_iterator@PAVCMDOZone@@AAPAV1@PAPAV1@@@XZ 0046bed0 f i libs graph:Zones.obj
 0001:0006aee0       ?insert@?$list@PAVCMDOZone@@V?$__default_alloc_template@$00$0A@@@@@QAE?AU?$_List_iterator@PAVCMDOZone@@AAPAV1@PAPAV1@@@U2@ABQAVCMDOZone@@@Z 0046bee0 f i libs graph:Zones.obj
 0001:0006af10       ?erase@?$list@PAVCMDOZone@@V?$__default_alloc_template@$00$0A@@@@@QAE?AU?$_List_iterator@PAVCMDOZone@@AAPAV1@PAPAV1@@@U2@@Z 0046bf10 f i libs graph:Zones.obj
 0001:0006af40       ??1?$list@PAVCMDOZone@@V?$__default_alloc_template@$00$0A@@@@@QAE@XZ 0046bf40 f i libs graph:Zones.obj
 0001:0006b0a0       ??0?$_List_iterator@PAVCMDOZone@@AAPAV1@PAPAV1@@@QAE@ABU0@@Z 0046c0a0 f i libs graph:Zones.obj
 0001:0006b0b0       ??E?$_List_iterator@PAVCMDOZone@@AAPAV1@PAPAV1@@@QAE?AU0@H@Z 0046c0b0 f i libs graph:Zones.obj
 0001:0006b0c0       ?_M_create_node@?$list@PAVCMDOZone@@V?$__default_alloc_template@$00$0A@@@@@IAEPAU?$_List_node@PAVCMDOZone@@@@ABQAVCMDOZone@@@Z 0046c0c0 f i libs graph:Zones.obj
 0001:0006b180       ?find@@YA?AU?$_List_iterator@PAVCMDOZone@@AAPAV1@PAPAV1@@@U1@0ABQAX@Z 0046c180 f i libs graph:Zones.obj
 0001:0006b1c0       ?find@@YA?AU?$_List_iterator@PAVCMDOZone@@AAPAV1@PAPAV1@@@U1@0ABQAXUinput_iterator_tag@@@Z 0046c1c0 f i libs graph:Zones.obj
 0001:0006b1f0       ?MyReleaseFont@@YAPAXPAX@Z 0046c1f0 f   libs graph:newfont.obj
 0001:0006b460       _StringDisplayRGB          0046c460 f   libs graph:newfont.obj
 0001:0006b510       _GXloadFont                0046c510 f   libs graph:newfont.obj
 0001:0006b630       _GXfreeFont                0046c630 f   libs graph:newfont.obj
 0001:0006b750       _GRdispChar                0046c750 f   libs graph:newfont.obj
 0001:0006b7d0       _GRdispCharRGB             0046c7d0 f   libs graph:newfont.obj
 0001:0006c040       _GRdispCharWIN             0046d040 f   libs graph:newfont.obj
 0001:0006c0c0       _GRdispCharVESA            0046d0c0 f   libs graph:newfont.obj
 0001:0006c290       ??0DMultiLoad@@QAE@P6APAXPBD@ZP6APAXPAX@Z@Z 0046d290 f i libs graph:newfont.obj
 0001:0006c370       ??1DMultiLoad@@QAE@XZ      0046d370 f i libs graph:newfont.obj
 0001:0006c500       _BuildAlphaTables          0046d500 f   libs graph:PictMoves.obj
 0001:0006c570       _InitMoveLoopParam         0046d570 f   libs graph:PictMoves.obj
 0001:0006c6c0       _GRcopyAlpha               0046d6c0 f   libs graph:PictMoves.obj
 0001:0006c750       _GRblendAlpha              0046d750 f   libs graph:PictMoves.obj
 0001:0006c870       _GRalphaMove               0046d870 f   libs graph:PictMoves.obj
 0001:0006c970       _GRalphaChangeValue        0046d970 f   libs graph:PictMoves.obj
 0001:0006caa0       _GRchangeZone              0046daa0 f   libs graph:PictMoves.obj
 0001:0006cd30       _GRpictCopy                0046dd30 f   libs graph:PictMoves.obj
 0001:0006d9a0       _GRpictCopyXYLH            0046e9a0 f   libs graph:PictMoves.obj
 0001:0006d9f0       _GRDupBitmap               0046e9f0 f   libs graph:PictMoves.obj
 0001:0006da70       _GRpictMoveSolid           0046ea70 f   libs graph:PictMoves.obj
 0001:0006da90       _GRpictMoveTransparent     0046ea90 f   libs graph:PictMoves.obj
 0001:0006e500       _GRpictMoveHalf            0046f500 f   libs graph:PictMoves.obj
 0001:0006f330       _GRpictMoveDoubleSize      00470330 f   libs graph:PictMoves.obj
 0001:0006f5c0       _GRpictMoveHSym            004705c0 f   libs graph:PictMoves.obj
 0001:0006fa80       _GRpictMoveMain            00470a80 f   libs graph:PictMoves.obj
 0001:0006fc00       _memdouble                 00470c00 f   libs graph:More_24.obj
 0001:0006fc40       _memcpyTn                  00470c40 f   libs graph:More_24.obj
 0001:0006fc70       _memcpyTW                  00470c70 f   libs graph:More_24.obj
 0001:0006fcb0       _memsetW                   00470cb0 f   libs graph:More_24.obj
 0001:0006fce0       _GetRVB16                  00470ce0 f   libs graph:More_24.obj
 0001:0006fd10       _GetColor                  00470d10 f   libs graph:More_24.obj
 0001:0006fdb0       _GRplotRGB                 00470db0 f   libs graph:More_24.obj
 0001:0006fed0       _GRfillZoneRGB             00470ed0 f   libs graph:More_24.obj
 0001:00070280       _GRpictMoveWIN24           00471280 f   libs graph:More_24.obj
 0001:000702c0       _GXdrawText                004712c0 f   libs graph:GXdrawText.obj
 0001:00070680       _GXgetHeightText           00471680 f   libs graph:GXdrawText.obj
 0001:000707f0       _GXdrawString              004717f0 f   libs graph:GXdrawText.obj
 0001:00070910       _GXgetWidthText            00471910 f   libs graph:GXdrawText.obj
 0001:000709b0       ?CopyDIBfromBmp@@YAXPAUmdobitmap@@PAPAUtagBITMAPINFO@@PAPAX@Z 004719b0 f   libs graph:PrintBitmapPC.obj
 0001:00070c20       ?GetHBITMAPFromBitMap@@YAPAUHBITMAP__@@PAUmdobitmap@@@Z 00471c20 f   libs graph:PrintBitmapPC.obj
 0001:00070c80       _GetHCURSORFromBitMap      00471c80 f   libs graph:PrintBitmapPC.obj
 0001:00070ea0       _GetHICONFromBitMap        00471ea0 f   libs graph:PrintBitmapPC.obj
 0001:00070f70       _PrintBitmap               00471f70 f   libs graph:PrintBitmapPC.obj
 0001:00071400       _GXreadMouse               00472400 f   libs graph:cursor.obj
 0001:00071450       _GXsetMousePos             00472450 f   libs graph:cursor.obj
 0001:00071480       _ResetAllowedRect          00472480 f   libs graph:cursor.obj
 0001:000714a0       _SetAllowedRect            004724a0 f   libs graph:cursor.obj
 0001:00071500       _SetMouseSpeed             00472500 f   libs graph:cursor.obj
 0001:00071520       _UpdateCursor              00472520 f   libs graph:cursor.obj
 0001:00071ae0       _GXreadCorrectedMousePos   00472ae0 f   libs graph:cursor.obj
 0001:00071b20       _CopieCurseurSurEcran      00472b20 f   libs graph:cursor.obj
 0001:00071d60       _SetCursorFromVmd          00472d60 f   libs graph:cursor.obj
 0001:00071fc0       _SetCursorFromBmp          00472fc0 f   libs graph:cursor.obj
 0001:00072250       ?EnleveCurseur@@YAXPAUmdobitmap@@HHHHHH@Z 00473250 f   libs graph:cursor.obj
 0001:00072370       _InitCursorMDO             00473370 f   libs graph:cursor.obj
 0001:00072390       _CloseCursorMDO            00473390 f   libs graph:cursor.obj
 0001:000723f0       _FillDansEcranReel         004733f0 f   libs graph:cursor.obj
 0001:00072480       _HideMDOCursor             00473480 f   libs graph:cursor.obj
 0001:00072520       _ShowMDOCursor             00473520 f   libs graph:cursor.obj
 0001:00072570       _ActivateMDOCursor         00473570 f   libs graph:cursor.obj
 0001:000725a0       _CheckCursor               004735a0 f   libs graph:cursor.obj
 0001:000725c0       _ComputePartialRemapPal    004735c0 f   libs graph:Adapt24.obj
 0001:00072860       _ComputeFullRemapPal       00473860 f   libs graph:Adapt24.obj
 0001:00072a40       _ChangeBitmapPalette       00473a40 f   libs graph:Adapt24.obj
 0001:00072bc0       _MoveAdapt                 00473bc0 f   libs graph:Adapt24.obj
 0001:00072c40       _SetFrom8Pal               00473c40 f   libs graph:Adapt24.obj
 0001:00072c60       _GetFrom8Pal               00473c60 f   libs graph:Adapt24.obj
 0001:00072c80       _ChangePaletteColor        00473c80 f   libs graph:Adapt24.obj
 0001:00072d30       _GetPaletteColor           00473d30 f   libs graph:Adapt24.obj
 0001:00072d80       _CopyPalette               00473d80 f   libs graph:Adapt24.obj
 0001:00072e20       _GetPixelIndex             00473e20 f   libs graph:Adapt24.obj
 0001:00072e80       _SetPixelIndex             00473e80 f   libs graph:Adapt24.obj
 0001:00072ee0       _Make32kTo16M              00473ee0 f   libs graph:Mpixels.obj
 0001:00072f50       _GetR                      00473f50 f   libs graph:Mpixels.obj
 0001:00073010       _GetG                      00474010 f   libs graph:Mpixels.obj
 0001:000730d0       _GetB                      004740d0 f   libs graph:Mpixels.obj
 0001:000731a0       _PutRGB                    004741a0 f   libs graph:Mpixels.obj
 0001:000732d0       _GetRGB                    004742d0 f   libs graph:Mpixels.obj
 0001:00073450       _PutAlpha                  00474450 f   libs graph:Mpixels.obj
 0001:000734b0       _GetAlpha                  004744b0 f   libs graph:Mpixels.obj
 0001:00073500       _ClearAlpha                00474500 f   libs graph:Mpixels.obj
 0001:00073550       ?DrawEquation@@YAXPADHHPAUstruct_FONT@@1HPAUmdobitmap@@@Z 00474550 f   libs graph:GXEquation.obj
 0001:00073600       ?GetSizeEquation@@YAXPADPAH11PAUstruct_FONT@@2PAUmdobitmap@@@Z 00474600 f   libs graph:GXEquation.obj
 0001:000736d0       ??0CEquation@@QAE@PADPAUstruct_FONT@@1HPAUmdobitmap@@@Z 004746d0 f   libs graph:GXEquation.obj
 0001:00073780       ?GetSize@CEquation@@QAEHPAH00@Z 00474780 f   libs graph:GXEquation.obj
 0001:000737d0       ?Draw@CEquation@@QAEHHH@Z  004747d0 f   libs graph:GXEquation.obj
 0001:00073820       ?FillWidthFont@CEquation@@QAEXHEHHH@Z 00474820 f   libs graph:GXEquation.obj
 0001:00073910       ??1CEquation@@QAE@XZ       00474910 f   libs graph:GXEquation.obj
 0001:00073930       ??0CNodeEquation@@QAE@PAVCEquation@@H@Z 00474930 f   libs graph:GXEquation.obj
 0001:00073d00       ??1CNodeEquation@@QAE@XZ   00474d00 f   libs graph:GXEquation.obj
 0001:00073d50       ?GetType@CNodeEquation@@IAEHPAD@Z 00474d50 f   libs graph:GXEquation.obj
 0001:00073de0       ?GetMarge@CNodeEquation@@IAEHH@Z 00474de0 f   libs graph:GXEquation.obj
 0001:00073e50       ?GetSize@CNodeEquation@@QAEXPAUSEquationSize@@@Z 00474e50 f   libs graph:GXEquation.obj
 0001:00074190       ?Draw@CNodeEquation@@QAEXHH@Z 00475190 f   libs graph:GXEquation.obj
 0001:00075200       ??0CFloodFill@@QAE@PAUmdobitmap@@JJKKW4EFillStyle@0@@Z 00476200 f   libs graph:GraphPrimitives.obj
 0001:00075230       ?CalcAddress@CFloodFill@@MAEPAXJJ@Z 00476230 f   libs graph:GraphPrimitives.obj
 0001:00075280       ?LineAdjFill@CFloodFill@@IAEJJJJJJ@Z 00476280 f   libs graph:GraphPrimitives.obj
 0001:000753e0       ??0CFloodFill16@@QAE@PAUmdobitmap@@JJKKW4EFillStyle@CFloodFill@@@Z 004763e0 f   libs graph:GraphPrimitives.obj
 0001:00075450       ?ColorToC15@CFloodFill16@@AAEKK@Z 00476450 f   libs graph:GraphPrimitives.obj
 0001:00075480       ?GetPixel@CFloodFill16@@MAEKJJ@Z 00476480 f   libs graph:GraphPrimitives.obj
 0001:000754a0       ?ScanLeft@CFloodFill16@@MAEJJJJW4EScanMode@CFloodFill@@@Z 004764a0 f   libs graph:GraphPrimitives.obj
 0001:00075520       ?ScanRight@CFloodFill16@@MAEJJJJW4EScanMode@CFloodFill@@@Z 00476520 f   libs graph:GraphPrimitives.obj
 0001:000755a0       ?Line@CFloodFill16@@MAEXJJJ@Z 004765a0 f   libs graph:GraphPrimitives.obj
 0001:000755e0       ??0CFloodFill24@@QAE@PAUmdobitmap@@JJKKW4EFillStyle@CFloodFill@@@Z 004765e0 f   libs graph:GraphPrimitives.obj
 0001:00075650       ?ColorToC24@CFloodFill24@@AAEKK@Z 00476650 f   libs graph:GraphPrimitives.obj
 0001:00075660       ?GetPixel@CFloodFill24@@MAEKJJ@Z 00476660 f   libs graph:GraphPrimitives.obj
 0001:00075680       ?ScanLeft@CFloodFill24@@MAEJJJJW4EScanMode@CFloodFill@@@Z 00476680 f   libs graph:GraphPrimitives.obj
 0001:00075700       ?ScanRight@CFloodFill24@@MAEJJJJW4EScanMode@CFloodFill@@@Z 00476700 f   libs graph:GraphPrimitives.obj
 0001:00075780       ?Line@CFloodFill24@@MAEXJJJ@Z 00476780 f   libs graph:GraphPrimitives.obj
 0001:000757d0       ??0CFloodFill8@@QAE@PAUmdobitmap@@JJKKW4EFillStyle@CFloodFill@@@Z 004767d0 f   libs graph:GraphPrimitives.obj
 0001:00075840       ?GetPixel@CFloodFill8@@MAEKJJ@Z 00476840 f   libs graph:GraphPrimitives.obj
 0001:00075860       ?ScanLeft@CFloodFill8@@MAEJJJJW4EScanMode@CFloodFill@@@Z 00476860 f   libs graph:GraphPrimitives.obj
 0001:000758d0       ?ScanRight@CFloodFill8@@MAEJJJJW4EScanMode@CFloodFill@@@Z 004768d0 f   libs graph:GraphPrimitives.obj
 0001:00075940       ?Line@CFloodFill8@@MAEXJJJ@Z 00476940 f   libs graph:GraphPrimitives.obj
 0001:00075990       ??0CFloodFillAlpha@@QAE@PAUmdobitmap@@JJKKW4EFillStyle@CFloodFill@@@Z 00476990 f   libs graph:GraphPrimitives.obj
 0001:000759e0       ?CalcAddress@CFloodFillAlpha@@MAEPAXJJ@Z 004769e0 f   libs graph:GraphPrimitives.obj
 0001:00075a20       ?GetPixel@CFloodFillAlpha@@MAEKJJ@Z 00476a20 f   libs graph:GraphPrimitives.obj
 0001:00075a40       ?ScanLeft@CFloodFillAlpha@@MAEJJJJW4EScanMode@CFloodFill@@@Z 00476a40 f   libs graph:GraphPrimitives.obj
 0001:00075ab0       ?ScanRight@CFloodFillAlpha@@MAEJJJJW4EScanMode@CFloodFill@@@Z 00476ab0 f   libs graph:GraphPrimitives.obj
 0001:00075b20       ?Line@CFloodFillAlpha@@MAEXJJJ@Z 00476b20 f   libs graph:GraphPrimitives.obj
 0001:00075b70       _GRfloodFill               00476b70 f   libs graph:GraphPrimitives.obj
 0001:00075c10       _GRfloodFillAlpha          00476c10 f   libs graph:GraphPrimitives.obj
 0001:00075c70       _UnMakeTGA                 00476c70 f   libs graph:Mtga.obj
 0001:000766e0       _UnMakeTGAforTools         004776e0 f   libs graph:Mtga.obj
 0001:00076840       _MakeTGA                   00477840 f   libs graph:Mtga.obj
 0001:00076c40       _GSstartSound              00477c40 f   libs graph:mdosound.obj
 0001:00076d40       _GSstartSoundII            00477d40 f   libs graph:mdosound.obj
 0001:00076e50       _GSstartSoundIII           00477e50 f   libs graph:mdosound.obj
 0001:00076f60       _GSstopSound               00477f60 f   libs graph:mdosound.obj
 0001:00076f80       _GSsetVolume               00477f80 f   libs graph:mdosound.obj
 0001:00076fb0       _GSPauseSound              00477fb0 f   libs graph:mdosound.obj
 0001:00076fd0       _GSResumeSound             00477fd0 f   libs graph:mdosound.obj
 0001:00076ff0       _InitDataSound             00477ff0 f   libs graph:mdosound.obj
 0001:00077060       _initfctsons               00478060 f   libs graph:mdosound.obj
 0001:00077080       _CloseDataSound            00478080 f   libs graph:mdosound.obj
 0001:000770a0       _GetTrackSoundPos          004780a0 f   libs graph:mdosound.obj
 0001:000770c0       ?GetTrackVol@@YAKH@Z       004780c0 f   libs graph:mdosound.obj
 0001:000770e0       _SetTrackFeedPosition      004780e0 f   libs graph:mdosound.obj
 0001:00077160       _AddVMDToAutoplayList      00478160 f   libs graph:mdosound.obj
 0001:000771a0       _RemoveVMDToAutoplayList   004781a0 f   libs graph:mdosound.obj
 0001:000771e0       _TrackLoop                 004781e0 f   libs graph:mdosound.obj
 0001:000773d0       _GXloadSound               004783d0 f   libs graph:mdosound.obj
 0001:00077600       _GXfreeSound               00478600 f   libs graph:mdosound.obj
 0001:00077680       ?GXsound@@YAXF@Z           00478680 f   libs graph:mdosound.obj
 0001:00077690       ?GXnosound@@YAXXZ          00478690 f   libs graph:mdosound.obj
 0001:000776a0       ?WaitNoSound@@YAXXZ        004786a0 f   libs graph:mdosound.obj
 0001:000776b0       _SuspendTrack              004786b0 f   libs graph:mdosound.obj
 0001:000776e0       _TrackInProcess            004786e0 f   libs graph:mdosound.obj
 0001:00077710       ?MDOGetSoundVolume@@YAJXZ  00478710 f   libs graph:mdosound.obj
 0001:00077720       ?MDOSetSoundVolume@@YACJ@Z 00478720 f   libs graph:mdosound.obj
 0001:00077730       ??0?$list@PAUIMD@@V?$__default_alloc_template@$00$0A@@@@@QAE@ABV?$__default_alloc_template@$00$0A@@@@Z 00478730 f i libs graph:mdosound.obj
 0001:000777f0       ?end@?$list@PAUIMD@@V?$__default_alloc_template@$00$0A@@@@@QAE?AU?$_List_iterator@PAUIMD@@AAPAU1@PAPAU1@@@XZ 004787f0 f i libs graph:mdosound.obj
 0001:00077800       ??1?$list@PAUIMD@@V?$__default_alloc_template@$00$0A@@@@@QAE@XZ 00478800 f i libs graph:mdosound.obj
 0001:00077960       ??0?$_List_iterator@PAUIMD@@AAPAU1@PAPAU1@@@QAE@ABU0@@Z 00478960 f i libs graph:mdosound.obj
 0001:00077970       ?insert@?$list@PAUIMD@@V?$__default_alloc_template@$00$0A@@@@@QAE?AU?$_List_iterator@PAUIMD@@AAPAU1@PAPAU1@@@U2@ABQAUIMD@@@Z 00478970 f i libs graph:mdosound.obj
 0001:000779a0       ?_M_create_node@?$list@PAUIMD@@V?$__default_alloc_template@$00$0A@@@@@IAEPAU?$_List_node@PAUIMD@@@@ABQAUIMD@@@Z 004789a0 f i libs graph:mdosound.obj
 0001:00077a60       ?erase@?$list@PAUIMD@@V?$__default_alloc_template@$00$0A@@@@@QAE?AU?$_List_iterator@PAUIMD@@AAPAU1@PAPAU1@@@U2@@Z 00478a60 f i libs graph:mdosound.obj
 0001:00077a90       _InitGraph                 00478a90 f   libs graph:SysGraphicPC.obj
 0001:00077c30       _CloseGraph                00478c30 f   libs graph:SysGraphicPC.obj
 0001:00077ce0       _SetRealScreen             00478ce0 f   libs graph:SysGraphicPC.obj
 0001:00077e90       _SelectWindow              00478e90 f   libs graph:SysGraphicPC.obj
 0001:00077ef0       _UnSelectWindow            00478ef0 f   libs graph:SysGraphicPC.obj
 0001:00077f20       _ReadTimer                 00478f20 f   libs graph:SysGraphicPC.obj
 0001:00077f30       _SystemLoop                00478f30 f   libs graph:SysGraphicPC.obj
 0001:00077f40       _ProgressBarDebug          00478f40 f   libs graph:SysGraphicPC.obj
 0001:00077f70       _GetNextSoundBlocSize      00478f70 f   libs graph:Vmd.obj
 0001:00077fc0       _GetPackedSize             00478fc0 f   libs graph:Vmd.obj
 0001:00077ff0       _IMDread                   00478ff0 f   libs graph:Vmd.obj
 0001:00078040       _ReadHeaderIMD             00479040 f   libs graph:Vmd.obj
 0001:00078760       _ReadUnStreamedData        00479760 f   libs graph:Vmd.obj
 0001:00078850       _GetIMDTextInfoStruct      00479850 f   libs graph:Vmd.obj
 0001:00078950       _GetIMDTextInfo            00479950 f   libs graph:Vmd.obj
 0001:000789e0       _GetIMDTac                 004799e0 f   libs graph:Vmd.obj
 0001:00078b30       _OpenIMD                   00479b30 f   libs graph:Vmd.obj
 0001:00078fd0       _SetVolumeIMD              00479fd0 f   libs graph:Vmd.obj
 0001:00079000       _GetVolumeIMD              0047a000 f   libs graph:Vmd.obj
 0001:00079010       _CloseIMD                  0047a010 f   libs graph:Vmd.obj
 0001:000792e0       _GetActiveTrack            0047a2e0 f   libs graph:Vmd.obj
 0001:00079330       _SetIMD_XY                 0047a330 f   libs graph:Vmd.obj
 0001:00079450       _CreateBitmapIMD           0047a450 f   libs graph:Vmd.obj
 0001:000794c0       _ReboucleVMD               0047a4c0 f   libs graph:Vmd.obj
 0001:00079500       _ViewIMD                   0047a500 f   libs graph:Vmd.obj
 0001:0007ad20       _OpenIMDDev7               0047bd20 f   libs graph:Vmd.obj
 0001:0007af30       _PauseIMD                  0047bf30 f   libs graph:Vmd.obj
 0001:0007af80       _StopIMD                   0047bf80 f   libs graph:Vmd.obj
 0001:0007afd0       _ConvertVmd2SND            0047bfd0 f   libs graph:Vmd.obj
 0001:0007b600       _InitCache                 0047c600 f   libs graph:Cache.obj
 0001:0007c580       _CloseCache                0047d580 f   libs graph:Cache.obj
 0001:0007c6b0       _InCachePtr                0047d6b0 f   libs graph:Cache.obj
 0001:0007c750       _InCacheName               0047d750 f   libs graph:Cache.obj
 0001:0007c840       _FlushCachePtr             0047d840 f   libs graph:Cache.obj
 0001:0007c8d0       _FlushCacheName            0047d8d0 f   libs graph:Cache.obj
 0001:0007c9a0       _LoadCachePtr              0047d9a0 f   libs graph:Cache.obj
 0001:0007cc80       _LoadCacheName             0047dc80 f   libs graph:Cache.obj
 0001:0007cd90       _IsReadyIMD                0047dd90 f   libs graph:Dvmd.obj
 0001:0007cf00       _ViewDelayIMD              0047df00 f   libs graph:Dvmd.obj
 0001:0007cf90       _ViewIMDs                  0047df90 f   libs graph:Dvmd.obj
 0001:0007d220       _GRinvertRectWIN           0047e220 f   libs graph:More_gr.obj
 0001:0007d2e0       _GRplotWIN                 0047e2e0 f   libs graph:More_gr.obj
 0001:0007d410       _GRpictMoveWIN             0047e410 f   libs graph:More_gr.obj
 0001:0007d9c0       _GRfillZoneWIN             0047e9c0 f   libs graph:More_gr.obj
 0001:0007daa0       _VidCreate                 0047eaa0 f   libs graph:ChangeVideoModePC.obj
 0001:0007db00       _VidDestroy                0047eb00 f   libs graph:ChangeVideoModePC.obj
 0001:0007db20       _EnumDisplayModesCallback@8 0047eb20 f   libs graph:ChangeVideoModePC.obj
 0001:0007dba0       _VidSearchClosestAvailableRes 0047eba0 f   libs graph:ChangeVideoModePC.obj
 0001:0007dc10       _VidSetDisplayMode         0047ec10 f   libs graph:ChangeVideoModePC.obj
 0001:0007dce0       _VidRestoreDisplayMode     0047ece0 f   libs graph:ChangeVideoModePC.obj
 0001:0007dd20       _GetMonitorMode            0047ed20 f   libs graph:ChangeVideoModePC.obj
 0001:0007dd70       _SaveUserMonitorSetting    0047ed70 f   libs graph:ChangeVideoModePC.obj
 0001:0007dd90       _RestoreUserMonitorSetting 0047ed90 f   libs graph:ChangeVideoModePC.obj
 0001:0007dea0       _SetMonitorSetting         0047eea0 f   libs graph:ChangeVideoModePC.obj
 0001:0007dec0       _SetBITMAPPalette          0047eec0 f   libs graph:CodecPC.obj
 0001:0007df00       _InitCodec                 0047ef00 f   libs graph:CodecPC.obj
 0001:0007e1b0       _CloseDCodec               0047f1b0 f   libs graph:CodecPC.obj
 0001:0007e210       _CloseVFW                  0047f210 f   libs graph:CodecPC.obj
 0001:0007e230       _InstallVFW                0047f230 f   libs graph:CodecPC.obj
 0001:0007e280       _IsVFWInstalled            0047f280 f   libs graph:CodecPC.obj
 0001:0007e290       _SetPaletteVMD             0047f290 f   libs graph:CodecPC.obj
 0001:0007e2a0       _DecompressCodec           0047f2a0 f   libs graph:CodecPC.obj
 0001:0007e3e0       _InitLHCodec               0047f3e0 f   libs graph:LHCodec.obj
 0001:0007e5f0       _CloseLHCodec              0047f5f0 f   libs graph:LHCodec.obj
 0001:0007e670       _LHStartCompression        0047f670 f   libs graph:LHCodec.obj
 0001:0007e6f0       _LHGetAlignement           0047f6f0 f   libs graph:LHCodec.obj
 0001:0007e710       _LHEndCompression          0047f710 f   libs graph:LHCodec.obj
 0001:0007e740       _LHCompressSoundBloc       0047f740 f   libs graph:LHCodec.obj
 0001:0007e880       _LHStartDecompression      0047f880 f   libs graph:LHCodec.obj
 0001:0007e900       _LHEndDecompression        0047f900 f   libs graph:LHCodec.obj
 0001:0007e930       _LHDecompressSoundBloc     0047f930 f   libs graph:LHCodec.obj
 0001:0007ea30       _FillRectInMainWindow      0047fa30 f   libs graph:DrawPC.obj
 0001:0007eab0       _CopyBitmap24InMainWindow  0047fab0 f   libs graph:DrawPC.obj
 0001:0007ecb0       _CopyMainWindowInBitmap24  0047fcb0 f   libs graph:DrawPC.obj
 0001:0007ee30       _ClippingMove              0047fe30 f   libs graph:GraphTools.obj
 0001:0007ef00       _ClippingSimple            0047ff00 f   libs graph:GraphTools.obj
 0001:0007ef50       _UnMakeJPEG                0047ff50 f   libs graph:Djpeg.obj
 0001:0007f300       _MakeBRC                   00480300 f   libs graph:Mbrc.obj
 0001:00082f30       _UnMakeBRC                 00483f30 f   libs graph:Mbrc.obj
 0001:00083840       _UnMakeLBM                 00484840 f   libs graph:Mlbm.obj
 0001:00083900       ?DitherRow@CDepthCnv24_15@@IAEXPAEPAG@Z 00484900 f   libs graph:MImg.obj
 0001:00083b80       ?Execute@CDepthCnv24_15@@QAE_NPAUmdobitmap@@0_N1@Z 00484b80 f   libs graph:MImg.obj
 0001:00083da0       _UnMakeIMG                 00484da0 f   libs graph:MImg.obj
 0001:00084830       _AssignColors              00485830 f   libs graph:More.obj
 0001:00084a50       _AssignColorsPtr           00485a50 f   libs graph:More.obj
 0001:00084ab0       _GRassignColor             00485ab0 f   libs graph:More.obj
 0001:00084b00       _GRassignPalette           00485b00 f   libs graph:More.obj
 0001:00084cd0       _GetCursorPosInMainWindow  00485cd0 f   libs graph:CursorPC.obj
 0001:00084d30       _SetCursorPosInMainWindow  00485d30 f   libs graph:CursorPC.obj
 0001:00084d60       _DecompressAudio           00485d60 f   libs graph:Audioc.obj
 0001:00084eb0       _CompressAudio             00485eb0 f   libs graph:Audioc.obj
 0001:00084ff0       _OpenWAV                   00485ff0 f   libs graph:Openwav.obj
 0001:00085530       _CheckIMD_ptr              00486530 f   libs graph:Imd_ptr.obj
 0001:00085560       _AllocIMD_ptr              00486560 f   libs graph:Imd_ptr.obj
 0001:000856e0       _DoIMD_VESA                004866e0 f   libs graph:I_vesaPC.obj
 0001:00085bd0       _LoopPreLoad               00486bd0 f   libs graph:Loop.obj
 0001:00085d10       _FillLooping               00486d10 f   libs graph:Loop.obj
 0001:00085d70       _InLooping                 00486d70 f   libs graph:Loop.obj
 0001:00085dd0       _LoopRead                  00486dd0 f   libs graph:Loop.obj
 0001:00086060       _CountLoopUse              00487060 f   libs graph:Loop.obj
 0001:000860c0       _InitLooping               004870c0 f   libs graph:Loop.obj
 0001:00086120       _LoadInLooping             00487120 f   libs graph:Loop.obj
 0001:000861e0       _TimeStayLooping           004871e0 f   libs graph:Loop.obj
 0001:000862a0       _GRfillZoneVESA            004872a0 f   libs graph:Vesa32.obj
 0001:00086680       _GRpictMoveVESA            00487680 f   libs graph:Vesa32.obj
 0001:00086bd0       _GRplotVESA                00487bd0 f   libs graph:Vesa32.obj
 0001:00086bf0       _GRinvertRectVESA          00487bf0 f   libs graph:Vesa32.obj
 0001:00086c60       _GRinvertColorRect         00487c60 f   libs graph:Vesa32.obj
 0001:00086d40       _GRpictMoveDouble          00487d40 f   libs graph:Movedbl.obj
 0001:00086d80       _IFFdecomp                 00487d80 f   libs graph:Iff.obj
 0001:000872e0       _IFFload                   004882e0 f   libs graph:Iff.obj
 0001:00087390       _adpcm_coder               00488390 f   libs graph:Adpcm.obj
 0001:000874f0       _adpcm_coder_stereo        004884f0 f   libs graph:Adpcm.obj
 0001:00087750       _adpcm_decoder             00488750 f   libs graph:Adpcm.obj
 0001:00087860       _adpcm_decoder_stereo      00488860 f   libs graph:Adpcm.obj
 0001:00087a20       _adpcm_decoder_8           00488a20 f   libs graph:Adpcm.obj
 0001:00087b30       _DecompressSnd16           00488b30 f   libs graph:Sndpak32.obj
 0001:00087b90       _DecompressSnd168          00488b90 f   libs graph:Sndpak32.obj
 0001:00087c00       _DecompressSnd16s          00488c00 f   libs graph:Sndpak32.obj
 0001:00087c70       _DecompressSnd16sm         00488c70 f   libs graph:Sndpak32.obj
 0001:00087cc0       _DecompressSnd168s         00488cc0 f   libs graph:Sndpak32.obj
 0001:00087d10       _CompactSound16            00488d10 f   libs graph:Compsnd.obj
 0001:00087ec0       _CompactSound16s           00488ec0 f   libs graph:Compsnd.obj
 0001:000881a0       _memcpyDBL                 004891a0 f   libs graph:I_dbl.obj
 0001:000881e0       _jpeg_CreateDecompress     004891e0 f   Libs JPEG:jdapimin.obj
 0001:000882c0       _jpeg_destroy_decompress   004892c0 f   Libs JPEG:jdapimin.obj
 0001:000882d0       _jpeg_abort_decompress     004892d0 f   Libs JPEG:jdapimin.obj
 0001:000882e0       _jpeg_read_header          004892e0 f   Libs JPEG:jdapimin.obj
 0001:00088350       _jpeg_consume_input        00489350 f   Libs JPEG:jdapimin.obj
 0001:000885b0       _jpeg_input_complete       004895b0 f   Libs JPEG:jdapimin.obj
 0001:00088600       _jpeg_has_multiple_scans   00489600 f   Libs JPEG:jdapimin.obj
 0001:00088650       _jpeg_finish_decompress    00489650 f   Libs JPEG:jdapimin.obj
 0001:00088710       _jpeg_start_decompress     00489710 f   Libs JPEG:jdapistd.obj
 0001:000888c0       _jpeg_read_scanlines       004898c0 f   Libs JPEG:jdapistd.obj
 0001:00088960       _jpeg_read_raw_data        00489960 f   Libs JPEG:jdapistd.obj
 0001:00088a20       _jpeg_start_output         00489a20 f   Libs JPEG:jdapistd.obj
 0001:00088a90       _jpeg_finish_output        00489a90 f   Libs JPEG:jdapistd.obj
 0001:00088b30       _jpeg_stdio_src            00489b30 f   Libs JPEG:jdatasrc.obj
 0001:00088c80       _jpeg_std_error            00489c80 f   Libs JPEG:jerror.obj
 0001:00088e30       _jinit_input_controller    00489e30 f   Libs JPEG:jdinput.obj
 0001:00089430       _jpeg_resync_to_restart    0048a430 f   Libs JPEG:jdmarker.obj
 0001:00089640       _jinit_marker_reader       0048a640 f   Libs JPEG:jdmarker.obj
 0001:0008ae90       _jpeg_save_markers         0048be90 f   Libs JPEG:jdmarker.obj
 0001:0008b200       _jpeg_set_marker_processor 0048c200 f   Libs JPEG:jdmarker.obj
 0001:0008b250       _jinit_memory_mgr          0048c250 f   Libs JPEG:jmemmgr.obj
 0001:0008be70       _jpeg_abort                0048ce70 f   Libs JPEG:jcomapi.obj
 0001:0008beb0       _jpeg_destroy              0048ceb0 f   Libs JPEG:jcomapi.obj
 0001:0008bed0       _jpeg_alloc_quant_table    0048ced0 f   Libs JPEG:jcomapi.obj
 0001:0008bef0       _jpeg_alloc_huff_table     0048cef0 f   Libs JPEG:jcomapi.obj
 0001:0008bf10       _jpeg_calc_output_dimensions 0048cf10 f   Libs JPEG:jdmaster.obj
 0001:0008c1c0       _jpeg_new_colormap         0048d1c0 f   Libs JPEG:jdmaster.obj
 0001:0008c230       _jinit_master_decompress   0048d230 f   Libs JPEG:jdmaster.obj
 0001:0008c660       _jdiv_round_up             0048d660 f   Libs JPEG:jutils.obj
 0001:0008c670       _jround_up                 0048d670 f   Libs JPEG:jutils.obj
 0001:0008c690       _jcopy_sample_rows         0048d690 f   Libs JPEG:jutils.obj
 0001:0008c6e0       _jcopy_block_row           0048d6e0 f   Libs JPEG:jutils.obj
 0001:0008c710       _jzero_far                 0048d710 f   Libs JPEG:jutils.obj
 0001:0008c730       _jpeg_get_small            0048d730 f   Libs JPEG:jmemnobs.obj
 0001:0008c740       _jpeg_free_small           0048d740 f   Libs JPEG:jmemnobs.obj
 0001:0008c750       _jpeg_get_large            0048d750 f   Libs JPEG:jmemnobs.obj
 0001:0008c760       _jpeg_free_large           0048d760 f   Libs JPEG:jmemnobs.obj
 0001:0008c770       _jpeg_mem_available        0048d770 f   Libs JPEG:jmemnobs.obj
 0001:0008c780       _jpeg_open_backing_store   0048d780 f   Libs JPEG:jmemnobs.obj
 0001:0008c7a0       _jpeg_mem_init             0048d7a0 f   Libs JPEG:jmemnobs.obj
 0001:0008c7b0       _jpeg_mem_term             0048d7b0 f   Libs JPEG:jmemnobs.obj
 0001:0008c7c0       _jinit_d_main_controller   0048d7c0 f   Libs JPEG:jdmainct.obj
 0001:0008cea0       _jinit_d_coef_controller   0048dea0 f   Libs JPEG:jdcoefct.obj
 0001:0008de50       _jpeg_make_d_derived_tbl   0048ee50 f   Libs JPEG:jdhuff.obj
 0001:0008e130       _jpeg_fill_bit_buffer      0048f130 f   Libs JPEG:jdhuff.obj
 0001:0008e250       _jpeg_huff_decode          0048f250 f   Libs JPEG:jdhuff.obj
 0001:0008e340       _jinit_huff_decoder        0048f340 f   Libs JPEG:jdhuff.obj
 0001:0008e990       _jinit_phuff_decoder       0048f990 f   Libs JPEG:jdphuff.obj
 0001:0008f6f0       _jinit_inverse_dct         004906f0 f   Libs JPEG:jddctmgr.obj
 0001:0008f9b0       _jinit_d_post_controller   004909b0 f   Libs JPEG:jdpostct.obj
 0001:0008fd20       _jinit_upsampler           00490d20 f   Libs JPEG:jdsample.obj
 0001:000904a0       _jinit_color_deconverter   004914a0 f   Libs JPEG:jdcolor.obj
 0001:00090b10       _jinit_merged_upsampler    00491b10 f   Libs JPEG:jdmerge.obj
 0001:00091100       _jinit_2pass_quantizer     00492100 f   Libs JPEG:jquant2.obj
 0001:00092500       _jinit_1pass_quantizer     00493500 f   Libs JPEG:jquant1.obj
 0001:00093150       _jpeg_idct_islow           00494150 f   Libs JPEG:jidctint.obj
 0001:00093740       _jpeg_idct_ifast           00494740 f   Libs JPEG:jidctfst.obj
 0001:00093c00       _jpeg_idct_float           00494c00 f   Libs JPEG:jidctflt.obj
 0001:00094040       _jpeg_idct_4x4             00495040 f   Libs JPEG:jidctred.obj
 0001:000943f0       _jpeg_idct_2x2             004953f0 f   Libs JPEG:jidctred.obj
 0001:00094620       _jpeg_idct_1x1             00495620 f   Libs JPEG:jidctred.obj
 0001:00094660       ??0trkSoundBuffer@@QAE@KKK_NK@Z 00495660 f   Libs Tracker:SoundBuffer.obj
 0001:000946f0       ??0trkSoundBuffer@@QAE@KK_NK@Z 004956f0 f   Libs Tracker:SoundBuffer.obj
 0001:00094760       ??1trkSoundBuffer@@QAE@XZ  00495760 f   Libs Tracker:SoundBuffer.obj
 0001:00094780       ??4trkSoundBuffer@@QAEXABV0@@Z 00495780 f   Libs Tracker:SoundBuffer.obj
 0001:000947c0       ?GetBitsPerSample@trkSoundBuffer@@QBEKXZ 004957c0 f   Libs Tracker:SoundBuffer.obj
 0001:000947d0       ?GetBitsPerMonoSample@trkSoundBuffer@@QBEKXZ 004957d0 f   Libs Tracker:SoundBuffer.obj
 0001:000947e0       ?GetBytesPerSample@trkSoundBuffer@@QBEKXZ 004957e0 f   Libs Tracker:SoundBuffer.obj
 0001:000947f0       ?GetFrequency@trkSoundBuffer@@QBEKXZ 004957f0 f   Libs Tracker:SoundBuffer.obj
 0001:00094800       ?IsStereo@trkSoundBuffer@@QBE_NXZ 00495800 f   Libs Tracker:SoundBuffer.obj
 0001:00094810       ?GetSizeInBytes@trkSoundBuffer@@QBEKXZ 00495810 f   Libs Tracker:SoundBuffer.obj
 0001:00094820       ?GetNbSamples@trkSoundBuffer@@QBEKXZ 00495820 f   Libs Tracker:SoundBuffer.obj
 0001:00094830       ?GetData@trkSoundBuffer@@QBEPAEK@Z 00495830 f   Libs Tracker:SoundBuffer.obj
 0001:00094850       ?SetData@trkSoundBuffer@@QAEJKPAE@Z 00495850 f   Libs Tracker:SoundBuffer.obj
 0001:000948b0       ?CleanData@trkSoundBuffer@@QAEJKK@Z 004958b0 f   Libs Tracker:SoundBuffer.obj
 0001:00094980       ?ConvertNbSamples@trkSoundBuffer@@QBEKPBV1@K@Z 00495980 f   Libs Tracker:SoundBuffer.obj
 0001:000949b0       ?GetVolume@trkSoundBuffer@@QBEKXZ 004959b0 f   Libs Tracker:SoundBuffer.obj
 0001:000949c0       ?SetVolume@trkSoundBuffer@@QAEJK@Z 004959c0 f   Libs Tracker:SoundBuffer.obj
 0001:000949e0       ?SetFrequency@trkSoundBuffer@@QAEXK@Z 004959e0 f   Libs Tracker:SoundBuffer.obj
 0001:000949f0       ?ConvertFromBuffer@trkSoundBuffer@@QAEJPBV1@KKK@Z 004959f0 f   Libs Tracker:SoundBuffer.obj
 0001:00094b20       ?Cl_Copy@trkSoundBuffer@@AAEJPBV1@KKK@Z 00495b20 f   Libs Tracker:SoundBuffer.obj
 0001:00094d00       ?Cl_Resampling@trkSoundBuffer@@AAEJPBV1@KKK@Z 00495d00 f   Libs Tracker:SoundBuffer.obj
 0001:000952d0       ?Cl_ResChange@trkSoundBuffer@@AAEJPBV1@KKK@Z 004962d0 f   Libs Tracker:SoundBuffer.obj
 0001:000956a0       ?Cl_NbChChange@trkSoundBuffer@@AAEJPBV1@KKK@Z 004966a0 f   Libs Tracker:SoundBuffer.obj
 0001:00095ce0       ?Cl_ResamplingNbChChange@trkSoundBuffer@@AAEJPBV1@KKK@Z 00496ce0 f   Libs Tracker:SoundBuffer.obj
 0001:00096810       ?Cl_ResamplingResChange@trkSoundBuffer@@AAEJPBV1@KKK@Z 00497810 f   Libs Tracker:SoundBuffer.obj
 0001:00096d60       ?Cl_NbChChangeResChange@trkSoundBuffer@@AAEJPBV1@KKK@Z 00497d60 f   Libs Tracker:SoundBuffer.obj
 0001:000974f0       ?Cl_ChangeAll@trkSoundBuffer@@AAEJPBV1@KKK@Z 004984f0 f   Libs Tracker:SoundBuffer.obj
 0001:00097d90       ??0trkEffect@@QAE@XZ       00498d90 f   Libs Tracker:Effects.obj
 0001:00097db0       ??_EtrkEffect@@UAEPAXI@Z   00498db0 f i Libs Tracker:Effects.obj
 0001:00097db0       ??_GtrkEffect@@UAEPAXI@Z   00498db0 f i Libs Tracker:Effects.obj
 0001:00097dd0       ??1trkEffect@@UAE@XZ       00498dd0 f   Libs Tracker:Effects.obj
 0001:00097de0       ?GetVolume@trkEffect@@QBEKXZ 00498de0 f   Libs Tracker:Effects.obj
 0001:00097df0       ?SetVolume@trkEffect@@QAEJK@Z 00498df0 f   Libs Tracker:Effects.obj
 0001:00097e20       ??0trkDelay@@QAE@PBVtrkSoundBuffer@@KKK@Z 00498e20 f   Libs Tracker:Effects.obj
 0001:00097eb0       ??_EtrkDelay@@UAEPAXI@Z    00498eb0 f i Libs Tracker:Effects.obj
 0001:00097eb0       ??_GtrkDelay@@UAEPAXI@Z    00498eb0 f i Libs Tracker:Effects.obj
 0001:00097ed0       ??1trkDelay@@UAE@XZ        00498ed0 f   Libs Tracker:Effects.obj
 0001:00097f40       ?GetTime@trkDelay@@QBEKXZ  00498f40 f   Libs Tracker:Effects.obj
 0001:00097f50       ?GetFeedBack@trkDelay@@QBEKXZ 00498f50 f   Libs Tracker:Effects.obj
 0001:00097f60       ?SetTime@trkDelay@@QAEJK@Z 00498f60 f   Libs Tracker:Effects.obj
 0001:00098030       ?SetFeedBack@trkDelay@@QAEJK@Z 00499030 f   Libs Tracker:Effects.obj
 0001:00098060       ?Clean@trkDelay@@UAEXXZ    00499060 f   Libs Tracker:Effects.obj
 0001:00098090       ?ChangedInputBuffer@trkDelay@@UAEXPBVtrkSoundBuffer@@@Z 00499090 f   Libs Tracker:Effects.obj
 0001:000980f0       ?Process@trkDelay@@UAEXPAVtrkSoundBuffer@@PBV2@KKK@Z 004990f0 f   Libs Tracker:Effects.obj
 0001:00098820       ??0trkPhaser@@QAE@PBVtrkSoundBuffer@@KKKKKK@Z 00499820 f   Libs Tracker:Effects.obj
 0001:000988b0       ??_GtrkPhaser@@UAEPAXI@Z   004998b0 f i Libs Tracker:Effects.obj
 0001:000988b0       ??_EtrkPhaser@@UAEPAXI@Z   004998b0 f i Libs Tracker:Effects.obj
 0001:000988d0       ??1trkPhaser@@UAE@XZ       004998d0 f   Libs Tracker:Effects.obj
 0001:00098930       ?GetLFO@trkPhaser@@QBEPAVtrkLFO@@XZ 00499930 f   Libs Tracker:Effects.obj
 0001:00098940       ?SetLFO@trkPhaser@@QAEJK@Z 00499940 f   Libs Tracker:Effects.obj
 0001:00098a70       ?SetTime@trkPhaser@@QAEJK@Z 00499a70 f   Libs Tracker:Effects.obj
 0001:00098a80       ?SetMinDelayTime@trkPhaser@@QAEJK@Z 00499a80 f   Libs Tracker:Effects.obj
 0001:00098ae0       ?SetSweepDepth@trkPhaser@@QAEJK@Z 00499ae0 f   Libs Tracker:Effects.obj
 0001:00098b50       ?SetRate@trkPhaser@@QAEJK@Z 00499b50 f   Libs Tracker:Effects.obj
 0001:00098bb0       ?Clean@trkPhaser@@UAEXXZ   00499bb0 f   Libs Tracker:Effects.obj
 0001:00098bd0       ?ChangedInputBuffer@trkPhaser@@UAEXPBVtrkSoundBuffer@@@Z 00499bd0 f   Libs Tracker:Effects.obj
 0001:00098c90       ?Process@trkPhaser@@UAEXPAVtrkSoundBuffer@@PBV2@KKK@Z 00499c90 f   Libs Tracker:Effects.obj
 0001:000990e0       ??0trkTremolo@@QAE@PBVtrkSoundBuffer@@KKKK@Z 0049a0e0 f   Libs Tracker:Effects.obj
 0001:00099160       ??_GtrkTremolo@@UAEPAXI@Z  0049a160 f i Libs Tracker:Effects.obj
 0001:00099160       ??_EtrkTremolo@@UAEPAXI@Z  0049a160 f i Libs Tracker:Effects.obj
 0001:00099180       ??1trkTremolo@@UAE@XZ      0049a180 f   Libs Tracker:Effects.obj
 0001:00099190       ?GetLFO@trkTremolo@@QBEPAVtrkLFO@@XZ 0049a190 f   Libs Tracker:Effects.obj
 0001:000991a0       ?GetRate@trkTremolo@@QBEKXZ 0049a1a0 f   Libs Tracker:Effects.obj
 0001:000991b0       ?GetMinVolume@trkTremolo@@QBEKXZ 0049a1b0 f   Libs Tracker:Effects.obj
 0001:000991c0       ?GetMaxVolume@trkTremolo@@QBEKXZ 0049a1c0 f   Libs Tracker:Effects.obj
 0001:000991d0       ?SetLFO@trkTremolo@@QAEJK@Z 0049a1d0 f   Libs Tracker:Effects.obj
 0001:00099300       ?SetRate@trkTremolo@@QAEJK@Z 0049a300 f   Libs Tracker:Effects.obj
 0001:00099350       ?SetMinVolume@trkTremolo@@QAEJK@Z 0049a350 f   Libs Tracker:Effects.obj
 0001:00099380       ?SetMaxVolume@trkTremolo@@QAEJK@Z 0049a380 f   Libs Tracker:Effects.obj
 0001:000993b0       ?Clean@trkTremolo@@UAEXXZ  0049a3b0 f   Libs Tracker:Effects.obj
 0001:000993c0       ?ChangedInputBuffer@trkTremolo@@UAEXPBVtrkSoundBuffer@@@Z 0049a3c0 f   Libs Tracker:Effects.obj
 0001:00099430       ?Process@trkTremolo@@UAEXPAVtrkSoundBuffer@@PBV2@KKK@Z 0049a430 f   Libs Tracker:Effects.obj
 0001:00099640       ??0trkPitchShifter@@QAE@PBVtrkSoundBuffer@@KKKK@Z 0049a640 f   Libs Tracker:Effects.obj
 0001:000996b0       ??_EtrkPitchShifter@@UAEPAXI@Z 0049a6b0 f i Libs Tracker:Effects.obj
 0001:000996b0       ??_GtrkPitchShifter@@UAEPAXI@Z 0049a6b0 f i Libs Tracker:Effects.obj
 0001:000996d0       ??1trkPitchShifter@@UAE@XZ 0049a6d0 f   Libs Tracker:Effects.obj
 0001:00099730       ?GetLFO@trkPitchShifter@@QBEPAVtrkLFO@@XZ 0049a730 f   Libs Tracker:Effects.obj
 0001:00099740       ?SetLFO@trkPitchShifter@@QAEJK@Z 0049a740 f   Libs Tracker:Effects.obj
 0001:00099760       ?Process@trkPitchShifter@@UAEXPAVtrkSoundBuffer@@PBV2@KKK@Z 0049a760 f   Libs Tracker:Effects.obj
 0001:00099770       ??0trkEffectsProcessor@@QAE@KPBVtrkSoundBuffer@@K@Z 0049a770 f   Libs Tracker:Effects.obj
 0001:00099800       ??1trkEffectsProcessor@@QAE@XZ 0049a800 f   Libs Tracker:Effects.obj
 0001:00099870       ?SetInputBuffer@trkEffectsProcessor@@QAEKPBVtrkSoundBuffer@@K@Z 0049a870 f   Libs Tracker:Effects.obj
 0001:00099960       ?GetWorkingBuffer@trkEffectsProcessor@@QBEPBVtrkSoundBuffer@@XZ 0049a960 f   Libs Tracker:Effects.obj
 0001:00099970       ?GetNbEffects@trkEffectsProcessor@@QBEKXZ 0049a970 f   Libs Tracker:Effects.obj
 0001:00099980       ?GetNbActiveEffects@trkEffectsProcessor@@QBEKXZ 0049a980 f   Libs Tracker:Effects.obj
 0001:00099990       ?GetEffectState@trkEffectsProcessor@@QBEJK@Z 0049a990 f   Libs Tracker:Effects.obj
 0001:000999c0       ?GetEffect@trkEffectsProcessor@@QBEPAVtrkEffect@@K@Z 0049a9c0 f   Libs Tracker:Effects.obj
 0001:000999e0       ?SwitchDryOutputON@trkEffectsProcessor@@QAEJXZ 0049a9e0 f   Libs Tracker:Effects.obj
 0001:00099a00       ?SwitchDryOutputOFF@trkEffectsProcessor@@QAEJXZ 0049aa00 f   Libs Tracker:Effects.obj
 0001:00099a20       ?AddEffect@trkEffectsProcessor@@QAEJJAAK@Z 0049aa20 f   Libs Tracker:Effects.obj
 0001:00099b60       ?RemoveEffect@trkEffectsProcessor@@QAEJK@Z 0049ab60 f   Libs Tracker:Effects.obj
 0001:00099bb0       ?SwitchEffectON@trkEffectsProcessor@@QAEJK@Z 0049abb0 f   Libs Tracker:Effects.obj
 0001:00099bf0       ?SwitchEffectOFF@trkEffectsProcessor@@QAEJK@Z 0049abf0 f   Libs Tracker:Effects.obj
 0001:00099c30       ?GetData@trkEffectsProcessor@@QAEPAEK@Z 0049ac30 f   Libs Tracker:Effects.obj
 0001:00099c40       ?ProcessOutputBuffer@trkEffectsProcessor@@QAEJKKK@Z 0049ac40 f   Libs Tracker:Effects.obj
 0001:00099d00       ?Clean@trkEffectsProcessor@@QAEXXZ 0049ad00 f   Libs Tracker:Effects.obj
 0001:00099d40       ??0trkTrackerCallbacks@@QAE@XZ 0049ad40 f   Libs Tracker:TrackerCallbacks.obj
 0001:00099d50       ??_GtrkTrackerCallbacks@@UAEPAXI@Z 0049ad50 f i Libs Tracker:TrackerCallbacks.obj
 0001:00099d50       ??_EtrkTrackerCallbacks@@UAEPAXI@Z 0049ad50 f i Libs Tracker:TrackerCallbacks.obj
 0001:00099d70       ??1trkTrackerCallbacks@@UAE@XZ 0049ad70 f   Libs Tracker:TrackerCallbacks.obj
 0001:00099d80       ?SoundStopNotify@trkTrackerCallbacks@@UAEXXZ 0049ad80 f   Libs Tracker:TrackerCallbacks.obj
 0001:00099d90       ?Create@trkTracker@@SAPAV1@KK_NKKKK0@Z 0049ad90 f   Libs Tracker:Tracker.obj
 0001:00099e60       ?SetErrorBox@trkTracker@@SAXK@Z 0049ae60 f   Libs Tracker:Tracker.obj
 0001:00099e70       ?SetErrorBoxFunc@trkTracker@@SAXP6AXPBD0K@Z@Z 0049ae70 f   Libs Tracker:Tracker.obj
 0001:00099e80       ?Error@trkTracker@@KAXPBD0K@Z 0049ae80 f   Libs Tracker:Tracker.obj
 0001:00099ed0       ??0trkLFO@@QAE@MMM@Z       0049aed0 f   Libs Tracker:lfo.obj
 0001:00099f00       ??_GtrkLFO@@UAEPAXI@Z      0049af00 f i Libs Tracker:lfo.obj
 0001:00099f00       ??_EtrkLFO@@UAEPAXI@Z      0049af00 f i Libs Tracker:lfo.obj
 0001:00099f20       ??1trkLFO@@UAE@XZ          0049af20 f   Libs Tracker:lfo.obj
 0001:00099f30       ?SetPeriodTime@trkLFO@@UAEXM@Z 0049af30 f   Libs Tracker:lfo.obj
 0001:00099f40       ?SetMinValue@trkLFO@@UAEXM@Z 0049af40 f   Libs Tracker:lfo.obj
 0001:00099f60       ?SetMaxValue@trkLFO@@UAEXM@Z 0049af60 f   Libs Tracker:lfo.obj
 0001:00099f80       ??0trkLFOTriangle@@QAE@MMM@Z 0049af80 f   Libs Tracker:lfo.obj
 0001:00099fc0       ??_EtrkLFOTriangle@@UAEPAXI@Z 0049afc0 f i Libs Tracker:lfo.obj
 0001:00099fc0       ??_GtrkLFOTriangle@@UAEPAXI@Z 0049afc0 f i Libs Tracker:lfo.obj
 0001:00099fe0       ??1trkLFOTriangle@@UAE@XZ  0049afe0 f   Libs Tracker:lfo.obj
 0001:00099ff0       ?SetPeriodTime@trkLFOTriangle@@UAEXM@Z 0049aff0 f   Libs Tracker:lfo.obj
 0001:0009a020       ?SetMinValue@trkLFOTriangle@@UAEXM@Z 0049b020 f   Libs Tracker:lfo.obj
 0001:0009a040       ?SetMaxValue@trkLFOTriangle@@UAEXM@Z 0049b040 f   Libs Tracker:lfo.obj
 0001:0009a060       ??AtrkLFOTriangle@@UAEMM@Z 0049b060 f   Libs Tracker:lfo.obj
 0001:0009a090       ??0trkLFOSin@@QAE@MMM@Z    0049b090 f   Libs Tracker:lfo.obj
 0001:0009a0e0       ??_GtrkLFOSin@@UAEPAXI@Z   0049b0e0 f i Libs Tracker:lfo.obj
 0001:0009a0e0       ??_EtrkLFOSin@@UAEPAXI@Z   0049b0e0 f i Libs Tracker:lfo.obj
 0001:0009a100       ??1trkLFOSin@@UAE@XZ       0049b100 f   Libs Tracker:lfo.obj
 0001:0009a110       ?SetPeriodTime@trkLFOSin@@UAEXM@Z 0049b110 f   Libs Tracker:lfo.obj
 0001:0009a140       ?SetMinValue@trkLFOSin@@UAEXM@Z 0049b140 f   Libs Tracker:lfo.obj
 0001:0009a160       ?SetMaxValue@trkLFOSin@@UAEXM@Z 0049b160 f   Libs Tracker:lfo.obj
 0001:0009a180       ??AtrkLFOSin@@UAEMM@Z      0049b180 f   Libs Tracker:lfo.obj
 0001:0009a1a0       ??0trkTrack_Impl@@QAE@XZ   0049b1a0 f   Libs Tracker:TrackerPC.obj
 0001:0009a1e0       ??_EtrkTrack_Impl@@UAEPAXI@Z 0049b1e0 f i Libs Tracker:TrackerPC.obj
 0001:0009a1e0       ??_GtrkTrack_Impl@@UAEPAXI@Z 0049b1e0 f i Libs Tracker:TrackerPC.obj
 0001:0009a200       ??1trkTrack_Impl@@UAE@XZ   0049b200 f   Libs Tracker:TrackerPC.obj
 0001:0009a210       ?GetState@trkTrack_Impl@@QBEJXZ 0049b210 f   Libs Tracker:TrackerPC.obj
 0001:0009a220       ?GetPlayMode@trkTrack_Impl@@QBEJXZ 0049b220 f   Libs Tracker:TrackerPC.obj
 0001:0009a230       ?GetReadPosition@trkTrack_Impl@@QBEKXZ 0049b230 f   Libs Tracker:TrackerPC.obj
 0001:0009a240       ?GetBufferNbSamples@trkTrack_Impl@@QBEKXZ 0049b240 f   Libs Tracker:TrackerPC.obj
 0001:0009a250       ?GetMaxSamplesToConvert@trkTrack_Impl@@QBEKXZ 0049b250 f   Libs Tracker:TrackerPC.obj
 0001:0009a2b0       ?GetNbTimes@trkTrack_Impl@@QBEKXZ 0049b2b0 f   Libs Tracker:TrackerPC.obj
 0001:0009a2c0       ?GetNbTimesLeft@trkTrack_Impl@@QBEKXZ 0049b2c0 f   Libs Tracker:TrackerPC.obj
 0001:0009a2d0       ?Play@trkTrack_Impl@@QAEJXZ 0049b2d0 f   Libs Tracker:TrackerPC.obj
 0001:0009a2f0       ?Stop@trkTrack_Impl@@QAEJXZ 0049b2f0 f   Libs Tracker:TrackerPC.obj
 0001:0009a320       ?Pause@trkTrack_Impl@@QAEJXZ 0049b320 f   Libs Tracker:TrackerPC.obj
 0001:0009a340       ?Resume@trkTrack_Impl@@QAEJXZ 0049b340 f   Libs Tracker:TrackerPC.obj
 0001:0009a360       ?SetPlayMode@trkTrack_Impl@@QAEJJK@Z 0049b360 f   Libs Tracker:TrackerPC.obj
 0001:0009a3d0       ?SetSoundBuffer@trkTrack_Impl@@QAEJPBVtrkSoundBuffer@@@Z 0049b3d0 f   Libs Tracker:TrackerPC.obj
 0001:0009a400       ?GetSoundBuffer@trkTrack_Impl@@QBEPBVtrkSoundBuffer@@XZ 0049b400 f   Libs Tracker:TrackerPC.obj
 0001:0009a410       ?SetCallbacks@trkTrack_Impl@@QAEXPAVtrkTrackerCallbacks@@@Z 0049b410 f   Libs Tracker:TrackerPC.obj
 0001:0009a420       ?GetCallbacks@trkTrack_Impl@@QBEPAVtrkTrackerCallbacks@@XZ 0049b420 f   Libs Tracker:TrackerPC.obj
 0001:0009a430       ?GetSoundPosition@trkTrack_Impl@@QBEKK@Z 0049b430 f   Libs Tracker:TrackerPC.obj
 0001:0009a4b0       ?SetStartPosition@trkTrack_Impl@@QAEJK@Z 0049b4b0 f   Libs Tracker:TrackerPC.obj
 0001:0009a4d0       ?SetPause@trkTrack_Impl@@QAEJK@Z 0049b4d0 f   Libs Tracker:TrackerPC.obj
 0001:0009a4e0       ?UnsetPause@trkTrack_Impl@@QAEJK@Z 0049b4e0 f   Libs Tracker:TrackerPC.obj
 0001:0009a500       ?IncReadPosition@trkTrack_Impl@@QAEJK@Z 0049b500 f   Libs Tracker:TrackerPC.obj
 0001:0009a570       ?SetPitchCorrection@trkTrack_Impl@@QAEJKJ@Z 0049b570 f   Libs Tracker:TrackerPC.obj
 0001:0009a590       ?DecReadPosition@trkTrack_Impl@@QAEJK@Z 0049b590 f   Libs Tracker:TrackerPC.obj
 0001:0009a620       ?SetLoopFeedPosition@trkTrack_Impl@@QAEJK@Z 0049b620 f   Libs Tracker:TrackerPC.obj
 0001:0009a630       ??0trkTracker_Impl@@QAE@KK_NKKK@Z 0049b630 f   Libs Tracker:TrackerPC.obj
 0001:0009a7a0       ??1trkTracker@@UAE@XZ      0049b7a0 f i Libs Tracker:TrackerPC.obj
 0001:0009a7b0       ?SetNbRebuildBlocks@trkTracker@@UAEJK@Z 0049b7b0 f i Libs Tracker:TrackerPC.obj
 0001:0009a7c0       ?SetNbBlocksLatency@trkTracker@@UAEJK@Z 0049b7c0 f i Libs Tracker:TrackerPC.obj
 0001:0009a7d0       ?SetActive@trkTracker@@UAEX_N@Z 0049b7d0 f i Libs Tracker:TrackerPC.obj
 0001:0009a7e0       ??_GtrkTracker@@UAEPAXI@Z  0049b7e0 f i Libs Tracker:TrackerPC.obj
 0001:0009a7e0       ??_EtrkTracker@@UAEPAXI@Z  0049b7e0 f i Libs Tracker:TrackerPC.obj
 0001:0009a800       ??_EtrkTracker_Impl@@UAEPAXI@Z 0049b800 f i Libs Tracker:TrackerPC.obj
 0001:0009a800       ??_GtrkTracker_Impl@@UAEPAXI@Z 0049b800 f i Libs Tracker:TrackerPC.obj
 0001:0009a820       ??1trkTracker_Impl@@UAE@XZ 0049b820 f   Libs Tracker:TrackerPC.obj
 0001:0009a8f0       ?FeedMixerChannels@trkTracker_Impl@@AAEJXZ 0049b8f0 f   Libs Tracker:TrackerPC.obj
 0001:0009ab40       ?StopEndedTracks@trkTracker_Impl@@AAEJXZ 0049bb40 f   Libs Tracker:TrackerPC.obj
 0001:0009ac20       ?SetOutputFormat@trkTracker_Impl@@UAEJJJ_NKK@Z 0049bc20 f   Libs Tracker:TrackerPC.obj
 0001:0009acf0       ?Play@trkTracker_Impl@@UAEJXZ 0049bcf0 f   Libs Tracker:TrackerPC.obj
 0001:0009ad20       ?Stop@trkTracker_Impl@@UAEJXZ 0049bd20 f   Libs Tracker:TrackerPC.obj
 0001:0009ad70       ?Pause@trkTracker_Impl@@UAEJXZ 0049bd70 f   Libs Tracker:TrackerPC.obj
 0001:0009ada0       ?GetVolume@trkTracker_Impl@@UBEKXZ 0049bda0 f   Libs Tracker:TrackerPC.obj
 0001:0009adb0       ?SetVolume@trkTracker_Impl@@UAEJK@Z 0049bdb0 f   Libs Tracker:TrackerPC.obj
 0001:0009add0       ?IncVolume@trkTracker_Impl@@UAEJK@Z 0049bdd0 f   Libs Tracker:TrackerPC.obj
 0001:0009adf0       ?DecVolume@trkTracker_Impl@@UAEJK@Z 0049bdf0 f   Libs Tracker:TrackerPC.obj
 0001:0009ae10       ?SetBalance@trkTracker_Impl@@UAEJK@Z 0049be10 f   Libs Tracker:TrackerPC.obj
 0001:0009ae30       ?BalanceLeft@trkTracker_Impl@@UAEJK@Z 0049be30 f   Libs Tracker:TrackerPC.obj
 0001:0009ae50       ?BalanceRight@trkTracker_Impl@@UAEJK@Z 0049be50 f   Libs Tracker:TrackerPC.obj
 0001:0009ae70       ?GetNbRebuildBlocks@trkTracker_Impl@@QBEKXZ 0049be70 f   Libs Tracker:TrackerPC.obj
 0001:0009ae80       ?SetNbRebuildBlocks@trkTracker_Impl@@UAEJK@Z 0049be80 f   Libs Tracker:TrackerPC.obj
 0001:0009aea0       ?GetNbBlocksLatency@trkTracker_Impl@@QBEKXZ 0049bea0 f   Libs Tracker:TrackerPC.obj
 0001:0009aeb0       ?SetNbBlocksLatency@trkTracker_Impl@@UAEJK@Z 0049beb0 f   Libs Tracker:TrackerPC.obj
 0001:0009aed0       ?GetNbTracks@trkTracker_Impl@@UBEKXZ 0049bed0 f   Libs Tracker:TrackerPC.obj
 0001:0009aee0       ?GetFrequency@trkTracker_Impl@@UBEKXZ 0049bee0 f   Libs Tracker:TrackerPC.obj
 0001:0009aef0       ?GetBytesPerMonoSample@trkTracker_Impl@@UBEKXZ 0049bef0 f   Libs Tracker:TrackerPC.obj
 0001:0009af00       ?GetStereo@trkTracker_Impl@@UBE_NXZ 0049bf00 f   Libs Tracker:TrackerPC.obj
 0001:0009af10       ?GetNbSamplesPerBlock@trkTracker_Impl@@UBEKXZ 0049bf10 f   Libs Tracker:TrackerPC.obj
 0001:0009af20       ?GetNbBlocksPerChannel@trkTracker_Impl@@UBEKXZ 0049bf20 f   Libs Tracker:TrackerPC.obj
 0001:0009af30       ?GetSoundPosition@trkTracker_Impl@@UBEKXZ 0049bf30 f   Libs Tracker:TrackerPC.obj
 0001:0009af40       ?PlayTrack@trkTracker_Impl@@UAEJKPBVtrkSoundBuffer@@JKPAVtrkTrackerCallbacks@@K@Z 0049bf40 f   Libs Tracker:TrackerPC.obj
 0001:0009b110       ?StopTrack@trkTracker_Impl@@UAEJK@Z 0049c110 f   Libs Tracker:TrackerPC.obj
 0001:0009b1c0       ?PauseTrack@trkTracker_Impl@@UAEJK@Z 0049c1c0 f   Libs Tracker:TrackerPC.obj
 0001:0009b240       ?ResumeTrack@trkTracker_Impl@@UAEJK@Z 0049c240 f   Libs Tracker:TrackerPC.obj
 0001:0009b2d0       ?GetTrackState@trkTracker_Impl@@UBEJK@Z 0049c2d0 f   Libs Tracker:TrackerPC.obj
 0001:0009b310       ?GetTrackVolume@trkTracker_Impl@@UBEKK@Z 0049c310 f   Libs Tracker:TrackerPC.obj
 0001:0009b350       ?SetTrackVolume@trkTracker_Impl@@UAEJKK@Z 0049c350 f   Libs Tracker:TrackerPC.obj
 0001:0009b3a0       ?IncTrackVolume@trkTracker_Impl@@UAEJKK@Z 0049c3a0 f   Libs Tracker:TrackerPC.obj
 0001:0009b3f0       ?DecTrackVolume@trkTracker_Impl@@UAEJKK@Z 0049c3f0 f   Libs Tracker:TrackerPC.obj
 0001:0009b440       ?GetTrackBalance@trkTracker_Impl@@UBEKK@Z 0049c440 f   Libs Tracker:TrackerPC.obj
 0001:0009b480       ?SetTrackBalance@trkTracker_Impl@@UAEJKK@Z 0049c480 f   Libs Tracker:TrackerPC.obj
 0001:0009b4d0       ?TrackBalanceLeft@trkTracker_Impl@@UAEJKK@Z 0049c4d0 f   Libs Tracker:TrackerPC.obj
 0001:0009b520       ?TrackBalanceRight@trkTracker_Impl@@UAEJKK@Z 0049c520 f   Libs Tracker:TrackerPC.obj
 0001:0009b570       ?SetTrackPitchCorrection@trkTracker_Impl@@UAEJKM@Z 0049c570 f   Libs Tracker:TrackerPC.obj
 0001:0009b6d0       ?GetNextFreeTrack@trkTracker_Impl@@UBEKXZ 0049c6d0 f   Libs Tracker:TrackerPC.obj
 0001:0009b700       ?GetNextFreeDryTrack@trkTracker_Impl@@UBEKXZ 0049c700 f   Libs Tracker:TrackerPC.obj
 0001:0009b760       ?GetNextFreeTrackMin@trkTracker_Impl@@UBEKK@Z 0049c760 f   Libs Tracker:TrackerPC.obj
 0001:0009b7a0       ?GetNextFreeTrackMax@trkTracker_Impl@@UBEKK@Z 0049c7a0 f   Libs Tracker:TrackerPC.obj
 0001:0009b7e0       ?GetNextFreeTrack@trkTracker_Impl@@UBEKKK@Z 0049c7e0 f   Libs Tracker:TrackerPC.obj
 0001:0009b830       ?GetTrackSoundPosition@trkTracker_Impl@@UBEKK@Z 0049c830 f   Libs Tracker:TrackerPC.obj
 0001:0009b8a0       ?GetTrackMixPosition@trkTracker_Impl@@UBEKK@Z 0049c8a0 f   Libs Tracker:TrackerPC.obj
 0001:0009b8e0       ?GetTrackSoundBuffer@trkTracker_Impl@@UBEPBVtrkSoundBuffer@@K@Z 0049c8e0 f   Libs Tracker:TrackerPC.obj
 0001:0009b920       ?SetTrackFeedPosition@trkTracker_Impl@@UAEJKK@Z 0049c920 f   Libs Tracker:TrackerPC.obj
 0001:0009b960       ?SetTrackNbSamplesPerBlock@trkTracker_Impl@@UAEJKK@Z 0049c960 f   Libs Tracker:TrackerPC.obj
 0001:0009b990       ?IsTrackFree@trkTracker_Impl@@UAEJKAA_N@Z 0049c990 f   Libs Tracker:TrackerPC.obj
 0001:0009b9f0       ?GetTrackEffect@trkTracker_Impl@@UBEPAVtrkEffect@@KK@Z 0049c9f0 f   Libs Tracker:TrackerPC.obj
 0001:0009ba30       ?SwitchTrackDryOutputON@trkTracker_Impl@@UAEJK@Z 0049ca30 f   Libs Tracker:TrackerPC.obj
 0001:0009ba70       ?SwitchTrackDryOutputOFF@trkTracker_Impl@@UAEJK@Z 0049ca70 f   Libs Tracker:TrackerPC.obj
 0001:0009bab0       ?AddEffectToTrack@trkTracker_Impl@@UAEJKKAAK@Z 0049cab0 f   Libs Tracker:TrackerPC.obj
 0001:0009bb40       ?RemoveEffectFromTrack@trkTracker_Impl@@UAEJKK@Z 0049cb40 f   Libs Tracker:TrackerPC.obj
 0001:0009bb90       ?RemoveAllFromTrack@trkTracker_Impl@@UAEJK@Z 0049cb90 f   Libs Tracker:TrackerPC.obj
 0001:0009bbf0       ?SwitchTrackEffectOFF@trkTracker_Impl@@UAEJKK@Z 0049cbf0 f   Libs Tracker:TrackerPC.obj
 0001:0009bc40       ?SwitchTrackEffectON@trkTracker_Impl@@UAEJKK@Z 0049cc40 f   Libs Tracker:TrackerPC.obj
 0001:0009bc90       ?Refresh@trkTracker_Impl@@UAEJXZ 0049cc90 f   Libs Tracker:TrackerPC.obj
 0001:0009bcc0       ?trkThreadFunc@@YGKPAX@Z   0049ccc0 f   Libs Tracker:TrackerThreadPC.obj
 0001:0009bd10       ??0trkTrackerThreaded_Impl@@QAE@KK_NKKK@Z 0049cd10 f   Libs Tracker:TrackerThreadPC.obj
 0001:0009bd80       ??_EtrkTrackerThreaded_Impl@@UAEPAXI@Z 0049cd80 f i Libs Tracker:TrackerThreadPC.obj
 0001:0009bd80       ??_GtrkTrackerThreaded_Impl@@UAEPAXI@Z 0049cd80 f i Libs Tracker:TrackerThreadPC.obj
 0001:0009bda0       ??1trkTrackerThreaded_Impl@@UAE@XZ 0049cda0 f   Libs Tracker:TrackerThreadPC.obj
 0001:0009be10       ?EnterCriticalSection@trkTrackerThreaded_Impl@@IAEXXZ 0049ce10 f   Libs Tracker:TrackerThreadPC.obj
 0001:0009be30       ?ExitCriticalSection@trkTrackerThreaded_Impl@@IAEXXZ 0049ce30 f   Libs Tracker:TrackerThreadPC.obj
 0001:0009be40       ?ThreadRefresh@trkTrackerThreaded_Impl@@UAEJXZ 0049ce40 f   Libs Tracker:TrackerThreadPC.obj
 0001:0009be70       ?Refresh@trkTrackerThreaded_Impl@@UAEJXZ 0049ce70 f   Libs Tracker:TrackerThreadPC.obj
 0001:0009bea0       ?Play@trkTrackerThreaded_Impl@@UAEJXZ 0049cea0 f   Libs Tracker:TrackerThreadPC.obj
 0001:0009bef0       ?Stop@trkTrackerThreaded_Impl@@UAEJXZ 0049cef0 f   Libs Tracker:TrackerThreadPC.obj
 0001:0009bf70       ?Pause@trkTrackerThreaded_Impl@@UAEJXZ 0049cf70 f   Libs Tracker:TrackerThreadPC.obj
 0001:0009bf90       ?SetVolume@trkTrackerThreaded_Impl@@UAEJK@Z 0049cf90 f   Libs Tracker:TrackerThreadPC.obj
 0001:0009bfc0       ?IncVolume@trkTrackerThreaded_Impl@@UAEJK@Z 0049cfc0 f   Libs Tracker:TrackerThreadPC.obj
 0001:0009bff0       ?DecVolume@trkTrackerThreaded_Impl@@UAEJK@Z 0049cff0 f   Libs Tracker:TrackerThreadPC.obj
 0001:0009c020       ?SetBalance@trkTrackerThreaded_Impl@@UAEJK@Z 0049d020 f   Libs Tracker:TrackerThreadPC.obj
 0001:0009c050       ?BalanceLeft@trkTrackerThreaded_Impl@@UAEJK@Z 0049d050 f   Libs Tracker:TrackerThreadPC.obj
 0001:0009c080       ?BalanceRight@trkTrackerThreaded_Impl@@UAEJK@Z 0049d080 f   Libs Tracker:TrackerThreadPC.obj
 0001:0009c0b0       ?PlayTrack@trkTrackerThreaded_Impl@@UAEJKPBVtrkSoundBuffer@@JKPAVtrkTrackerCallbacks@@K@Z 0049d0b0 f   Libs Tracker:TrackerThreadPC.obj
 0001:0009c100       ?StopTrack@trkTrackerThreaded_Impl@@UAEJK@Z 0049d100 f   Libs Tracker:TrackerThreadPC.obj
 0001:0009c130       ?PauseTrack@trkTrackerThreaded_Impl@@UAEJK@Z 0049d130 f   Libs Tracker:TrackerThreadPC.obj
 0001:0009c160       ?ResumeTrack@trkTrackerThreaded_Impl@@UAEJK@Z 0049d160 f   Libs Tracker:TrackerThreadPC.obj
 0001:0009c190       ?SetTrackPitchCorrection@trkTrackerThreaded_Impl@@UAEJKM@Z 0049d190 f   Libs Tracker:TrackerThreadPC.obj
 0001:0009c1c0       ?AddEffectToTrack@trkTrackerThreaded_Impl@@UAEJKKAAK@Z 0049d1c0 f   Libs Tracker:TrackerThreadPC.obj
 0001:0009c1f0       ?SetTrackBalance@trkTrackerThreaded_Impl@@UAEJKK@Z 0049d1f0 f   Libs Tracker:TrackerThreadPC.obj
 0001:0009c220       ?TrackBalanceLeft@trkTrackerThreaded_Impl@@UAEJKK@Z 0049d220 f   Libs Tracker:TrackerThreadPC.obj
 0001:0009c250       ?TrackBalanceRight@trkTrackerThreaded_Impl@@UAEJKK@Z 0049d250 f   Libs Tracker:TrackerThreadPC.obj
 0001:0009c280       ??0trkWinMixer@@QAE@KK_NKKK@Z 0049d280 f   Libs Tracker:MixerPC.obj
 0001:0009c400       ??1trkWinMixer@@QAE@XZ     0049d400 f   Libs Tracker:MixerPC.obj
 0001:0009c490       ?RewindChannels@trkWinMixer@@AAEXK@Z 0049d490 f   Libs Tracker:MixerPC.obj
 0001:0009c570       ?IsChannelEmpty@trkWinMixer@@QBE_NK@Z 0049d570 f   Libs Tracker:MixerPC.obj
 0001:0009c590       ?ChannelHasEffectsProcessor@trkWinMixer@@QBE_NK@Z 0049d590 f   Libs Tracker:MixerPC.obj
 0001:0009c5b0       ?GetChannelBlockMixPos@trkWinMixer@@QBEKK@Z 0049d5b0 f   Libs Tracker:MixerPC.obj
 0001:0009c5d0       ?GetChannelBlockWritePos@trkWinMixer@@QBEKK@Z 0049d5d0 f   Libs Tracker:MixerPC.obj
 0001:0009c5f0       ?GetChannelNbBlocksToFeed@trkWinMixer@@QBEKK@Z 0049d5f0 f   Libs Tracker:MixerPC.obj
 0001:0009c650       ?GetChannelRewindedSamples@trkWinMixer@@QBEKK@Z 0049d650 f   Libs Tracker:MixerPC.obj
 0001:0009c670       ?GetChannelPitchCorrection@trkWinMixer@@QBEMK@Z 0049d670 f   Libs Tracker:MixerPC.obj
 0001:0009c6a0       ?GetChannelSoundBuffer@trkWinMixer@@QBEPBVtrkSoundBuffer@@K@Z 0049d6a0 f   Libs Tracker:MixerPC.obj
 0001:0009c6c0       ?GetNbSamplesPerBlock@trkWinMixer@@QBEKXZ 0049d6c0 f   Libs Tracker:MixerPC.obj
 0001:0009c6d0       ?GetBytesPerMonoSample@trkWinMixer@@QBEKXZ 0049d6d0 f   Libs Tracker:MixerPC.obj
 0001:0009c6e0       ?GetStereo@trkWinMixer@@QBE_NXZ 0049d6e0 f   Libs Tracker:MixerPC.obj
 0001:0009c6f0       ?GetNbBlocksPerChannel@trkWinMixer@@QBEKXZ 0049d6f0 f   Libs Tracker:MixerPC.obj
 0001:0009c700       ?ConvertNbSamples@trkWinMixer@@QBEKPBVtrkSoundBuffer@@K@Z 0049d700 f   Libs Tracker:MixerPC.obj
 0001:0009c720       ?GetMasterChannelState@trkWinMixer@@QBEKXZ 0049d720 f   Libs Tracker:MixerPC.obj
 0001:0009c730       ?GetNbRebuildBlocks@trkWinMixer@@QBEKXZ 0049d730 f   Libs Tracker:MixerPC.obj
 0001:0009c740       ?GetNbBlocksLatency@trkWinMixer@@QBEKXZ 0049d740 f   Libs Tracker:MixerPC.obj
 0001:0009c750       ?GetFrequency@trkWinMixer@@QBEKXZ 0049d750 f   Libs Tracker:MixerPC.obj
 0001:0009c760       ?GetMasterChannelSoundBuffer@trkWinMixer@@QBEPBVtrkSoundBuffer@@XZ 0049d760 f   Libs Tracker:MixerPC.obj
 0001:0009c770       ?SetChannelIsAboutToEnd@trkWinMixer@@QAEJK_N@Z 0049d770 f   Libs Tracker:MixerPC.obj
 0001:0009c7a0       ?SetChannelIsStopped@trkWinMixer@@QAEJK@Z 0049d7a0 f   Libs Tracker:MixerPC.obj
 0001:0009c7e0       ?GetVolume@trkWinMixer@@QBEKXZ 0049d7e0 f   Libs Tracker:MixerPC.obj
 0001:0009c7f0       ?SetVolume@trkWinMixer@@QAEJK@Z 0049d7f0 f   Libs Tracker:MixerPC.obj
 0001:0009c810       ?IncVolume@trkWinMixer@@QAEJK@Z 0049d810 f   Libs Tracker:MixerPC.obj
 0001:0009c830       ?DecVolume@trkWinMixer@@QAEJK@Z 0049d830 f   Libs Tracker:MixerPC.obj
 0001:0009c850       ?SetBalance@trkWinMixer@@QAEJK@Z 0049d850 f   Libs Tracker:MixerPC.obj
 0001:0009c870       ?BalanceLeft@trkWinMixer@@QAEJK@Z 0049d870 f   Libs Tracker:MixerPC.obj
 0001:0009c890       ?BalanceRight@trkWinMixer@@QAEJK@Z 0049d890 f   Libs Tracker:MixerPC.obj
 0001:0009c8b0       ?GetPosition@trkWinMixer@@QBEKXZ 0049d8b0 f   Libs Tracker:MixerPC.obj
 0001:0009c8c0       ?GetLastChangePosition@trkWinMixer@@QBEKXZ 0049d8c0 f   Libs Tracker:MixerPC.obj
 0001:0009c8d0       ?PlayChannel@trkWinMixer@@QAEJK@Z 0049d8d0 f   Libs Tracker:MixerPC.obj
 0001:0009c940       ?StopChannel@trkWinMixer@@QAEJK@Z 0049d940 f   Libs Tracker:MixerPC.obj
 0001:0009c9a0       ?PauseChannel@trkWinMixer@@QAEJK@Z 0049d9a0 f   Libs Tracker:MixerPC.obj
 0001:0009ca00       ?WriteChannel@trkWinMixer@@QAEJKPBVtrkSoundBuffer@@KK@Z 0049da00 f   Libs Tracker:MixerPC.obj
 0001:0009ca40       ?GetChannelVolume@trkWinMixer@@QBEKK@Z 0049da40 f   Libs Tracker:MixerPC.obj
 0001:0009ca60       ?SetChannelVolume@trkWinMixer@@QAEJKK@Z 0049da60 f   Libs Tracker:MixerPC.obj
 0001:0009cad0       ?IncChannelVolume@trkWinMixer@@QAEJKK@Z 0049dad0 f   Libs Tracker:MixerPC.obj
 0001:0009cb40       ?DecChannelVolume@trkWinMixer@@QAEJKK@Z 0049db40 f   Libs Tracker:MixerPC.obj
 0001:0009cbb0       ?SetChannelBaseVolume@trkWinMixer@@QAEJKK@Z 0049dbb0 f   Libs Tracker:MixerPC.obj
 0001:0009cc20       ?SetChannelPitchCorrection@trkWinMixer@@QAEJKM@Z 0049dc20 f   Libs Tracker:MixerPC.obj
 0001:0009cc90       ?UpdateChannelPitchCorrection@trkWinMixer@@QAEJK@Z 0049dc90 f   Libs Tracker:MixerPC.obj
 0001:0009ccd0       ?GetChannelBalance@trkWinMixer@@QBEKK@Z 0049dcd0 f   Libs Tracker:MixerPC.obj
 0001:0009ccf0       ?SetChannelBalance@trkWinMixer@@QAEJKK@Z 0049dcf0 f   Libs Tracker:MixerPC.obj
 0001:0009cd60       ?ChannelBalanceLeft@trkWinMixer@@QAEJKK@Z 0049dd60 f   Libs Tracker:MixerPC.obj
 0001:0009cdd0       ?ChannelBalanceRight@trkWinMixer@@QAEJKK@Z 0049ddd0 f   Libs Tracker:MixerPC.obj
 0001:0009ce40       ?GetChannelEffect@trkWinMixer@@QBEPAVtrkEffect@@KK@Z 0049de40 f   Libs Tracker:MixerPC.obj
 0001:0009ce70       ?SwitchChannelDryOutputON@trkWinMixer@@QAEJK@Z 0049de70 f   Libs Tracker:MixerPC.obj
 0001:0009cea0       ?SwitchChannelDryOutputOFF@trkWinMixer@@QAEJK@Z 0049dea0 f   Libs Tracker:MixerPC.obj
 0001:0009ced0       ?AddEffectToChannel@trkWinMixer@@QAEJKKAAK@Z 0049ded0 f   Libs Tracker:MixerPC.obj
 0001:0009cf10       ?RemoveEffectFromChannel@trkWinMixer@@QAEJKK@Z 0049df10 f   Libs Tracker:MixerPC.obj
 0001:0009cf40       ?SwitchChannelEffectOFF@trkWinMixer@@QAEJKK@Z 0049df40 f   Libs Tracker:MixerPC.obj
 0001:0009cfc0       ?SwitchChannelEffectON@trkWinMixer@@QAEJKK@Z 0049dfc0 f   Libs Tracker:MixerPC.obj
 0001:0009d040       ?PlayMasterChannel@trkWinMixer@@QAEJXZ 0049e040 f   Libs Tracker:MixerPC.obj
 0001:0009d050       ?StopMasterChannel@trkWinMixer@@QAEJXZ 0049e050 f   Libs Tracker:MixerPC.obj
 0001:0009d090       ?PauseMasterChannel@trkWinMixer@@QAEJXZ 0049e090 f   Libs Tracker:MixerPC.obj
 0001:0009d0a0       ?CleanMasterChannel@trkWinMixer@@QAEXXZ 0049e0a0 f   Libs Tracker:MixerPC.obj
 0001:0009d0b0       ?SetNbRebuildBlocks@trkWinMixer@@QAEJK@Z 0049e0b0 f   Libs Tracker:MixerPC.obj
 0001:0009d0f0       ?SetNbBlocksLatency@trkWinMixer@@QAEJK@Z 0049e0f0 f   Libs Tracker:MixerPC.obj
 0001:0009d120       ?ComputeNbReadBlocks@trkWinMixer@@QAEXXZ 0049e120 f   Libs Tracker:MixerPC.obj
 0001:0009d160       ?FeedMasterChannel@trkWinMixer@@QAEJK@Z 0049e160 f   Libs Tracker:MixerPC.obj
 0001:0009da90       ??0trkChannel@@QAE@KKKK_N@Z 0049ea90 f   Libs Tracker:ChannelsPC.obj
 0001:0009db80       ??1trkChannel@@QAE@XZ      0049eb80 f   Libs Tracker:ChannelsPC.obj
 0001:0009dbb0       ?GetState@trkChannel@@QBEJXZ 0049ebb0 f   Libs Tracker:ChannelsPC.obj
 0001:0009dbc0       ?GetNbSamplesPerBlock@trkChannel@@QBEKXZ 0049ebc0 f   Libs Tracker:ChannelsPC.obj
 0001:0009dbd0       ?GetBitsPerMonoSample@trkChannel@@QBEKXZ 0049ebd0 f   Libs Tracker:ChannelsPC.obj
 0001:0009dbe0       ?IsStereo@trkChannel@@QBE_NXZ 0049ebe0 f   Libs Tracker:ChannelsPC.obj
 0001:0009dbf0       ?GetDataBlockWritePos@trkChannel@@QBEKXZ 0049ebf0 f   Libs Tracker:ChannelsPC.obj
 0001:0009dc00       ?GetNbBlocks@trkChannel@@QBEKXZ 0049ec00 f   Libs Tracker:ChannelsPC.obj
 0001:0009dc10       ?GetNbSamples@trkChannel@@QBEKXZ 0049ec10 f   Libs Tracker:ChannelsPC.obj
 0001:0009dc20       ?GetDataToWrite@trkChannel@@QBEPAEXZ 0049ec20 f   Libs Tracker:ChannelsPC.obj
 0001:0009dc30       ?BufferIsEmpty@trkChannel@@QBE_NXZ 0049ec30 f   Libs Tracker:ChannelsPC.obj
 0001:0009dc40       ?GetFrequency@trkChannel@@QBEKXZ 0049ec40 f   Libs Tracker:ChannelsPC.obj
 0001:0009dc50       ?GetSoundBuffer@trkChannel@@QBEPBVtrkSoundBuffer@@XZ 0049ec50 f   Libs Tracker:ChannelsPC.obj
 0001:0009dc60       ?ConvertNbSamples@trkChannel@@QBEKPBVtrkSoundBuffer@@K@Z 0049ec60 f   Libs Tracker:ChannelsPC.obj
 0001:0009dc80       ?GetVolume@trkChannel@@UBEKXZ 0049ec80 f   Libs Tracker:ChannelsPC.obj
 0001:0009dc90       ?SetVolume@trkChannel@@UAEJK@Z 0049ec90 f   Libs Tracker:ChannelsPC.obj
 0001:0009dd00       ?IncVolume@trkChannel@@UAEJK@Z 0049ed00 f   Libs Tracker:ChannelsPC.obj
 0001:0009dd20       ?DecVolume@trkChannel@@UAEJK@Z 0049ed20 f   Libs Tracker:ChannelsPC.obj
 0001:0009dd40       ?GetBalance@trkChannel@@UBEKXZ 0049ed40 f   Libs Tracker:ChannelsPC.obj
 0001:0009dd50       ?SetBalance@trkChannel@@UAEJK@Z 0049ed50 f   Libs Tracker:ChannelsPC.obj
 0001:0009dd80       ?BalanceLeft@trkChannel@@UAEJK@Z 0049ed80 f   Libs Tracker:ChannelsPC.obj
 0001:0009ddb0       ?BalanceRight@trkChannel@@UAEJK@Z 0049edb0 f   Libs Tracker:ChannelsPC.obj
 0001:0009dde0       ?HasEffectsProcessor@trkChannel@@UBE_NXZ 0049ede0 f   Libs Tracker:ChannelsPC.obj
 0001:0009ddf0       ?GetEffect@trkChannel@@UBEPAVtrkEffect@@K@Z 0049edf0 f   Libs Tracker:ChannelsPC.obj
 0001:0009de10       ?SwitchDryOutputON@trkChannel@@UAEJXZ 0049ee10 f   Libs Tracker:ChannelsPC.obj
 0001:0009de30       ?SwitchDryOutputOFF@trkChannel@@UAEJXZ 0049ee30 f   Libs Tracker:ChannelsPC.obj
 0001:0009de50       ?GetEffectState@trkChannel@@UBEJK@Z 0049ee50 f   Libs Tracker:ChannelsPC.obj
 0001:0009de80       ?AddEffect@trkChannel@@UAEJKAAK@Z 0049ee80 f   Libs Tracker:ChannelsPC.obj
 0001:0009df10       ?RemoveEffect@trkChannel@@UAEJK@Z 0049ef10 f   Libs Tracker:ChannelsPC.obj
 0001:0009df70       ?SwitchEffectON@trkChannel@@UAEJK@Z 0049ef70 f   Libs Tracker:ChannelsPC.obj
 0001:0009dfa0       ?SwitchEffectOFF@trkChannel@@UAEJK@Z 0049efa0 f   Libs Tracker:ChannelsPC.obj
 0001:0009dfd0       ?Play@trkChannel@@UAEJXZ   0049efd0 f   Libs Tracker:ChannelsPC.obj
 0001:0009dfe0       ?Pause@trkChannel@@UAEJXZ  0049efe0 f   Libs Tracker:ChannelsPC.obj
 0001:0009dff0       ?Stop@trkChannel@@UAEJXZ   0049eff0 f   Libs Tracker:ChannelsPC.obj
 0001:0009e010       ?WriteSoundBuffer@trkChannel@@QAEKPBVtrkSoundBuffer@@KK@Z 0049f010 f   Libs Tracker:ChannelsPC.obj
 0001:0009e060       ?IncBlockWritePos@trkChannel@@QAEJXZ 0049f060 f   Libs Tracker:ChannelsPC.obj
 0001:0009e090       ?SetBufferIsEmpty@trkChannel@@QAEJ_N@Z 0049f090 f   Libs Tracker:ChannelsPC.obj
 0001:0009e0a0       ?CleanBuffer@trkChannel@@UAEJXZ 0049f0a0 f   Libs Tracker:ChannelsPC.obj
 0001:0009e0c0       ?CleanBlocksFromWritePos@trkChannel@@QAEJKK@Z 0049f0c0 f   Libs Tracker:ChannelsPC.obj
 0001:0009e100       ??0trkSlaveChannel@@QAE@KKKK_N@Z 0049f100 f   Libs Tracker:ChannelsPC.obj
 0001:0009e170       ??_GtrkSlaveChannel@@UAEPAXI@Z 0049f170 f i Libs Tracker:ChannelsPC.obj
 0001:0009e170       ??_EtrkSlaveChannel@@UAEPAXI@Z 0049f170 f i Libs Tracker:ChannelsPC.obj
 0001:0009e190       ??1trkSlaveChannel@@UAE@XZ 0049f190 f   Libs Tracker:ChannelsPC.obj
 0001:0009e1a0       ?GetDataBlockMixPos@trkSlaveChannel@@QBEKXZ 0049f1a0 f   Libs Tracker:ChannelsPC.obj
 0001:0009e1b0       ?GetMaxBlocksToMix@trkSlaveChannel@@QBEKXZ 0049f1b0 f   Libs Tracker:ChannelsPC.obj
 0001:0009e1d0       ?GetNbBlocksToFeed@trkSlaveChannel@@UAEKXZ 0049f1d0 f   Libs Tracker:ChannelsPC.obj
 0001:0009e200       ?GetIsAboutToEnd@trkSlaveChannel@@QBE_NXZ 0049f200 f   Libs Tracker:ChannelsPC.obj
 0001:0009e210       ?GetChangeStereoVolume@trkSlaveChannel@@QBE_NXZ 0049f210 f   Libs Tracker:ChannelsPC.obj
 0001:0009e220       ?GetChangeMonoVolume@trkSlaveChannel@@QBE_NXZ 0049f220 f   Libs Tracker:ChannelsPC.obj
 0001:0009e230       ?GetMonoVolCorrection@trkSlaveChannel@@QBEKXZ 0049f230 f   Libs Tracker:ChannelsPC.obj
 0001:0009e240       ?GetLeftVolCorrection@trkSlaveChannel@@QBEKXZ 0049f240 f   Libs Tracker:ChannelsPC.obj
 0001:0009e250       ?GetRightVolCorrection@trkSlaveChannel@@QBEKXZ 0049f250 f   Libs Tracker:ChannelsPC.obj
 0001:0009e260       ?GetEndInMasterNoBlock@trkSlaveChannel@@QBEKXZ 0049f260 f   Libs Tracker:ChannelsPC.obj
 0001:0009e270       ?GetPitchCorrection@trkSlaveChannel@@QBEMXZ 0049f270 f   Libs Tracker:ChannelsPC.obj
 0001:0009e280       ?GetRewindedSamples@trkSlaveChannel@@QBEKXZ 0049f280 f   Libs Tracker:ChannelsPC.obj
 0001:0009e290       ?SetPitchCorrection@trkSlaveChannel@@QAEJM@Z 0049f290 f   Libs Tracker:ChannelsPC.obj
 0001:0009e2f0       ?SwitchEffectON@trkSlaveChannel@@UAEJK@Z 0049f2f0 f   Libs Tracker:ChannelsPC.obj
 0001:0009e320       ?SwitchEffectOFF@trkSlaveChannel@@UAEJK@Z 0049f320 f   Libs Tracker:ChannelsPC.obj
 0001:0009e350       ?SetIsAboutToEnd@trkSlaveChannel@@QAEX_N@Z 0049f350 f   Libs Tracker:ChannelsPC.obj
 0001:0009e360       ?SetEndInMasterNoBlock@trkSlaveChannel@@QAEXK@Z 0049f360 f   Libs Tracker:ChannelsPC.obj
 0001:0009e370       ?SetBaseVolume@trkSlaveChannel@@QAEJK@Z 0049f370 f   Libs Tracker:ChannelsPC.obj
 0001:0009e3a0       ?Reset@trkSlaveChannel@@QAEXXZ 0049f3a0 f   Libs Tracker:ChannelsPC.obj
 0001:0009e3c0       ?Play@trkSlaveChannel@@UAEJXZ 0049f3c0 f   Libs Tracker:ChannelsPC.obj
 0001:0009e3e0       ?Stop@trkSlaveChannel@@UAEJXZ 0049f3e0 f   Libs Tracker:ChannelsPC.obj
 0001:0009e420       ?Pause@trkSlaveChannel@@UAEJXZ 0049f420 f   Libs Tracker:ChannelsPC.obj
 0001:0009e440       ?SetVolume@trkSlaveChannel@@UAEJK@Z 0049f440 f   Libs Tracker:ChannelsPC.obj
 0001:0009e530       ?GetDataToMix@trkSlaveChannel@@QAEPAEXZ 0049f530 f   Libs Tracker:ChannelsPC.obj
 0001:0009e580       ?IncBlockMixPos@trkSlaveChannel@@QAEJXZ 0049f580 f   Libs Tracker:ChannelsPC.obj
 0001:0009e5c0       ?RewindBlockMixPos@trkSlaveChannel@@QAEJK@Z 0049f5c0 f   Libs Tracker:ChannelsPC.obj
 0001:0009e610       ??0trkWinMasterChannel@@QAE@KKKK_N@Z 0049f610 f   Libs Tracker:ChannelsPC.obj
 0001:0009e650       ??_GtrkWinMasterChannel@@UAEPAXI@Z 0049f650 f i Libs Tracker:ChannelsPC.obj
 0001:0009e650       ??_EtrkWinMasterChannel@@UAEPAXI@Z 0049f650 f i Libs Tracker:ChannelsPC.obj
 0001:0009e670       ??1trkWinMasterChannel@@UAE@XZ 0049f670 f   Libs Tracker:ChannelsPC.obj
 0001:0009e6d0       ?Play@trkWinMasterChannel@@UAEJXZ 0049f6d0 f   Libs Tracker:ChannelsPC.obj
 0001:0009e9d0       ?Pause@trkWinMasterChannel@@UAEJXZ 0049f9d0 f   Libs Tracker:ChannelsPC.obj
 0001:0009ea60       ?Stop@trkWinMasterChannel@@UAEJXZ 0049fa60 f   Libs Tracker:ChannelsPC.obj
 0001:0009ebd0       ?GetSoundPosition@trkWinMasterChannel@@QBEKJ@Z 0049fbd0 f   Libs Tracker:ChannelsPC.obj
 0001:0009ed10       ?SetNbBlocksLatency@trkWinMasterChannel@@QAEJK@Z 0049fd10 f   Libs Tracker:ChannelsPC.obj
 0001:0009ed30       ?GetNbBlocksToFeed@trkWinMasterChannel@@UAEKXZ 0049fd30 f   Libs Tracker:ChannelsPC.obj
 0001:0009ed60       ?GetLastChangePosition@trkWinMasterChannel@@QBEKXZ 0049fd60 f   Libs Tracker:ChannelsPC.obj
 0001:0009ed70       ?GetNbBlocksLatency@trkWinMasterChannel@@QBEKXZ 0049fd70 f   Libs Tracker:ChannelsPC.obj
 0001:0009ed80       ?GetLastReadBlockPosition@trkWinMasterChannel@@QBEKXZ 0049fd80 f   Libs Tracker:ChannelsPC.obj
 0001:0009ed90       ?GetVolume@trkWinMasterChannel@@UBEKXZ 0049fd90 f   Libs Tracker:ChannelsPC.obj
 0001:0009ee00       ?SetVolume@trkWinMasterChannel@@UAEJK@Z 0049fe00 f   Libs Tracker:ChannelsPC.obj
 0001:0009eeb0       ?IncVolume@trkWinMasterChannel@@UAEJK@Z 0049feb0 f   Libs Tracker:ChannelsPC.obj
 0001:0009eee0       ?DecVolume@trkWinMasterChannel@@UAEJK@Z 0049fee0 f   Libs Tracker:ChannelsPC.obj
 0001:0009ef10       ?CleanBuffer@trkWinMasterChannel@@UAEJXZ 0049ff10 f   Libs Tracker:ChannelsPC.obj
 0001:0009ef50       ?UnflagPrecalcBlocks@trkWinMasterChannel@@QAEKXZ 0049ff50 f   Libs Tracker:ChannelsPC.obj
 0001:0009efe0       ??0trkWinRecordChannel@@QAE@KKK_N@Z 0049ffe0 f   Libs Tracker:ChannelsPC.obj
 0001:0009f060       ??1trkWinRecordChannel@@QAE@XZ 004a0060 f   Libs Tracker:ChannelsPC.obj
 0001:0009f090       ?Start@trkWinRecordChannel@@QAEJXZ 004a0090 f   Libs Tracker:ChannelsPC.obj
 0001:0009f2b0       ?Stop@trkWinRecordChannel@@QAEJXZ 004a02b0 f   Libs Tracker:ChannelsPC.obj
 0001:0009f3f0       ?IsRecordFinished@trkWinRecordChannel@@QAE_NXZ 004a03f0 f   Libs Tracker:ChannelsPC.obj
 0001:0009f410       ?GetBytesRecorded@trkWinRecordChannel@@QBEKXZ 004a0410 f   Libs Tracker:ChannelsPC.obj
 0001:0009f420       ?GetSoundBuffer@trkWinRecordChannel@@QBEPBVtrkSoundBuffer@@XZ 004a0420 f   Libs Tracker:ChannelsPC.obj
 0001:0009f430       ??0LibDataBase@@QAE@PBDJ_N@Z 004a0430 f   Libs DBase:LibDataBase.obj
 0001:0009f600       ??1LibDataBase@@QAE@XZ     004a0600 f   Libs DBase:LibDataBase.obj
 0001:0009f790       ?GetName@LibDataBase@@QAEPBDXZ 004a0790 f   Libs DBase:LibDataBase.obj
 0001:0009f7a0       ?AddAnOpenTable@LibDataBase@@QAEXPAVLibDataTable@@@Z 004a07a0 f   Libs DBase:LibDataBase.obj
 0001:0009f7e0       ?DelAnOpenTable@LibDataBase@@QAEXPAVLibDataTable@@@Z 004a07e0 f   Libs DBase:LibDataBase.obj
 0001:0009f820       ?GetOpenTableList@LibDataBase@@QAE_NPADF@Z 004a0820 f   Libs DBase:LibDataBase.obj
 0001:0009f8f0       ?end@?$list@PAVLibDataTable@@V?$__default_alloc_template@$00$0A@@@@@QAE?AU?$_List_iterator@PAVLibDataTable@@AAPAV1@PAPAV1@@@XZ 004a08f0 f i Libs DBase:LibDataBase.obj
 0001:0009f900       ?erase@?$list@PAVLibDataTable@@V?$__default_alloc_template@$00$0A@@@@@QAE?AU?$_List_iterator@PAVLibDataTable@@AAPAV1@PAPAV1@@@U2@@Z 004a0900 f i Libs DBase:LibDataBase.obj
 0001:0009f930       ??1?$list@PAVLibDataTable@@V?$__default_alloc_template@$00$0A@@@@@QAE@XZ 004a0930 f i Libs DBase:LibDataBase.obj
 0001:0009fa90       ??0?$_List_iterator@PAVLibDataTable@@AAPAV1@PAPAV1@@@QAE@ABU0@@Z 004a0a90 f i Libs DBase:LibDataBase.obj
 0001:0009faa0       ?insert@?$list@PAVLibDataTable@@V?$__default_alloc_template@$00$0A@@@@@QAE?AU?$_List_iterator@PAVLibDataTable@@AAPAV1@PAPAV1@@@U2@ABQAVLibDataTable@@@Z 004a0aa0 f i Libs DBase:LibDataBase.obj
 0001:0009fad0       ?_M_create_node@?$list@PAVLibDataTable@@V?$__default_alloc_template@$00$0A@@@@@IAEPAU?$_List_node@PAVLibDataTable@@@@ABQAVLibDataTable@@@Z 004a0ad0 f i Libs DBase:LibDataBase.obj
 0001:0009fb90       ??0LibDataTable@@QAE@PAVLibDataBase@@PBD@Z 004a0b90 f   Libs DBase:LibDataTable.obj
 0001:0009fe40       ??1LibDataTable@@QAE@XZ    004a0e40 f   Libs DBase:LibDataTable.obj
 0001:000a0090       ?DeleteTag4@LibDataTable@@AAEXPAUMdoTag4@@@Z 004a1090 f   Libs DBase:LibDataTable.obj
 0001:000a00b0       ?GetError@LibDataTable@@QAEK_N@Z 004a10b0 f   Libs DBase:LibDataTable.obj
 0001:000a00d0       ?GetName@LibDataTable@@QAEPBDXZ 004a10d0 f   Libs DBase:LibDataTable.obj
 0001:000a00e0       ?FirstRecord@LibDataTable@@QAEXXZ 004a10e0 f   Libs DBase:LibDataTable.obj
 0001:000a0160       ?NextRecord@LibDataTable@@QAEXXZ 004a1160 f   Libs DBase:LibDataTable.obj
 0001:000a01d0       ?CountRecord@LibDataTable@@QAEJXZ 004a11d0 f   Libs DBase:LibDataTable.obj
 0001:000a01f0       ?AppendRecord@LibDataTable@@QAEXXZ 004a11f0 f   Libs DBase:LibDataTable.obj
 0001:000a0210       ?SelectKey@LibDataTable@@QAEXPBD@Z 004a1210 f   Libs DBase:LibDataTable.obj
 0001:000a0310       ?FieldNameToIndice@LibDataTable@@AAEJPBD@Z 004a1310 f   Libs DBase:LibDataTable.obj
 0001:000a0360       ?SeekRecord@LibDataTable@@QAEXPBD@Z 004a1360 f   Libs DBase:LibDataTable.obj
 0001:000a0950       ?SeekNextRecord@LibDataTable@@QAEXXZ 004a1950 f   Libs DBase:LibDataTable.obj
 0001:000a09d0       ?GetFieldLONG@LibDataTable@@QAEJPBD@Z 004a19d0 f   Libs DBase:LibDataTable.obj
 0001:000a0a80       ?GetFieldFLOAT@LibDataTable@@QAENPBD@Z 004a1a80 f   Libs DBase:LibDataTable.obj
 0001:000a0b30       ?GetFieldSTRING@LibDataTable@@QAEPBDPBD@Z 004a1b30 f   Libs DBase:LibDataTable.obj
 0001:000a0be0       ?GetFieldMEMO@LibDataTable@@QAEPBDPBD@Z 004a1be0 f   Libs DBase:LibDataTable.obj
 0001:000a0c90       ?PutFieldLONG@LibDataTable@@QAEXPBDK@Z 004a1c90 f   Libs DBase:LibDataTable.obj
 0001:000a0d50       ?PutFieldFLOAT@LibDataTable@@QAEXPBDN@Z 004a1d50 f   Libs DBase:LibDataTable.obj
 0001:000a0e10       ?PutFieldSTRING@LibDataTable@@QAEXPBD0@Z 004a1e10 f   Libs DBase:LibDataTable.obj
 0001:000a0f00       ?PutFieldMEMO@LibDataTable@@QAEXPBD0@Z 004a1f00 f   Libs DBase:LibDataTable.obj
 0001:000a0fd0       ?Flush@LibDataTable@@QAEXXZ 004a1fd0 f   Libs DBase:LibDataTable.obj
 0001:000a0fe0       ??1?$vector@PAUMdoTag4@@V?$__default_alloc_template@$00$0A@@@@@QAE@XZ 004a1fe0 f i Libs DBase:LibDataTable.obj
 0001:000a1140       _SetRCTWarning             004a2140 f   Libs DBase:D4rct.obj
 0001:000a1160       _GetRCTWarning             004a2160 f   Libs DBase:D4rct.obj
 0001:000a1170       _error4hook                004a2170 f   Libs DBase:D4rct.obj
 0001:000a1270       _OpenRCT                   004a2270 f   Libs DBase:D4rct.obj
 0001:000a13f0       _GetRctTextByStruct        004a23f0 f   Libs DBase:D4rct.obj
 0001:000a15e0       _GetRctText                004a25e0 f   Libs DBase:D4rct.obj
 0001:000a1730       _CloseRCT                  004a2730 f   Libs DBase:D4rct.obj
 0001:000a1770       _code4numCodeBase          004a2770 f   Libs DBase:C4code.obj
 0001:000a1780       _code4initLow              004a2780 f   Libs DBase:C4code.obj
 0001:000a19c0       _code4allocLow             004a29c0 f   Libs DBase:C4code.obj
 0001:000a1a00       _expr4calcDelete           004a2a00 f   Libs DBase:C4code.obj
 0001:000a1a90       _code4calcReset            004a2a90 f   Libs DBase:C4code.obj
 0001:000a1ae0       _code4exit                 004a2ae0 f   Libs DBase:C4code.obj
 0001:000a1d40       _code4initUndo             004a2d40 f   Libs DBase:C4code.obj
 0001:000a1d50       _code4close                004a2d50 f   Libs DBase:C4code.obj
 0001:000a1dd0       _dfile4data                004a2dd0 f   Libs DBase:C4code.obj
 0001:000a1e50       _tran4dataName             004a2e50 f   Libs DBase:C4code.obj
 0001:000a1f60       _tran4data                 004a2f60 f   Libs DBase:C4code.obj
 0001:000a1fa0       _code4data                 004a2fa0 f   Libs DBase:C4code.obj
 0001:000a2010       _code4version              004a3010 f   Libs DBase:C4code.obj
 0001:000a2080       _code4indexFormat          004a3080 f   Libs DBase:C4code.obj
 0001:000a20b0       _code4logCreate            004a30b0 f   Libs DBase:C4code.obj
 0001:000a2140       _code4logFileName          004a3140 f   Libs DBase:C4code.obj
 0001:000a2170       _code4logOpen              004a3170 f   Libs DBase:C4code.obj
 0001:000a2200       _code4logOpenOff           004a3200 f   Libs DBase:C4code.obj
 0001:000a2230       _code4indexExtension       004a3230 f   Libs DBase:C4code.obj
 0001:000a22e0       _u4switch                  004a32e0 f   Libs DBase:C4code.obj
 0001:000a22f0       _code4tranInit2            004a32f0 f   Libs DBase:C4code.obj
 0001:000a2350       _code4tranInit             004a3350 f   Libs DBase:C4code.obj
 0001:000a2380       _c4getAccessMode           004a3380 f   Libs DBase:C4code.obj
 0001:000a2390       _c4getAutoOpen             004a3390 f   Libs DBase:C4code.obj
 0001:000a23a0       _c4getErrorCode            004a33a0 f   Libs DBase:C4code.obj
 0001:000a23b0       _c4getErrDefaultUnique     004a33b0 f   Libs DBase:C4code.obj
 0001:000a23c0       _c4getErrExpr              004a33c0 f   Libs DBase:C4code.obj
 0001:000a23d0       _c4getErrFieldName         004a33d0 f   Libs DBase:C4code.obj
 0001:000a23e0       _c4getErrGo                004a33e0 f   Libs DBase:C4code.obj
 0001:000a23f0       _c4getErrOpen              004a33f0 f   Libs DBase:C4code.obj
 0001:000a2400       _c4getErrRelate            004a3400 f   Libs DBase:C4code.obj
 0001:000a2410       _c4getErrSkip              004a3410 f   Libs DBase:C4code.obj
 0001:000a2420       _c4getErrTagName           004a3420 f   Libs DBase:C4code.obj
 0001:000a2430       _c4getLockAttempts         004a3430 f   Libs DBase:C4code.obj
 0001:000a2440       _c4getLockEnforce          004a3440 f   Libs DBase:C4code.obj
 0001:000a2450       _c4getOptimize             004a3450 f   Libs DBase:C4code.obj
 0001:000a2460       _c4getOptimizeWrite        004a3460 f   Libs DBase:C4code.obj
 0001:000a2470       _c4getReadLock             004a3470 f   Libs DBase:C4code.obj
 0001:000a2480       _c4getReadOnly             004a3480 f   Libs DBase:C4code.obj
 0001:000a2490       _c4getSafety               004a3490 f   Libs DBase:C4code.obj
 0001:000a24a0       _c4getSingleOpen           004a34a0 f   Libs DBase:C4code.obj
 0001:000a24b0       _t4getExprSource           004a34b0 f   Libs DBase:C4code.obj
 0001:000a24c0       _c4setAccessMode           004a34c0 f   Libs DBase:C4code.obj
 0001:000a24d0       _c4setAutoOpen             004a34d0 f   Libs DBase:C4code.obj
 0001:000a24e0       _c4setErrorCode            004a34e0 f   Libs DBase:C4code.obj
 0001:000a24f0       _c4setErrExpr              004a34f0 f   Libs DBase:C4code.obj
 0001:000a2500       _c4setErrFieldName         004a3500 f   Libs DBase:C4code.obj
 0001:000a2510       _c4setErrGo                004a3510 f   Libs DBase:C4code.obj
 0001:000a2520       _c4setErrOpen              004a3520 f   Libs DBase:C4code.obj
 0001:000a2530       _c4setErrRelate            004a3530 f   Libs DBase:C4code.obj
 0001:000a2540       _c4setErrSkip              004a3540 f   Libs DBase:C4code.obj
 0001:000a2550       _c4setErrTagName           004a3550 f   Libs DBase:C4code.obj
 0001:000a2560       _c4setLockAttempts         004a3560 f   Libs DBase:C4code.obj
 0001:000a2570       _c4setLockEnforce          004a3570 f   Libs DBase:C4code.obj
 0001:000a2580       _c4setOptimize             004a3580 f   Libs DBase:C4code.obj
 0001:000a2590       _c4setOptimizeWrite        004a3590 f   Libs DBase:C4code.obj
 0001:000a25a0       _c4setReadLock             004a35a0 f   Libs DBase:C4code.obj
 0001:000a25b0       _c4setReadOnly             004a35b0 f   Libs DBase:C4code.obj
 0001:000a25c0       _c4setSafety               004a35c0 f   Libs DBase:C4code.obj
 0001:000a25d0       _c4setSingleOpen           004a35d0 f   Libs DBase:C4code.obj
 0001:000a25e0       _c4setErrDefaultUnique     004a35e0 f   Libs DBase:C4code.obj
 0001:000a25f0       _code4tranInitUndoLow      004a35f0 f   Libs DBase:C4code.obj
 0001:000a2660       _code4tranInitUndo         004a3660 f   Libs DBase:C4code.obj
 0001:000a2690       _d4tag                     004a3690 f   Libs DBase:D4tag.obj
 0001:000a2780       _dfile4tag                 004a3780 f   Libs DBase:D4tag.obj
 0001:000a2840       _d4tagDefault              004a3840 f   Libs DBase:D4tag.obj
 0001:000a2890       _dfile4tagDefault          004a3890 f   Libs DBase:D4tag.obj
 0001:000a28b0       _d4tagNext                 004a38b0 f   Libs DBase:D4tag.obj
 0001:000a2950       _dfile4tagNext             004a3950 f   Libs DBase:D4tag.obj
 0001:000a29c0       _d4tagPrev                 004a39c0 f   Libs DBase:D4tag.obj
 0001:000a2a60       _dfile4tagPrev             004a3a60 f   Libs DBase:D4tag.obj
 0001:000a2ab0       _d4tagSelect               004a3ab0 f   Libs DBase:D4tag.obj
 0001:000a2ae0       _dfile4tagSelect           004a3ae0 f   Libs DBase:D4tag.obj
 0001:000a2b10       _d4tagSelected             004a3b10 f   Libs DBase:D4tag.obj
 0001:000a2b40       _dfile4tagSelected         004a3b40 f   Libs DBase:D4tag.obj
 0001:000a2b60       _t4alias                   004a3b60 f   Libs DBase:I4info.obj
 0001:000a2ba0       _tfile4isDescending        004a3ba0 f   Libs DBase:I4info.obj
 0001:000a2bc0       _i4tagInfo                 004a3bc0 f   Libs DBase:I4info.obj
 0001:000a2ca0       _i4fileName                004a3ca0 f   Libs DBase:I4index.obj
 0001:000a2cd0       _i4close                   004a3cd0 f   Libs DBase:I4index.obj
 0001:000a2e30       _index4close               004a3e30 f   Libs DBase:I4index.obj
 0001:000a2fc0       _index4extend              004a3fc0 f   Libs DBase:I4index.obj
 0001:000a3070       _index4flush               004a4070 f   Libs DBase:I4index.obj
 0001:000a30a0       _index4update              004a40a0 f   Libs DBase:I4index.obj
 0001:000a3110       _i4open                    004a4110 f   Libs DBase:I4index.obj
 0001:000a32a0       _index4open                004a42a0 f   Libs DBase:I4index.obj
 0001:000a36b0       _i4tag                     004a46b0 f   Libs DBase:I4index.obj
 0001:000a37b0       _index4shrink              004a47b0 f   Libs DBase:I4index.obj
 0001:000a3800       _i4updateHeader            004a4800 f   Libs DBase:I4index.obj
 0001:000a3820       _index4updateHeader        004a4820 f   Libs DBase:I4index.obj
 0001:000a3910       _t4versionCheck            004a4910 f   Libs DBase:I4index.obj
 0001:000a3940       _i4versionCheck            004a4940 f   Libs DBase:I4index.obj
 0001:000a3ab0       _index4versionCheck        004a4ab0 f   Libs DBase:I4index.obj
 0001:000a3be0       _index4isProduction        004a4be0 f   Libs DBase:I4index.obj
 0001:000a3bf0       _dfile4closeLow            004a4bf0 f   Libs DBase:D4close.obj
 0001:000a3d50       _code4dataFileCloseAll     004a4d50 f   Libs DBase:D4close.obj
 0001:000a3da0       _dfile4close               004a4da0 f   Libs DBase:D4close.obj
 0001:000a3dc0       _code4lockClearData        004a4dc0 f   Libs DBase:D4close.obj
 0001:000a3e30       _d4close                   004a4e30 f   Libs DBase:D4close.obj
 0001:000a40e0       _d4fieldInfo               004a50e0 f   Libs DBase:F4info.obj
 0001:000a41a0       _d4alias                   004a51a0 f   Libs DBase:D4data.obj
 0001:000a41d0       _d4aliasSet                004a51d0 f   Libs DBase:D4data.obj
 0001:000a4210       _d4blankLow                004a5210 f   Libs DBase:D4data.obj
 0001:000a4240       _d4blank                   004a5240 f   Libs DBase:D4data.obj
 0001:000a42b0       _d4bof                     004a52b0 f   Libs DBase:D4data.obj
 0001:000a42e0       _d4delete                  004a52e0 f   Libs DBase:D4data.obj
 0001:000a4350       _d4deleted                 004a5350 f   Libs DBase:D4data.obj
 0001:000a4380       _d4eof                     004a5380 f   Libs DBase:D4data.obj
 0001:000a43b0       _d4fileName                004a53b0 f   Libs DBase:D4data.obj
 0001:000a43e0       _d4log                     004a53e0 f   Libs DBase:D4data.obj
 0001:000a4480       _d4numFields               004a5480 f   Libs DBase:D4data.obj
 0001:000a44b0       _d4readOld                 004a54b0 f   Libs DBase:D4data.obj
 0001:000a4520       _d4recall                  004a5520 f   Libs DBase:D4data.obj
 0001:000a4590       _d4recCountLessEq          004a5590 f   Libs DBase:D4data.obj
 0001:000a45f0       _d4recCountDo              004a55f0 f   Libs DBase:D4data.obj
 0001:000a4650       _d4recNo                   004a5650 f   Libs DBase:D4data.obj
 0001:000a4670       _d4record                  004a5670 f   Libs DBase:D4data.obj
 0001:000a46a0       _d4recordOld               004a56a0 f   Libs DBase:D4data.obj
 0001:000a46d0       _d4recPosition             004a56d0 f   Libs DBase:D4data.obj
 0001:000a4710       _d4recWidth                004a5710 f   Libs DBase:D4data.obj
 0001:000a4740       _d4verify                  004a5740 f   Libs DBase:D4data.obj
 0001:000a47d0       _d4open                    004a57d0 f   Libs DBase:D4open.obj
 0001:000a4e90       _d4openClone               004a5e90 f   Libs DBase:D4open.obj
 0001:000a50f0       _dfile4open                004a60f0 f   Libs DBase:D4open.obj
 0001:000a55a0       _mem4start                 004a65a0 f   Libs DBase:M4memory.obj
 0001:000a55c0       _mem4stop                  004a65c0 f   Libs DBase:M4memory.obj
 0001:000a55e0       _mem4allocDefault          004a65e0 f   Libs DBase:M4memory.obj
 0001:000a5610       _mem4alloc2Default         004a6610 f   Libs DBase:M4memory.obj
 0001:000a5780       _mem4createDefault         004a6780 f   Libs DBase:M4memory.obj
 0001:000a5950       _mem4createAllocDefault    004a6950 f   Libs DBase:M4memory.obj
 0001:000a59a0       _mem4freeDefault           004a69a0 f   Libs DBase:M4memory.obj
 0001:000a5a10       _mem4release               004a6a10 f   Libs DBase:M4memory.obj
 0001:000a5aa0       _u4allocDefault            004a6aa0 f   Libs DBase:M4memory.obj
 0001:000a5af0       _u4freeFixedDefault        004a6af0 f   Libs DBase:M4memory.obj
 0001:000a5b00       _u4allocFixedDefault       004a6b00 f   Libs DBase:M4memory.obj
 0001:000a5b20       _u4allocErDefault          004a6b20 f   Libs DBase:M4memory.obj
 0001:000a5b60       _u4freeDefault             004a6b60 f   Libs DBase:M4memory.obj
 0001:000a5ba0       _mem4reset                 004a6ba0 f   Libs DBase:M4memory.obj
 0001:000a5c40       _mem4init                  004a6c40 f   Libs DBase:M4memory.obj
 0001:000a5cc0       _d4tagSync                 004a6cc0 f   Libs DBase:D4skip.obj
 0001:000a5d00       _d4tagSyncDo               004a6d00 f   Libs DBase:D4skip.obj
 0001:000a6020       _d4skip                    004a7020 f   Libs DBase:D4skip.obj
 0001:000a6380       _d4top                     004a7380 f   Libs DBase:D4top.obj
 0001:000a64c0       _d4goBof                   004a74c0 f   Libs DBase:D4top.obj
 0001:000a6520       _d4append                  004a7520 f   Libs DBase:D4append.obj
 0001:000a6d10       _d4appendBlank             004a7d10 f   Libs DBase:D4append.obj
 0001:000a6d50       _d4appendStart             004a7d50 f   Libs DBase:D4append.obj
 0001:000a6ee0       _d4unappend                004a7ee0 f   Libs DBase:D4append.obj
 0001:000a70d0       _dfile4unappendData        004a80d0 f   Libs DBase:D4append.obj
 0001:000a7150       _d4seek                    004a8150 f   Libs DBase:D4seek.obj
 0001:000a71a0       _d4seekNext                004a81a0 f   Libs DBase:D4seek.obj
 0001:000a71f0       _d4seekNextN               004a81f0 f   Libs DBase:D4seek.obj
 0001:000a76b0       _d4seekN                   004a86b0 f   Libs DBase:D4seek.obj
 0001:000a77c0       _d4seekDouble              004a87c0 f   Libs DBase:D4seek.obj
 0001:000a78b0       _d4seekNextDouble          004a88b0 f   Libs DBase:D4seek.obj
 0001:000a7b50       _f4assignInt               004a8b50 f   Libs DBase:F4int.obj
 0001:000a7c40       _f4int                     004a8c40 f   Libs DBase:F4int.obj
 0001:000a7ce0       _d4field                   004a8ce0 f   Libs DBase:D4field.obj
 0001:000a7d30       _d4fieldJ                  004a8d30 f   Libs DBase:D4field.obj
 0001:000a7da0       _d4fieldNumber             004a8da0 f   Libs DBase:D4field.obj
 0001:000a7ec0       _f4assignDouble            004a8ec0 f   Libs DBase:F4double.obj
 0001:000a7fa0       _f4double                  004a8fa0 f   Libs DBase:F4double.obj
 0001:000a8030       _f4double2                 004a9030 f   Libs DBase:F4double.obj
 0001:000a8070       _f4assign                  004a9070 f   Libs DBase:F4str.obj
 0001:000a8100       _f4assignN                 004a9100 f   Libs DBase:F4str.obj
 0001:000a81e0       _f4ncpy                    004a91e0 f   Libs DBase:F4str.obj
 0001:000a8250       _f4str                     004a9250 f   Libs DBase:F4str.obj
 0001:000a82e0       _f4memoAssign              004a92e0 f   Libs DBase:F4memo.obj
 0001:000a8350       _f4memoAssignN             004a9350 f   Libs DBase:F4memo.obj
 0001:000a8430       _f4memoFree                004a9430 f   Libs DBase:F4memo.obj
 0001:000a8490       _f4memoLen                 004a9490 f   Libs DBase:F4memo.obj
 0001:000a84f0       _f4memoNcpy                004a94f0 f   Libs DBase:F4memo.obj
 0001:000a85a0       _f4memoPtr                 004a95a0 f   Libs DBase:F4memo.obj
 0001:000a8600       _f4memoRead                004a9600 f   Libs DBase:F4memo.obj
 0001:000a8690       _f4memoReadLow             004a9690 f   Libs DBase:F4memo.obj
 0001:000a8710       _f4memoReset               004a9710 f   Libs DBase:F4memo.obj
 0001:000a8730       _f4memoSetLen              004a9730 f   Libs DBase:F4memo.obj
 0001:000a8830       _f4memoStr                 004a9830 f   Libs DBase:F4memo.obj
 0001:000a8870       _f4memoUpdate              004a9870 f   Libs DBase:F4memo.obj
 0001:000a88a0       _f4memoWrite               004a98a0 f   Libs DBase:F4memo.obj
 0001:000a8940       _f4assignLong              004a9940 f   Libs DBase:F4long.obj
 0001:000a8a30       _f4long                    004a9a30 f   Libs DBase:F4long.obj
 0001:000a8ab0       _d4changed                 004a9ab0 f   Libs DBase:D4flush.obj
 0001:000a8b30       _d4flush                   004a9b30 f   Libs DBase:D4flush.obj
 0001:000a8b70       _d4flushData               004a9b70 f   Libs DBase:D4flush.obj
 0001:000a8bb0       _dfile4flush               004a9bb0 f   Libs DBase:D4flush.obj
 0001:000a8bd0       _dfile4flushIndex          004a9bd0 f   Libs DBase:D4flush.obj
 0001:000a8c30       _dfile4flushData           004a9c30 f   Libs DBase:D4flush.obj
 0001:000a8c70       _code4flush                004a9c70 f   Libs DBase:D4flush.obj
 0001:000a8cd0       _dfile4updateIndexes       004a9cd0 f   Libs DBase:D4flush.obj
 0001:000a8d10       _d4update                  004a9d10 f   Libs DBase:D4flush.obj
 0001:000a8da0       _d4updateRecord            004a9da0 f   Libs DBase:D4flush.obj
 0001:000a8f10       _error4file                004a9f10 f   Libs DBase:E4error.obj
 0001:000a8fc0       _error4logAppend           004a9fc0 f   Libs DBase:E4error.obj
 0001:000a9260       _error4set                 004aa260 f   Libs DBase:E4error.obj
 0001:000a9270       _e4text                    004aa270 f   Libs DBase:E4error.obj
 0001:000a92b0       _error4out                 004aa2b0 f   Libs DBase:E4error.obj
 0001:000a9580       _error4default             004aa580 f   Libs DBase:E4error.obj
 0001:000a95a0       _error4describeDefault     004aa5a0 f   Libs DBase:E4error.obj
 0001:000a95d0       _error4describeExecute     004aa5d0 f   Libs DBase:E4error.obj
 0001:000a9610       _error4exitTest            004aa610 f   Libs DBase:E4error.obj
 0001:000a9630       _code4memStartMaxSet       004aa630 f   Libs DBase:D4opt.obj
 0001:000a96e0       _code4optAll               004aa6e0 f   Libs DBase:D4opt.obj
 0001:000a97a0       _code4optStart             004aa7a0 f   Libs DBase:D4opt.obj
 0001:000a9830       _code4optRestart           004aa830 f   Libs DBase:D4opt.obj
 0001:000a9c30       _code4optSuspend           004aac30 f   Libs DBase:D4opt.obj
 0001:000a9d10       _d4optimize                004aad10 f   Libs DBase:D4opt.obj
 0001:000a9d50       _dfile4optimize            004aad50 f   Libs DBase:D4opt.obj
 0001:000a9de0       _d4optimizeWrite           004aade0 f   Libs DBase:D4opt.obj
 0001:000a9e20       _dfile4optimizeWrite       004aae20 f   Libs DBase:D4opt.obj
 0001:000aa130       _code4dateFormat           004ab130 f   Libs DBase:D4date.obj
 0001:000aa160       _code4dateFormatSet        004ab160 f   Libs DBase:D4date.obj
 0001:000aa1e0       _date4isLeap               004ab1e0 f   Libs DBase:D4date.obj
 0001:000aa230       _date4assign               004ab230 f   Libs DBase:D4date.obj
 0001:000aa420       _date4cdow                 004ab420 f   Libs DBase:D4date.obj
 0001:000aa440       _date4cmonth               004ab440 f   Libs DBase:D4date.obj
 0001:000aa460       _date4dow                  004ab460 f   Libs DBase:D4date.obj
 0001:000aa490       _date4format               004ab490 f   Libs DBase:D4date.obj
 0001:000aa5f0       _date4formatMdx            004ab5f0 f   Libs DBase:D4date.obj
 0001:000aa620       _date4formatMdx2           004ab620 f   Libs DBase:D4date.obj
 0001:000aa660       _date4init                 004ab660 f   Libs DBase:D4date.obj
 0001:000aa8e0       _date4long                 004ab8e0 f   Libs DBase:D4date.obj
 0001:000aaa00       _date4timeNow              004aba00 f   Libs DBase:D4date.obj
 0001:000aaa60       _date4today                004aba60 f   Libs DBase:D4date.obj
 0001:000aaac0       _c4atod                    004abac0 f   Libs DBase:C4.obj
 0001:000aab10       _c4atod2                   004abb10 f   Libs DBase:C4.obj
 0001:000aab60       _c4atoi                    004abb60 f   Libs DBase:C4.obj
 0001:000aabb0       _c4atol                    004abbb0 f   Libs DBase:C4.obj
 0001:000aac00       _c4descend                 004abc00 f   Libs DBase:C4.obj
 0001:000aac40       _c4clip                    004abc40 f   Libs DBase:C4.obj
 0001:000aac90       _c4dtoa45                  004abc90 f   Libs DBase:C4.obj
 0001:000aae50       _c4encode                  004abe50 f   Libs DBase:C4.obj
 0001:000aaee0       _c4ltoa45                  004abee0 f   Libs DBase:C4.obj
 0001:000aafa0       _c4trimN                   004abfa0 f   Libs DBase:C4.obj
 0001:000aaff0       _c4lower                   004abff0 f   Libs DBase:C4.obj
 0001:000ab000       _c4upper                   004ac000 f   Libs DBase:C4.obj
 0001:000ab010       _c4calcType                004ac010 f   Libs DBase:C4.obj
 0001:000ab030       _l4addAfter                004ac030 f   Libs DBase:L4link.obj
 0001:000ab070       _l4addBefore               004ac070 f   Libs DBase:L4link.obj
 0001:000ab0b0       _l4pop                     004ac0b0 f   Libs DBase:L4link.obj
 0001:000ab0d0       _l4prev                    004ac0d0 f   Libs DBase:L4link.obj
 0001:000ab0f0       _l4remove                  004ac0f0 f   Libs DBase:L4link.obj
 0001:000ab140       _l4seek                    004ac140 f   Libs DBase:L4link.obj
 0001:000ab180       _file4close                004ac180 f   Libs DBase:MDOF4close.obj
 0001:000ab250       _tran4fileAppend           004ac250 f   Libs DBase:C4trans.obj
 0001:000ab2d0       _tran4lowAppend            004ac2d0 f   Libs DBase:C4trans.obj
 0001:000ab320       _tran4fileCreate           004ac320 f   Libs DBase:C4trans.obj
 0001:000ab3f0       _tran4fileTop              004ac3f0 f   Libs DBase:C4trans.obj
 0001:000ab500       _tran4fileBottom           004ac500 f   Libs DBase:C4trans.obj
 0001:000ab540       _tran4fileSkip             004ac540 f   Libs DBase:C4trans.obj
 0001:000ab610       _tran4getData              004ac610 f   Libs DBase:C4trans.obj
 0001:000ab660       _tran4set                  004ac660 f   Libs DBase:C4trans.obj
 0001:000ab7e0       _tran4putData              004ac7e0 f   Libs DBase:C4trans.obj
 0001:000ab860       _tran4lowUnappend          004ac860 f   Libs DBase:C4trans.obj
 0001:000ab950       _tran4lowUnwrite           004ac950 f   Libs DBase:C4trans.obj
 0001:000abb70       _tran4lowStart             004acb70 f   Libs DBase:C4trans.obj
 0001:000abca0       _tran4lowRollback          004acca0 f   Libs DBase:C4trans.obj
 0001:000abeb0       _tran4lowCommit            004aceb0 f   Libs DBase:C4trans.obj
 0001:000ac230       _code4tranCommit           004ad230 f   Libs DBase:C4trans.obj
 0001:000ac300       _code4tranStart            004ad300 f   Libs DBase:C4trans.obj
 0001:000ac330       _code4tranStartSingle      004ad330 f   Libs DBase:C4trans.obj
 0001:000ac360       _code4tranRollback         004ad360 f   Libs DBase:C4trans.obj
 0001:000ac3e0       _code4transFileEnable      004ad3e0 f   Libs DBase:C4trans.obj
 0001:000ac7f0       _tran4addUser              004ad7f0 f   Libs DBase:C4trans.obj
 0001:000ac9c0       _code4lock                 004ad9c0 f   Libs DBase:C4trans.obj
 0001:000acbd0       _code4tranInitLow          004adbd0 f   Libs DBase:C4trans.obj
 0001:000acc00       _code4transInitUndo        004adc00 f   Libs DBase:C4trans.obj
 0001:000acdc0       _code4tranLockTransactions 004addc0 f   Libs DBase:C4trans.obj
 0001:000ace30       _code4tranUnlockTransactions 004ade30 f   Libs DBase:C4trans.obj
 0001:000ace80       _tran4lock                 004ade80 f   Libs DBase:C4trans.obj
 0001:000ad010       _tran4active               004ae010 f   Libs DBase:C4trans.obj
 0001:000ad090       _code4lockClear            004ae090 f   Libs DBase:C4trans.obj
 0001:000ad0e0       _dfile4read                004ae0e0 f   Libs DBase:D4file.obj
 0001:000ad170       _dfile4recCount            004ae170 f   Libs DBase:D4file.obj
 0001:000ad210       _dfile4name                004ae210 f   Libs DBase:D4file.obj
 0001:000ad220       _dfile4updateHeader        004ae220 f   Libs DBase:D4file.obj
 0001:000ad2b0       _u4nameExt                 004ae2b0 f   Libs DBase:U4name.obj
 0001:000ad360       _u4nameCurrent             004ae360 f   Libs DBase:U4name.obj
 0001:000ad740       _u4nameMake                004ae740 f   Libs DBase:U4name.obj
 0001:000ad810       _u4namePiece               004ae810 f   Libs DBase:U4name.obj
 0001:000ad8c0       _u4nameChar                004ae8c0 f   Libs DBase:U4name.obj
 0001:000ad900       _u4namePath                004ae900 f   Libs DBase:U4name.obj
 0001:000ad950       _u4nameRetExt              004ae950 f   Libs DBase:U4name.obj
 0001:000ada40       _u4allocAgainDefault       004aea40 f   Libs DBase:U4util.obj
 0001:000adae0       _u4allocFreeDefault        004aeae0 f   Libs DBase:U4util.obj
 0001:000adb30       _u4delayHundredth          004aeb30 f   Libs DBase:U4util.obj
 0001:000adbf0       _u4environ                 004aebf0 f   Libs DBase:U4util.obj
 0001:000adc40       _u4ncpy                    004aec40 f   Libs DBase:U4util.obj
 0001:000adca0       _u4yymmdd                  004aeca0 f   Libs DBase:U4util.obj
 0001:000adcd0       _u4remove                  004aecd0 f   Libs DBase:U4util.obj
 0001:000adce0       _u4rename                  004aece0 f   Libs DBase:U4util.obj
 0001:000add00       _tfile4unique              004aed00 f   Libs DBase:I4tag.obj
 0001:000add20       _t4unique                  004aed20 f   Libs DBase:I4tag.obj
 0001:000add70       _t4uniqueSet               004aed70 f   Libs DBase:I4tag.obj
 0001:000addf0       _t4uniqueSetLow            004aedf0 f   Libs DBase:I4tag.obj
 0001:000ade90       _tfile4dskip               004aee90 f   Libs DBase:I4tag.obj
 0001:000adeb0       _tfile4outOfDate           004aeeb0 f   Libs DBase:I4tag.obj
 0001:000adf30       _i4readBlock               004aef30 f   Libs DBase:I4tag.obj
 0001:000ae120       _tfile4exprKey             004af120 f   Libs DBase:I4tag.obj
 0001:000ae140       _tfile4go                  004af140 f   Libs DBase:I4tag.obj
 0001:000ae160       _tfile4empty               004af160 f   Libs DBase:I4tag.obj
 0001:000ae190       _tfile4bottom              004af190 f   Libs DBase:I4tag.obj
 0001:000ae240       _tfile4block               004af240 f   Libs DBase:I4tag.obj
 0001:000ae250       _tfile4down                004af250 f   Libs DBase:I4tag.obj
 0001:000ae3f0       _tfile4eof                 004af3f0 f   Libs DBase:I4tag.obj
 0001:000ae420       _tfile4update              004af420 f   Libs DBase:I4tag.obj
 0001:000ae4d0       _tfile4freeAll             004af4d0 f   Libs DBase:I4tag.obj
 0001:000ae500       _tfile4freeSaved           004af500 f   Libs DBase:I4tag.obj
 0001:000ae560       _tfile4go2                 004af560 f   Libs DBase:I4tag.obj
 0001:000ae6a0       _tfile4keyData             004af6a0 f   Libs DBase:I4tag.obj
 0001:000ae6c0       _tfile4recNo               004af6c0 f   Libs DBase:I4tag.obj
 0001:000ae710       _tfile4seek                004af710 f   Libs DBase:I4tag.obj
 0001:000ae7b0       _tfile4skip                004af7b0 f   Libs DBase:I4tag.obj
 0001:000ae990       _tfile4split               004af990 f   Libs DBase:I4tag.obj
 0001:000aea60       _tfile4top                 004afa60 f   Libs DBase:I4tag.obj
 0001:000aeac0       _tfile4up                  004afac0 f   Libs DBase:I4tag.obj
 0001:000aeaf0       _tfile4upToRoot            004afaf0 f   Libs DBase:I4tag.obj
 0001:000aeb30       _tfile4goEof               004afb30 f   Libs DBase:I4tag.obj
 0001:000aeb60       _expr4context              004afb60 f   Libs DBase:E4expr.obj
 0001:000aebf0       _expr4start                004afbf0 f   Libs DBase:E4expr.obj
 0001:000aec30       _expr4double2              004afc30 f   Libs DBase:E4expr.obj
 0001:000aec60       _expr4double               004afc60 f   Libs DBase:E4expr.obj
 0001:000aed10       _expr4execute              004afd10 f   Libs DBase:E4expr.obj
 0001:000aee10       _expr4key                  004afe10 f   Libs DBase:E4expr.obj
 0001:000aee80       _expr4keyConvert           004afe80 f   Libs DBase:E4expr.obj
 0001:000af060       _expr4nullLow              004b0060 f   Libs DBase:E4expr.obj
 0001:000af070       _expr4keyLen               004b0070 f   Libs DBase:E4expr.obj
 0001:000af0f0       _expr4source               004b00f0 f   Libs DBase:E4expr.obj
 0001:000af110       _expr4str                  004b0110 f   Libs DBase:E4expr.obj
 0001:000af170       _expr4true                 004b0170 f   Libs DBase:E4expr.obj
 0001:000af1c0       _expr4vary                 004b01c0 f   Libs DBase:E4expr.obj
 0001:000af290       _index4lockTest            004b0290 f   Libs DBase:I4lock.obj
 0001:000af2b0       _index4lock                004b02b0 f   Libs DBase:I4lock.obj
 0001:000af420       _i4unlock                  004b0420 f   Libs DBase:I4lock.obj
 0001:000af440       _index4unlock              004b0440 f   Libs DBase:I4lock.obj
 0001:000af490       _file4open                 004b0490 f   Libs DBase:MDOF4open.obj
 0001:000af610       _file4openTest             004b0610 f   Libs DBase:MDOF4open.obj
 0001:000af620       _u4filelength              004b0620 f   Libs DBase:MDOF4file.obj
 0001:000af660       _file4changeSize           004b0660 f   Libs DBase:MDOF4file.obj
 0001:000af680       _file4len                  004b0680 f   Libs DBase:MDOF4file.obj
 0001:000af700       _file4lenSet               004b0700 f   Libs DBase:MDOF4file.obj
 0001:000af800       _file4readLow              004b0800 f   Libs DBase:MDOF4file.obj
 0001:000af850       _file4read                 004b0850 f   Libs DBase:MDOF4file.obj
 0001:000af8e0       _file4readAll              004b08e0 f   Libs DBase:MDOF4file.obj
 0001:000af9b0       _file4readError            004b09b0 f   Libs DBase:MDOF4file.obj
 0001:000afa20       _file4replace              004b0a20 f   Libs DBase:MDOF4file.obj
 0001:000afc50       _opt4fileFlush             004b0c50 f   Libs DBase:MDOF4flush.obj
 0001:000afd50       _file4flush                004b0d50 f   Libs DBase:MDOF4flush.obj
 0001:000afe10       _file4refresh              004b0e10 f   Libs DBase:MDOF4flush.obj
 0001:000afe60       _file4optimizeLow          004b0e60 f   Libs DBase:F4opt.obj
 0001:000b0050       _file4optimizeWrite        004b1050 f   Libs DBase:F4opt.obj
 0001:000b0100       _file4setWriteOpt          004b1100 f   Libs DBase:F4opt.obj
 0001:000b0130       _t4cmpDoub                 004b1130 f   Libs DBase:I4init.obj
 0001:000b0170       _t4descCmpDoub             004b1170 f   Libs DBase:I4init.obj
 0001:000b0190       _t4descBcdCmp              004b1190 f   Libs DBase:I4init.obj
 0001:000b01b0       _t4descMemcmp              004b11b0 f   Libs DBase:I4init.obj
 0001:000b01d0       _t4strToDateMdx            004b11d0 f   Libs DBase:I4init.obj
 0001:000b0200       _t4noChangeDouble          004b1200 f   Libs DBase:I4init.obj
 0001:000b0220       _t4noChangeStr             004b1220 f   Libs DBase:I4init.obj
 0001:000b0240       _tfile4init                004b1240 f   Libs DBase:I4init.obj
 0001:000b04a0       _tfile4initSeekConv        004b14a0 f   Libs DBase:I4init.obj
 0001:000b0580       _d4freeBlocks              004b1580 f   Libs DBase:D4index.obj
 0001:000b05e0       _d4index                   004b15e0 f   Libs DBase:D4index.obj
 0001:000b08f0       _dfile4index               004b18f0 f   Libs DBase:D4index.obj
 0001:000b09a0       _d4reindex                 004b19a0 f   Libs DBase:D4index.obj
 0001:000b0a40       _file4writeLow             004b1a40 f   Libs DBase:MDOF4write.obj
 0001:000b0b20       _file4writeOpt             004b1b20 f   Libs DBase:MDOF4write.obj
 0001:000b0bd0       _file4write                004b1bd0 f   Libs DBase:MDOF4write.obj
 0001:000b0c90       _d4unlock                  004b1c90 f   Libs DBase:D4unlock.obj
 0001:000b0e30       _d4unlockAppend            004b1e30 f   Libs DBase:D4unlock.obj
 0001:000b0e70       _d4unlockData              004b1e70 f   Libs DBase:D4unlock.obj
 0001:000b0ed0       _d4unlockFile              004b1ed0 f   Libs DBase:D4unlock.obj
 0001:000b0f20       _d4unlockRecord            004b1f20 f   Libs DBase:D4unlock.obj
 0001:000b0f80       _d4unlockRecords           004b1f80 f   Libs DBase:D4unlock.obj
 0001:000b0fd0       _code4unlockDo             004b1fd0 f   Libs DBase:D4unlock.obj
 0001:000b1030       _code4unlock               004b2030 f   Libs DBase:D4unlock.obj
 0001:000b1080       _d4lock                    004b2080 f   Libs DBase:D4lock.obj
 0001:000b1140       _d4lockAddAppend           004b2140 f   Libs DBase:D4lock.obj
 0001:000b11f0       _d4lockAddAll              004b21f0 f   Libs DBase:D4lock.obj
 0001:000b12a0       _d4lockAddFile             004b22a0 f   Libs DBase:D4lock.obj
 0001:000b1350       _d4lockAdd                 004b2350 f   Libs DBase:D4lock.obj
 0001:000b1430       _d4lockAll                 004b2430 f   Libs DBase:D4lock.obj
 0001:000b14d0       _d4lockAppend              004b24d0 f   Libs DBase:D4lock.obj
 0001:000b1580       _d4lockFile                004b2580 f   Libs DBase:D4lock.obj
 0001:000b1610       _d4lockTest                004b2610 f   Libs DBase:D4lock.obj
 0001:000b1650       _dfile4lock                004b2650 f   Libs DBase:Df4lock.obj
 0001:000b17f0       _dfile4lockMemo            004b27f0 f   Libs DBase:Df4lock.obj
 0001:000b1810       _dfile4lockAppend          004b2810 f   Libs DBase:Df4lock.obj
 0001:000b18e0       _dfile4lockFile            004b28e0 f   Libs DBase:Df4lock.obj
 0001:000b19f0       _dfile4lockIndex           004b29f0 f   Libs DBase:Df4lock.obj
 0001:000b1af0       _dfile4lockAll             004b2af0 f   Libs DBase:Df4lock.obj
 0001:000b1b90       _dfile4lockTest            004b2b90 f   Libs DBase:Df4lock.obj
 0001:000b1cb0       _dfile4lockTestIndex       004b2cb0 f   Libs DBase:Df4lock.obj
 0001:000b1d00       _dfile4lockTestAppend      004b2d00 f   Libs DBase:Df4lock.obj
 0001:000b1d80       _dfile4lockTestFile        004b2d80 f   Libs DBase:Df4lock.obj
 0001:000b1e20       _memo4fileLock             004b2e20 f   Libs DBase:M4file.obj
 0001:000b1e80       _memo4fileUnlock           004b2e80 f   Libs DBase:M4file.obj
 0001:000b1eb0       _memo4fileOpen             004b2eb0 f   Libs DBase:M4file.obj
 0001:000b1f30       _memo4fileRead             004b2f30 f   Libs DBase:M4file.obj
 0001:000b2040       _memo4fileWrite            004b3040 f   Libs DBase:M4file.obj
 0001:000b2330       _tfile4key                 004b3330 f   Libs DBase:I4key.obj
 0001:000b2390       _d4go                      004b3390 f   Libs DBase:D4go.obj
 0001:000b2530       _dfile4goData              004b3530 f   Libs DBase:D4go.obj
 0001:000b2630       _d4goData                  004b3630 f   Libs DBase:D4go.obj
 0001:000b2670       _d4goEof                   004b3670 f   Libs DBase:D4go.obj
 0001:000b26f0       _d4bottom                  004b36f0 f   Libs DBase:D4bottom.obj
 0001:000b2890       _dfile4memoUnlock          004b3890 f   Libs DBase:Df4unlok.obj
 0001:000b28c0       _dfile4unlockAppend        004b38c0 f   Libs DBase:Df4unlok.obj
 0001:000b2970       _dfile4unlockFile          004b3970 f   Libs DBase:Df4unlok.obj
 0001:000b2a20       _dfile4unlockIndex         004b3a20 f   Libs DBase:Df4unlok.obj
 0001:000b2a90       _dfile4unlockRecord        004b3a90 f   Libs DBase:Df4unlok.obj
 0001:000b2b50       _dfile4unlockRecords       004b3b50 f   Libs DBase:Df4unlok.obj
 0001:000b2c00       _dfile4unlockData          004b3c00 f   Libs DBase:Df4unlok.obj
 0001:000b2c50       _tfile4remove              004b3c50 f   Libs DBase:I4remove.obj
 0001:000b2c90       _tfile4removeCalc          004b3c90 f   Libs DBase:I4remove.obj
 0001:000b2cd0       _tfile4removeCurrent       004b3cd0 f   Libs DBase:I4remove.obj
 0001:000b2fc0       _tfile4add                 004b3fc0 f   Libs DBase:I4addtag.obj
 0001:000b3260       _t4addCalc                 004b4260 f   Libs DBase:I4addtag.obj
 0001:000b3370       _d4memoCompress            004b4370 f   Libs DBase:M4memo.obj
 0001:000b3420       _dfile4memoCompress        004b4420 f   Libs DBase:M4memo.obj
 0001:000b3750       _memo4fileChainFlush       004b4750 f   Libs DBase:M4memo.obj
 0001:000b3780       _memo4fileChainSkip        004b4780 f   Libs DBase:M4memo.obj
 0001:000b3800       _d4validateMemoIds         004b4800 f   Libs DBase:M4memo.obj
 0001:000b38e0       _tfile4type                004b48e0 f   Libs DBase:I4ntag.obj
 0001:000b38f0       _f4assignPtr               004b48f0 f   Libs DBase:F4field.obj
 0001:000b3930       _f4blank                   004b4930 f   Libs DBase:F4field.obj
 0001:000b39c0       _f4data                    004b49c0 f   Libs DBase:F4field.obj
 0001:000b39f0       _f4decimals                004b49f0 f   Libs DBase:F4field.obj
 0001:000b3a20       _f4len                     004b4a20 f   Libs DBase:F4field.obj
 0001:000b3a50       _f4name                    004b4a50 f   Libs DBase:F4field.obj
 0001:000b3a70       _f4number                  004b4a70 f   Libs DBase:F4field.obj
 0001:000b3ab0       _f4type                    004b4ab0 f   Libs DBase:F4field.obj
 0001:000b3ae0       _f4ptr                     004b4ae0 f   Libs DBase:F4ptr.obj
 0001:000b3b10       _d4writeLow                004b4b10 f   Libs DBase:D4write.obj
 0001:000b4260       _d4writeData               004b5260 f   Libs DBase:D4write.obj
 0001:000b42e0       _dfile4writeData           004b52e0 f   Libs DBase:D4write.obj
 0001:000b4330       _t4keyFind                 004b5330 f   Libs DBase:D4write.obj
 0001:000b4390       _d4writeKeys               004b5390 f   Libs DBase:D4write.obj
 0001:000b4e50       _file4create               004b5e50 f   Libs DBase:MDOF4create.obj
 0001:000b5010       _error4text                004b6010 f   Libs DBase:E4string.obj
 0001:000b50a0       _error4number2             004b60a0 f   Libs DBase:E4string.obj
 0001:000b5110       _error4seek                004b6110 f   Libs DBase:E4string.obj
 0001:000b51e0       _opt4blockClear            004b61e0 f   Libs DBase:O4opt.obj
 0001:000b5200       _opt4blockRemove           004b6200 f   Libs DBase:O4opt.obj
 0001:000b53e0       _opt4fileDelete            004b63e0 f   Libs DBase:O4opt.obj
 0001:000b55b0       _opt4flushAll              004b65b0 f   Libs DBase:O4opt.obj
 0001:000b56b0       _opt4fileFlushList         004b66b0 f   Libs DBase:O4opt.obj
 0001:000b5780       _opt4flushWriteBuffer      004b6780 f   Libs DBase:O4opt.obj
 0001:000b57e0       _opt4fileWrite             004b67e0 f   Libs DBase:O4opt.obj
 0001:000b5f50       _opt4fileRead              004b6f50 f   Libs DBase:O4opt.obj
 0001:000b61e0       _opt4blockLruTop           004b71e0 f   Libs DBase:O4opt.obj
 0001:000b6530       _opt4fileReturnBlock       004b7530 f   Libs DBase:O4opt.obj
 0001:000b65b0       _dfile4registerLocked      004b75b0 f   Libs DBase:MDOF4lock.obj
 0001:000b6650       _code4lockNetworkId        004b7650 f   Libs DBase:MDOF4lock.obj
 0001:000b6680       _code4lockUserId           004b7680 f   Libs DBase:MDOF4lock.obj
 0001:000b66b0       _code4lockFileName         004b76b0 f   Libs DBase:MDOF4lock.obj
 0001:000b66e0       _code4lockItem             004b76e0 f   Libs DBase:MDOF4lock.obj
 0001:000b6710       _file4lock                 004b7710 f   Libs DBase:MDOF4lock.obj
 0001:000b6820       _file4unlock               004b7820 f   Libs DBase:MDOF4lock.obj
 0001:000b68a0       _lock4lock                 004b78a0 f   Libs DBase:D4extra.obj
 0001:000b6960       _lock4unlock               004b7960 f   Libs DBase:D4extra.obj
 0001:000b6aa0       _x4reverseShort            004b7aa0 f   Libs DBase:B4block.obj
 0001:000b6ac0       _x4reverseLong             004b7ac0 f   Libs DBase:B4block.obj
 0001:000b6af0       _b4calcBlanks              004b7af0 f   Libs DBase:B4block.obj
 0001:000b6b20       _b4alloc                   004b7b20 f   Libs DBase:B4block.obj
 0001:000b6b70       _b4free                    004b7b70 f   Libs DBase:B4block.obj
 0001:000b6b90       _b4flush                   004b7b90 f   Libs DBase:B4block.obj
 0001:000b6bf0       _b4insert                  004b7bf0 f   Libs DBase:B4block.obj
 0001:000b6c70       _b4dataLeaf                004b7c70 f   Libs DBase:B4block.obj
 0001:000b6ca0       _b4remove                  004b7ca0 f   Libs DBase:B4block.obj
 0001:000b6d30       _b4seek                    004b7d30 f   Libs DBase:B4block.obj
 0001:000b6dc0       _b4skip                    004b7dc0 f   Libs DBase:B4block.obj
 0001:000b6e40       _c4bcdCmp                  004b7e40 f   Libs DBase:C4bcd.obj
 0001:000b6ee0       _c4bcdFromA                004b7ee0 f   Libs DBase:C4bcd.obj
 0001:000b7020       _c4bcdFromD                004b8020 f   Libs DBase:C4bcd.obj
 0001:000b7140       _e4addConstant             004b8140 f   Libs DBase:E4parse.obj
 0001:000b7180       _e4functionAdd             004b8180 f   Libs DBase:E4parse.obj
 0001:000b7220       _expr4parseLow             004b8220 f   Libs DBase:E4parse.obj
 0001:000b7e30       _e4getOperator             004b8e30 f   Libs DBase:E4parse.obj
 0001:000b7ed0       _e4lookup                  004b8ed0 f   Libs DBase:E4parse.obj
 0001:000b7f70       _expr4parseExpr            004b8f70 f   Libs DBase:E4parse.obj
 0001:000b8110       _expr4parseFunction        004b9110 f   Libs DBase:E4parse.obj
 0001:000b8650       _expr4parseValue           004b9650 f   Libs DBase:E4parse.obj
 0001:000b8dd0       _s4stackPop                004b9dd0 f   Libs DBase:E4parse.obj
 0001:000b8df0       _s4stackCur                004b9df0 f   Libs DBase:E4parse.obj
 0001:000b8e10       _s4stackPushInt            004b9e10 f   Libs DBase:E4parse.obj
 0001:000b8e30       _s4stackPushStr            004b9e30 f   Libs DBase:E4parse.obj
 0001:000b8f10       _s4scanChar                004b9f10 f   Libs DBase:E4parse.obj
 0001:000b8f30       _s4scanInit                004b9f30 f   Libs DBase:E4parse.obj
 0001:000b8f60       _s4scanRange               004b9f60 f   Libs DBase:E4parse.obj
 0001:000b8fa0       _s4scanSearch              004b9fa0 f   Libs DBase:E4parse.obj
 0001:000b8fe0       _file4seqRead              004b9fe0 f   Libs DBase:F4filese.obj
 0001:000b9130       _file4seqReadAll           004ba130 f   Libs DBase:F4filese.obj
 0001:000b91b0       _file4seqReadInitDo        004ba1b0 f   Libs DBase:F4filese.obj
 0001:000b9250       _file4seqWriteFlush        004ba250 f   Libs DBase:F4filese.obj
 0001:000b9330       _file4seqWrite             004ba330 f   Libs DBase:F4filese.obj
 0001:000b9440       _file4seqWriteInit         004ba440 f   Libs DBase:F4filese.obj
 0001:000b94f0       _file4seqWriteRepeat       004ba4f0 f   Libs DBase:F4filese.obj
 0001:000b95a0       _i4deleteRemoveKeys        004ba5a0 f   Libs DBase:R4reinde.obj
 0001:000b95f0       _i4reindex                 004ba5f0 f   Libs DBase:R4reinde.obj
 0001:000b97b0       _r4reindexInit             004ba7b0 f   Libs DBase:R4reinde.obj
 0001:000b9860       _r4reindexFree             004ba860 f   Libs DBase:R4reinde.obj
 0001:000b98a0       _r4reindexBlocksAlloc      004ba8a0 f   Libs DBase:R4reinde.obj
 0001:000b9920       _r4reindexSupplyKeys       004ba920 f   Libs DBase:R4reinde.obj
 0001:000b9af0       _r4reindexTagHeadersCalc   004baaf0 f   Libs DBase:R4reinde.obj
 0001:000b9c60       _r4reindexFindITag         004bac60 f   Libs DBase:R4reinde.obj
 0001:000b9ca0       _r4reindexTagHeadersWrite  004baca0 f   Libs DBase:R4reinde.obj
 0001:000ba130       _r4reindexWriteKeys        004bb130 f   Libs DBase:R4reinde.obj
 0001:000ba310       _r4reindexAdd              004bb310 f   Libs DBase:R4reinde.obj
 0001:000ba390       _r4reindexFinish           004bb390 f   Libs DBase:R4reinde.obj
 0001:000ba420       _r4reindexTodisk           004bb420 f   Libs DBase:R4reinde.obj
 0001:000ba4f0       _file4tempLow              004bb4f0 f   Libs DBase:F4temp.obj
 0001:000ba800       _memo4fileCreate           004bb800 f   Libs DBase:M4create.obj
 0001:000baa50       _memo4fileDump             004bba50 f   Libs DBase:M4create.obj
 0001:000bab00       _expr4functions            004bbb00 f   Libs DBase:E4functi.obj
 0001:000bab10       _e4add                     004bbb10 f   Libs DBase:E4functi.obj
 0001:000bab50       _e4addDate                 004bbb50 f   Libs DBase:E4functi.obj
 0001:000babb0       _e4and                     004bbbb0 f   Libs DBase:E4functi.obj
 0001:000bac20       _e4concatSpecial           004bbc20 f   Libs DBase:E4functi.obj
 0001:000bacc0       _e4concatTrim              004bbcc0 f   Libs DBase:E4functi.obj
 0001:000bacd0       _e4concatTwo               004bbcd0 f   Libs DBase:E4functi.obj
 0001:000bace0       _e4contain                 004bbce0 f   Libs DBase:E4functi.obj
 0001:000bada0       _e4copyConstant            004bbda0 f   Libs DBase:E4functi.obj
 0001:000badf0       _e4fieldCopy               004bbdf0 f   Libs DBase:E4functi.obj
 0001:000bae40       _e4copyParm                004bbe40 f   Libs DBase:E4functi.obj
 0001:000bae80       _e4ctod                    004bbe80 f   Libs DBase:E4functi.obj
 0001:000baef0       _e4date                    004bbef0 f   Libs DBase:E4functi.obj
 0001:000baf50       _e4day                     004bbf50 f   Libs DBase:E4functi.obj
 0001:000bafa0       _e4dayDoub                 004bbfa0 f   Libs DBase:E4functi.obj
 0001:000bb000       _e4del                     004bc000 f   Libs DBase:E4functi.obj
 0001:000bb040       _e4deleted                 004bc040 f   Libs DBase:E4functi.obj
 0001:000bb090       _e4divide                  004bc090 f   Libs DBase:E4functi.obj
 0001:000bb0f0       _e4dtoc                    004bc0f0 f   Libs DBase:E4functi.obj
 0001:000bb160       _e4dtocDoub                004bc160 f   Libs DBase:E4functi.obj
 0001:000bb170       _e4chr                     004bc170 f   Libs DBase:E4functi.obj
 0001:000bb190       _e4dtosDoub                004bc190 f   Libs DBase:E4functi.obj
 0001:000bb1e0       _e4equal                   004bc1e0 f   Libs DBase:E4functi.obj
 0001:000bb230       _e4false                   004bc230 f   Libs DBase:E4functi.obj
 0001:000bb260       _e4fieldDateD              004bc260 f   Libs DBase:E4functi.obj
 0001:000bb2d0       _e4fieldLog                004bc2d0 f   Libs DBase:E4functi.obj
 0001:000bb330       _e4fieldMemo               004bc330 f   Libs DBase:E4functi.obj
 0001:000bb3e0       _e4fieldIntD               004bc3e0 f   Libs DBase:E4functi.obj
 0001:000bb440       _e4fieldNumD               004bc440 f   Libs DBase:E4functi.obj
 0001:000bb4a0       _e4greater                 004bc4a0 f   Libs DBase:E4functi.obj
 0001:000bb520       _e4greaterDoub             004bc520 f   Libs DBase:E4functi.obj
 0001:000bb540       _e4greaterEq               004bc540 f   Libs DBase:E4functi.obj
 0001:000bb560       _e4greaterEqDoub           004bc560 f   Libs DBase:E4functi.obj
 0001:000bb5c0       _e4iif                     004bc5c0 f   Libs DBase:E4functi.obj
 0001:000bb620       _e4less                    004bc620 f   Libs DBase:E4functi.obj
 0001:000bb6a0       _e4lessDoub                004bc6a0 f   Libs DBase:E4functi.obj
 0001:000bb6c0       _e4lessEq                  004bc6c0 f   Libs DBase:E4functi.obj
 0001:000bb6e0       _e4lessEqDoub              004bc6e0 f   Libs DBase:E4functi.obj
 0001:000bb740       _e4ltrim                   004bc740 f   Libs DBase:E4functi.obj
 0001:000bb7c0       _e4alltrim                 004bc7c0 f   Libs DBase:E4functi.obj
 0001:000bb7d0       _e4month                   004bc7d0 f   Libs DBase:E4functi.obj
 0001:000bb810       _e4monthDoub               004bc810 f   Libs DBase:E4functi.obj
 0001:000bb870       _e4multiply                004bc870 f   Libs DBase:E4functi.obj
 0001:000bb8b0       _e4nop                     004bc8b0 f   Libs DBase:E4functi.obj
 0001:000bb8c0       _e4not                     004bc8c0 f   Libs DBase:E4functi.obj
 0001:000bb8e0       _e4notEqual                004bc8e0 f   Libs DBase:E4functi.obj
 0001:000bb930       _e4or                      004bc930 f   Libs DBase:E4functi.obj
 0001:000bb9a0       _e4fieldAdd                004bc9a0 f   Libs DBase:E4functi.obj
 0001:000bb9d0       _e4parmRemove              004bc9d0 f   Libs DBase:E4functi.obj
 0001:000bb9e0       _e4power                   004bc9e0 f   Libs DBase:E4functi.obj
 0001:000bba20       _e4recCount                004bca20 f   Libs DBase:E4functi.obj
 0001:000bba80       _e4recno                   004bca80 f   Libs DBase:E4functi.obj
 0001:000bbae0       _e4stod                    004bcae0 f   Libs DBase:E4functi.obj
 0001:000bbb20       _e4str                     004bcb20 f   Libs DBase:E4functi.obj
 0001:000bbb60       _e4sub                     004bcb60 f   Libs DBase:E4functi.obj
 0001:000bbba0       _e4subDate                 004bcba0 f   Libs DBase:E4functi.obj
 0001:000bbc20       _e4substr                  004bcc20 f   Libs DBase:E4functi.obj
 0001:000bbc50       _e4time                    004bcc50 f   Libs DBase:E4functi.obj
 0001:000bbc80       _e4trim                    004bcc80 f   Libs DBase:E4functi.obj
 0001:000bbca0       _expr4trueFunction         004bcca0 f   Libs DBase:E4functi.obj
 0001:000bbcd0       _e4upper                   004bccd0 f   Libs DBase:E4functi.obj
 0001:000bbd00       _e4val                     004bcd00 f   Libs DBase:E4functi.obj
 0001:000bbd50       _e4year                    004bcd50 f   Libs DBase:E4functi.obj
 0001:000bbda0       _e4yearDoub                004bcda0 f   Libs DBase:E4functi.obj
 0001:000bbe00       _e4ascend                  004bce00 f   Libs DBase:E4functi.obj
 0001:000bbea0       _e4descend                 004bcea0 f   Libs DBase:E4functi.obj
 0001:000bbed0       _e4calcFunction            004bced0 f   Libs DBase:E4functi.obj
 0001:000bbf30       _e4pageno                  004bcf30 f   Libs DBase:E4functi.obj
 0001:000bbf90       _e4calcTotal               004bcf90 f   Libs DBase:E4functi.obj
 0001:000bbfe0       _total4value               004bcfe0 f   Libs DBase:E4functi.obj
 0001:000bc040       _expr4calcMassage          004bd040 f   Libs DBase:E4calc.obj
 0001:000bc090       _code4calcCreate           004bd090 f   Libs DBase:E4calc.obj
 0001:000bc120       _expr4calcLookup           004bd120 f   Libs DBase:E4calc.obj
 0001:000bc1d0       _expr4calcResultPos        004bd1d0 f   Libs DBase:E4calc.obj
 0001:000bc210       _expr4calcNameChange       004bd210 f   Libs DBase:E4calc.obj
 0001:000bc4c0       _s4deleteSpoolEntry        004bd4c0 f   Libs DBase:S4sort.obj
 0001:000bc4f0       _s4flush                   004bd4f0 f   Libs DBase:S4sort.obj
 0001:000bc5d0       _sort4free                 004bd5d0 f   Libs DBase:S4sort.obj
 0001:000bc680       _sort4get                  004bd680 f   Libs DBase:S4sort.obj
 0001:000bc700       _sort4getPtrPtr            004bd700 f   Libs DBase:S4sort.obj
 0001:000bc7a0       _sort4put                  004bd7a0 f   Libs DBase:S4sort.obj
 0001:000bc940       _sort4getMemInit           004bd940 f   Libs DBase:S4init.obj
 0001:000bc980       _sort4getInit              004bd980 f   Libs DBase:S4init.obj
 0001:000bca00       _sort4spoolsInit           004bda00 f   Libs DBase:S4init.obj
 0001:000bccc0       _sort4init                 004bdcc0 f   Libs DBase:S4init.obj
 0001:000bcd40       _sort4initSet              004bdd40 f   Libs DBase:S4init.obj
 0001:000bcdc0       _sort4initAlloc            004bddc0 f   Libs DBase:S4init.obj
 0001:000bce80       _sort4initPointers         004bde80 f   Libs DBase:S4init.obj
 0001:000bcee0       _s4quick                   004bdee0 f   Libs DBase:S4quick.obj
 0001:000bd290       _s4nextSpoolEntry          004be290 f   Libs DBase:S4next.obj
 0001:000bd490       ??0CItem@@QAE@PADHPAV0@1PAVCPage@@@Z 004be490 f   libs page:Page.obj
 0001:000bd590       ??1CItem@@QAE@XZ           004be590 f   libs page:Page.obj
 0001:000bd5e0       ?SetX@CItem@@QAEXH@Z       004be5e0 f   libs page:Page.obj
 0001:000bd630       ?SetY@CItem@@QAEXH@Z       004be630 f   libs page:Page.obj
 0001:000bd680       ?SetL@CItem@@QAEXH@Z       004be680 f   libs page:Page.obj
 0001:000bd6c0       ?SetH@CItem@@QAEXH@Z       004be6c0 f   libs page:Page.obj
 0001:000bd700       ?SetPlan@CItem@@QAEXH@Z    004be700 f   libs page:Page.obj
 0001:000bd720       ?GetParent@CItem@@QAEPAV1@XZ 004be720 f   libs page:Page.obj
 0001:000bd740       ?Copy@CItem@@QAEXPAV1@@Z   004be740 f   libs page:Page.obj
 0001:000bd840       ?GetResourceString@CItem@@QAEPADPAD@Z 004be840 f   libs page:Page.obj
 0001:000bd8c0       ?GetResourceString@CItem@@QAEHPADPAPAD@Z 004be8c0 f   libs page:Page.obj
 0001:000bd950       ?GetResourceStringByIndex@CItem@@QAEPADH@Z 004be950 f   libs page:Page.obj
 0001:000bda20       ?GetResourceInt@CItem@@QAEHPAD@Z 004bea20 f   libs page:Page.obj
 0001:000bdaa0       ?GetResourceInt@CItem@@QAEHPADPAH@Z 004beaa0 f   libs page:Page.obj
 0001:000bdb30       ?GetResourceIntByIndex@CItem@@QAEHH@Z 004beb30 f   libs page:Page.obj
 0001:000bdb90       ?SetResourceString@CItem@@QAEXPAD0@Z 004beb90 f   libs page:Page.obj
 0001:000bdc20       ?SetResourceString@CItem@@QAEXHPAD@Z 004bec20 f   libs page:Page.obj
 0001:000bdd80       ?SetResourceInt@CItem@@QAEXHH@Z 004bed80 f   libs page:Page.obj
 0001:000bdde0       ?SetResourceInt@CItem@@QAEXPADH@Z 004bede0 f   libs page:Page.obj
 0001:000bde70       ?SetName@CItem@@QAEXPAD@Z  004bee70 f   libs page:Page.obj
 0001:000bdec0       ?Save@CItem@@QAEHF@Z       004beec0 f   libs page:Page.obj
 0001:000be310       ?SetSheet@CItem@@QAEXH@Z   004bf310 f   libs page:Page.obj
 0001:000be3b0       ?GetNameSheet@CItem@@QAEPADXZ 004bf3b0 f   libs page:Page.obj
 0001:000be3d0       ?SetSubType@CItem@@QAEXPAD0H@Z 004bf3d0 f   libs page:Page.obj
 0001:000be430       ?GetSubType@CItem@@QAEPADPADH@Z 004bf430 f   libs page:Page.obj
 0001:000be480       ?Draw@CItem@@QAEXPAVCView@@@Z 004bf480 f   libs page:Page.obj
 0001:000be5d0       ?GetAscent@CItem@@QAEHXZ   004bf5d0 f   libs page:Page.obj
 0001:000be6a0       ?SetYForRiched@CItem@@QAEXH@Z 004bf6a0 f   libs page:Page.obj
 0001:000be6b0       ?GetInfo@CItem@@QAEXPAD@Z  004bf6b0 f   libs page:Page.obj
 0001:000be700       ?Resize@CItem@@QAEXPAVCView@@@Z 004bf700 f   libs page:Page.obj
 0001:000be880       ??0CPage@@QAE@D@Z          004bf880 f   libs page:Page.obj
 0001:000be9c0       ??0CPage@@QAE@HHPAD0D@Z    004bf9c0 f   libs page:Page.obj
 0001:000beb00       ??1CPage@@QAE@XZ           004bfb00 f   libs page:Page.obj
 0001:000beb80       ?SetName@CPage@@QAEXPAD@Z  004bfb80 f   libs page:Page.obj
 0001:000bebd0       ?SetNameFileSubType@CPage@@QAEXPAD@Z 004bfbd0 f   libs page:Page.obj
 0001:000bec20       ?SetNameFileBtn@CPage@@QAEXPAD@Z 004bfc20 f   libs page:Page.obj
 0001:000bec70       ?GetNewName@CPage@@QAEXPAD@Z 004bfc70 f   libs page:Page.obj
 0001:000beca0       ?LoadBts@CPage@@AAEXPAD0@Z 004bfca0 f   libs page:Page.obj
 0001:000bed70       ?InsertItem@CPage@@QAEPAVCItem@@PAV2@PADH@Z 004bfd70 f   libs page:Page.obj
 0001:000bee60       ?InsertItem@CPage@@QAEXPAVCItem@@0PAVCView@@@Z 004bfe60 f   libs page:Page.obj
 0001:000beed0       ?DeleteItem@CPage@@QAEXPAVCItem@@@Z 004bfed0 f   libs page:Page.obj
 0001:000bef30       ?Save@CPage@@QAEHPAD@Z     004bff30 f   libs page:Page.obj
 0001:000bf130       ?Load@CPage@@QAEHPAD@Z     004c0130 f   libs page:Page.obj
 0001:000bf900       ?GetNextLine@CPage@@IAEPADXZ 004c0900 f   libs page:Page.obj
 0001:000bf950       ?GetItemByName@CPage@@QAEPAVCItem@@PAD@Z 004c0950 f   libs page:Page.obj
 0001:000bf990       ?GetNextItem@CPage@@QAEPAVCItem@@XZ 004c0990 f   libs page:Page.obj
 0001:000bf9b0       ?GetNextItem@CPage@@QAEPAVCItem@@PAV2@@Z 004c09b0 f   libs page:Page.obj
 0001:000bf9d0       ?SetPathSubType@CPage@@QAEXPAD@Z 004c09d0 f   libs page:Page.obj
 0001:000bf9f0       ?SetPathBtn@CPage@@QAEXPAD@Z 004c09f0 f   libs page:Page.obj
 0001:000bfa00       ?GetParent@CPage@@QAEPAVCItem@@PAV2@@Z 004c0a00 f   libs page:Page.obj
 0001:000bfa50       ?WhatPosition@CPage@@QAEHPAVCItem@@0@Z 004c0a50 f   libs page:Page.obj
 0001:000bfaf0       ?GetMarge@CPage@@QAEPAUSMarge@@PAD@Z 004c0af0 f   libs page:Page.obj
 0001:000bfc40       ?ResizeAll@CPage@@QAEXPAVCView@@@Z 004c0c40 f   libs page:Page.obj
 0001:000bfc70       ??0CRiched@@QAE@PADPAUSRect@@H0HPAVCPage@@@Z 004c0c70 f   libs page:Riched.obj
 0001:000bfd80       ??1CRiched@@QAE@XZ         004c0d80 f   libs page:Riched.obj
 0001:000bfdb0       ?Init@CRiched@@QAEHPAVCView@@@Z 004c0db0 f   libs page:Riched.obj
 0001:000c0020       ?GetCurrentFont@CRiched@@QAEPADXZ 004c1020 f   libs page:Riched.obj
 0001:000c0040       ?GetCurrentColor@CRiched@@QAEHXZ 004c1040 f   libs page:Riched.obj
 0001:000c0060       ?GetLineCursor@CRiched@@QAEPAVCLine@@XZ 004c1060 f   libs page:Riched.obj
 0001:000c0090       ?Draw@CRiched@@QAEXPAVCView@@H@Z 004c1090 f   libs page:Riched.obj
 0001:000c0280       ?GetAttrib@CRiched@@QAEXPAD@Z 004c1280 f   libs page:Riched.obj
 0001:000c02e0       ?SetCursorPosition@CRiched@@QAEHPAVCView@@HHH@Z 004c12e0 f   libs page:Riched.obj
 0001:000c03f0       ?CursorEndLine@CRiched@@QAEXH@Z 004c13f0 f   libs page:Riched.obj
 0001:000c0440       ?CursorStartLine@CRiched@@QAEXH@Z 004c1440 f   libs page:Riched.obj
 0001:000c0490       ?CursorRight@CRiched@@QAEXH@Z 004c1490 f   libs page:Riched.obj
 0001:000c04e0       ?CursorLeft@CRiched@@QAEXH@Z 004c14e0 f   libs page:Riched.obj
 0001:000c0540       ?CursorDown@CRiched@@QAEHPAVCView@@H@Z 004c1540 f   libs page:Riched.obj
 0001:000c0570       ?CursorUp@CRiched@@QAEHPAVCView@@H@Z 004c1570 f   libs page:Riched.obj
 0001:000c05a0       ?InsertChar@CRiched@@QAEXPAVCView@@D@Z 004c15a0 f   libs page:Riched.obj
 0001:000c0800       ?InsertWord@CRiched@@QAEXPAVCView@@PAD@Z 004c1800 f   libs page:Riched.obj
 0001:000c0880       ?Supprimer@CRiched@@QAEXPAVCView@@@Z 004c1880 f   libs page:Riched.obj
 0001:000c08d0       ?DeleteSelection@CRiched@@QAEHPAVCView@@@Z 004c18d0 f   libs page:Riched.obj
 0001:000c0a10       ?PrevCar@CRiched@@QAEHXZ   004c1a10 f   libs page:Riched.obj
 0001:000c0a60       ?NextCar@CRiched@@QAEHXZ   004c1a60 f   libs page:Riched.obj
 0001:000c0aa0       ?WhatCar@CRiched@@QAEHXZ   004c1aa0 f   libs page:Riched.obj
 0001:000c0ae0       ?ChangeAttribut@CRiched@@QAEHPAVCView@@DPAD@Z 004c1ae0 f   libs page:Riched.obj
 0001:000c0c20       ?ChangeAttributOnSelection@CRiched@@QAEHPAVCView@@DPAD@Z 004c1c20 f   libs page:Riched.obj
 0001:000c0f00       ?SetDefault@CRiched@@QAEHPAVCView@@HPADH@Z 004c1f00 f   libs page:Riched.obj
 0001:000c0fe0       ?Clean@CRiched@@QAEXXZ     004c1fe0 f   libs page:Riched.obj
 0001:000c1330       ?Txt@CRiched@@QAEXPAD@Z    004c2330 f   libs page:Riched.obj
 0001:000c1740       ??0CPhrase@@QAE@PAD0HHPAVCRiched@@@Z 004c2740 f   libs page:Riched.obj
 0001:000c17d0       ??1CPhrase@@QAE@XZ         004c27d0 f   libs page:Riched.obj
 0001:000c17f0       ?AddWord@CPhrase@@QAEHXZ   004c27f0 f   libs page:Riched.obj
 0001:000c1810       ?AddWordNull@CPhrase@@QAEHXZ 004c2810 f   libs page:Riched.obj
 0001:000c1ab0       ?CalcLargeur@CPhrase@@QAEHPAVCView@@@Z 004c2ab0 f   libs page:Riched.obj
 0001:000c1c00       ?GetLargeurAll@CPhrase@@QAEHPAVCView@@@Z 004c2c00 f   libs page:Riched.obj
 0001:000c1c40       ?GetMustHauteur@CPhrase@@QAEHXZ 004c2c40 f   libs page:Riched.obj
 0001:000c1c90       ?GetMustAscent@CPhrase@@QAEHXZ 004c2c90 f   libs page:Riched.obj
 0001:000c1cc0       ?IsCursor@CPhrase@@QAEHXZ  004c2cc0 f   libs page:Riched.obj
 0001:000c1ce0       ?DelWord@CPhrase@@QAEHH@Z  004c2ce0 f   libs page:Riched.obj
 0001:000c1e00       ?GetSelection@CRiched@@QAEPADPAH@Z 004c2e00 f   libs page:Riched.obj
 0001:000c1e40       ?GetEnd@CPhrase@@QAEPADXZ  004c2e40 f   libs page:Riched.obj
 0001:000c1e90       ?Draw@CPhrase@@QAEXPAVCView@@HHHH@Z 004c2e90 f   libs page:Riched.obj
 0001:000c2270       ?UnDraw@CPhrase@@QAEXXZ    004c3270 f   libs page:Riched.obj
 0001:000c22c0       ?GetAttrib@CPhrase@@QAEHPAD@Z 004c32c0 f   libs page:Riched.obj
 0001:000c2340       ?SetCursorPosition@CPhrase@@QAEPADPAVCView@@HH@Z 004c3340 f   libs page:Riched.obj
 0001:000c2400       ??0CLine@@QAE@XZ           004c3400 f   libs page:Riched.obj
 0001:000c2410       ??1CLine@@QAE@XZ           004c3410 f   libs page:Riched.obj
 0001:000c2450       ?AddNew@CLine@@QAEPAV1@XZ  004c3450 f   libs page:Riched.obj
 0001:000c2480       ?Draw@CLine@@QAEXPAVCView@@HHHHH@Z 004c3480 f   libs page:Riched.obj
 0001:000c2540       ?IsCursor@CLine@@QAEHXZ    004c3540 f   libs page:Riched.obj
 0001:000c2580       ?UnDraw@CLine@@QAEXXZ      004c3580 f   libs page:Riched.obj
 0001:000c25a0       ?GetAttrib@CLine@@QAEHPAD@Z 004c35a0 f   libs page:Riched.obj
 0001:000c25e0       ?SetCursorPosition@CLine@@QAEPADPAVCView@@HH@Z 004c35e0 f   libs page:Riched.obj
 0001:000c2630       ?GetFont@CLine@@QAEPADXZ   004c3630 f   libs page:Riched.obj
 0001:000c2640       ?GetColor@CLine@@QAEHXZ    004c3640 f   libs page:Riched.obj
 0001:000c2660       ?GetCurrentColor@CLine@@QAEHXZ 004c3660 f   libs page:Riched.obj
 0001:000c2680       ?GetCurrentFont@CLine@@QAEPADXZ 004c3680 f   libs page:Riched.obj
 0001:000c2690       ??0CMDOBmpView@@QAE@PAUmdobitmap@@@Z 004c3690 f   libs page:MDOBmpView.obj
 0001:000c2770       ??_GCMDOBmpView@@UAEPAXI@Z 004c3770 f i libs page:MDOBmpView.obj
 0001:000c2770       ??_ECMDOBmpView@@UAEPAXI@Z 004c3770 f i libs page:MDOBmpView.obj
 0001:000c2790       ??1CMDOBmpView@@UAE@XZ     004c3790 f   libs page:MDOBmpView.obj
 0001:000c2930       ?FrameRect@CMDOBmpView@@UAEXPAUSRect@@H@Z 004c3930 f   libs page:MDOBmpView.obj
 0001:000c29b0       ?FillRect@CMDOBmpView@@UAEXPAUSRect@@H@Z 004c39b0 f   libs page:MDOBmpView.obj
 0001:000c29e0       ?PutPicture@CMDOBmpView@@UAEXPAUmdobitmap@@PAUSRect@@H@Z 004c39e0 f   libs page:MDOBmpView.obj
 0001:000c2a20       ?DrawString@CMDOBmpView@@UAEXPADHHHHHPAUstruct_FONT@@@Z 004c3a20 f   libs page:MDOBmpView.obj
 0001:000c2a70       ?DrawLine@CMDOBmpView@@UAEXHHHHH@Z 004c3a70 f   libs page:MDOBmpView.obj
 0001:000c2ab0       ?GetWidthTexte@CMDOBmpView@@UAEHPADHPAUstruct_FONT@@@Z 004c3ab0 f   libs page:MDOBmpView.obj
 0001:000c2ae0       ?GetFont@CMDOBmpView@@UAEPAUstruct_FONT@@PAD@Z 004c3ae0 f   libs page:MDOBmpView.obj
 0001:000c2b40       ?DrawTexte@CMDOBmpView@@UAEXPADHHHHHH0@Z 004c3b40 f   libs page:MDOBmpView.obj
 0001:000c2ba0       ?SetTextJustification@CMDOBmpView@@UAEXHH@Z 004c3ba0 f   libs page:MDOBmpView.obj
 0001:000c2bc0       ?InvertRect@CMDOBmpView@@UAEXHHHH@Z 004c3bc0 f   libs page:MDOBmpView.obj
 0001:000c2bd0       ?InvertColor@CMDOBmpView@@CAHH@Z 004c3bd0 f   libs page:MDOBmpView.obj
 0001:000c2c00       ?GetSizeEquation@CMDOBmpView@@UAEXPADPAH1100@Z 004c3c00 f   libs page:MDOBmpView.obj
 0001:000c2d40       ?end@?$list@PAUstruct_FONT@@V?$__default_alloc_template@$00$0A@@@@@QAE?AU?$_List_iterator@PAUstruct_FONT@@AAPAU1@PAPAU1@@@XZ 004c3d40 f i libs page:MDOBmpView.obj
 0001:000c2d50       ??0?$_List_iterator@PAUstruct_FONT@@AAPAU1@PAPAU1@@@QAE@ABU0@@Z 004c3d50 f i libs page:MDOBmpView.obj
 0001:000c2d60       ?insert@?$list@PAUstruct_FONT@@V?$__default_alloc_template@$00$0A@@@@@QAE?AU?$_List_iterator@PAUstruct_FONT@@AAPAU1@PAPAU1@@@U2@ABQAUstruct_FONT@@@Z 004c3d60 f i libs page:MDOBmpView.obj
 0001:000c2d90       ?_M_create_node@?$list@PAUstruct_FONT@@V?$__default_alloc_template@$00$0A@@@@@IAEPAU?$_List_node@PAUstruct_FONT@@@@ABQAUstruct_FONT@@@Z 004c3d90 f i libs page:MDOBmpView.obj
 0001:000c2e50       ?FrameRect@CView@@UAEXPAUSRect@@H@Z 004c3e50 f i libs page:MDOBmpView.obj
 0001:000c2e60       ?FillRect@CView@@UAEXPAUSRect@@H@Z 004c3e60 f i libs page:MDOBmpView.obj
 0001:000c2e70       ?PutPicture@CView@@UAEXPAUmdobitmap@@PAUSRect@@H@Z 004c3e70 f i libs page:MDOBmpView.obj
 0001:000c2e80       ?DrawString@CView@@UAEXPADHHHHHPAUstruct_FONT@@@Z 004c3e80 f i libs page:MDOBmpView.obj
 0001:000c2e90       ?DrawLine@CView@@UAEXHHHHH@Z 004c3e90 f i libs page:MDOBmpView.obj
 0001:000c2ea0       ?GetWidthTexte@CView@@UAEHPADHPAUstruct_FONT@@@Z 004c3ea0 f i libs page:MDOBmpView.obj
 0001:000c2eb0       ?GetHeightTexte@CView@@UAEHPADHPAUstruct_FONT@@@Z 004c3eb0 f i libs page:MDOBmpView.obj
 0001:000c2ec0       ?GetFont@CView@@UAEPAUstruct_FONT@@PAD@Z 004c3ec0 f i libs page:MDOBmpView.obj
 0001:000c2ed0       ?DrawTexte@CView@@UAEXPADHHHHHH0@Z 004c3ed0 f i libs page:MDOBmpView.obj
 0001:000c2ee0       ?DrawEquation@CView@@UAEXPADHHPAH100H@Z 004c3ee0 f i libs page:MDOBmpView.obj
 0001:000c2ef0       ?DrawEquation@CView@@UAEXPADHH00H@Z 004c3ef0 f i libs page:MDOBmpView.obj
 0001:000c2f00       ?GetSizeEquation@CView@@UAEXPADPAH1100@Z 004c3f00 f i libs page:MDOBmpView.obj
 0001:000c2f10       ?SetTextJustification@CView@@UAEXHH@Z 004c3f10 f i libs page:MDOBmpView.obj
 0001:000c2f20       ?InvertRect@CView@@UAEXHHHH@Z 004c3f20 f i libs page:MDOBmpView.obj
 0001:000c2f30       ?GetHeightTexte@CView@@UAEHPAUstruct_FONT@@@Z 004c3f30 f i libs page:MDOBmpView.obj
 0001:000c2f40       ?SetPathFonts@CView@@UAEXPAD@Z 004c3f40 f i libs page:MDOBmpView.obj
 0001:000c2f50       ??0CSubType@@QAE@XZ        004c3f50 f   libs page:SubType.obj
 0001:000c2f70       ??1CSubType@@QAE@XZ        004c3f70 f   libs page:SubType.obj
 0001:000c2fc0       ?Load@CSubType@@QAEHPAD@Z  004c3fc0 f   libs page:SubType.obj
 0001:000c33a0       ?GetNextStatement@CSubType@@IAEPADPADD@Z 004c43a0 f   libs page:SubType.obj
 0001:000c33d0       ?GetIndexSheet@CSubType@@QAEHPAD@Z 004c43d0 f   libs page:SubType.obj
 0001:000c3430       ?GetNameSheet@CSubType@@QAEPADH@Z 004c4430 f   libs page:SubType.obj
 0001:000c3450       ?GetNbSubType@CSubType@@QAEHH@Z 004c4450 f   libs page:SubType.obj
 0001:000c3480       ?GetSubType@CSubType@@QAEPAUSSubType@@HH@Z 004c4480 f   libs page:SubType.obj
 0001:000c34c0       ?GetSubTypeByName@CSubType@@QAEPAUSSubType@@HPAD@Z 004c44c0 f   libs page:SubType.obj
 0001:000c3540       ?GetIndexSubType@CSubType@@QAEHHPAD@Z 004c4540 f   libs page:SubType.obj
 0001:000c35e0       ?GetSizeSheet@CSubType@@QAEHH@Z 004c45e0 f   libs page:SubType.obj
 0001:000c3630       ??0CBts@@QAE@XZ            004c4630 f   libs page:Bts.obj
 0001:000c36a0       ??_GCBts@@UAEPAXI@Z        004c46a0 f i libs page:Bts.obj
 0001:000c36a0       ??_ECBts@@UAEPAXI@Z        004c46a0 f i libs page:Bts.obj
 0001:000c36c0       ??1CBts@@UAE@XZ            004c46c0 f   libs page:Bts.obj
 0001:000c37a0       ?GetVersion@CBts@@QAEKXZ   004c47a0 f   libs page:Bts.obj
 0001:000c37b0       ?GetNbTypes@CBts@@QAEKXZ   004c47b0 f   libs page:Bts.obj
 0001:000c37c0       ?GetBtsName@CBts@@QAEPBDXZ 004c47c0 f   libs page:Bts.obj
 0001:000c37d0       ?GetName@CBts@@QAEPBDK@Z   004c47d0 f   libs page:Bts.obj
 0001:000c37e0       ?GetSubType@CBts@@QAEPBDK@Z 004c47e0 f   libs page:Bts.obj
 0001:000c37f0       ?GetLeftMargin@CBts@@QAEKK@Z 004c47f0 f   libs page:Bts.obj
 0001:000c3810       ?GetRightMargin@CBts@@QAEKK@Z 004c4810 f   libs page:Bts.obj
 0001:000c3830       ?GetTopMargin@CBts@@QAEKK@Z 004c4830 f   libs page:Bts.obj
 0001:000c3850       ?GetBottomMargin@CBts@@QAEKK@Z 004c4850 f   libs page:Bts.obj
 0001:000c3870       ?GetHorizontalMinSize@CBts@@QAEKK@Z 004c4870 f   libs page:Bts.obj
 0001:000c3890       ?GetVerticalMinSize@CBts@@QAEKK@Z 004c4890 f   libs page:Bts.obj
 0001:000c38b0       ?GetHorizontalMaxSize@CBts@@QAEKK@Z 004c48b0 f   libs page:Bts.obj
 0001:000c38d0       ?GetVerticalMaxSize@CBts@@QAEKK@Z 004c48d0 f   libs page:Bts.obj
 0001:000c38f0       ?GetNbFiles@CBts@@IAEKK@Z  004c48f0 f   libs page:Bts.obj
 0001:000c3900       ?GetFileName@CBts@@IAEPBDKK@Z 004c4900 f   libs page:Bts.obj
 0001:000c3920       ?Load@CBts@@QAEKPBD0@Z     004c4920 f   libs page:Bts.obj
 0001:000c46f0       ?CheckMargins@CBts@@IAEKK@Z 004c56f0 f   libs page:Bts.obj
 0001:000c57d0       ?LoadSignedLong@CBts@@IAEXPBD00PAJ@Z 004c67d0 f   libs page:Bts.obj
 0001:000c5850       ??0CBti@@QAE@XZ            004c6850 f   libs page:Bti.obj
 0001:000c5a20       ??0CBtiAux@@QAE@XZ         004c6a20 f i libs page:Bti.obj
 0001:000c5aa0       ??1CBtiAux@@UAE@XZ         004c6aa0 f i libs page:Bti.obj
 0001:000c5ab0       ??_ECBtiAux@@UAEPAXI@Z     004c6ab0 f i libs page:Bti.obj
 0001:000c5ab0       ??_GCBtiAux@@UAEPAXI@Z     004c6ab0 f i libs page:Bti.obj
 0001:000c5ad0       ??_GCBti@@UAEPAXI@Z        004c6ad0 f i libs page:Bti.obj
 0001:000c5ad0       ??_ECBti@@UAEPAXI@Z        004c6ad0 f i libs page:Bti.obj
 0001:000c5af0       ??1CBti@@UAE@XZ            004c6af0 f   libs page:Bti.obj
 0001:000c5b90       ?GetLeftMargin@CBti@@QAEKXZ 004c6b90 f   libs page:Bti.obj
 0001:000c5bd0       ?GetRightMargin@CBti@@QAEKXZ 004c6bd0 f   libs page:Bti.obj
 0001:000c5c10       ?GetTopMargin@CBti@@QAEKXZ 004c6c10 f   libs page:Bti.obj
 0001:000c5c50       ?GetBottomMargin@CBti@@QAEKXZ 004c6c50 f   libs page:Bti.obj
 0001:000c5c90       ?GetLeftMarginBetweenTextAndBorder@CBti@@QAEJXZ 004c6c90 f   libs page:Bti.obj
 0001:000c5cf0       ?GetRightMarginBetweenTextAndBorder@CBti@@QAEJXZ 004c6cf0 f   libs page:Bti.obj
 0001:000c5d60       ?GetTopMarginBetweenTextAndBorder@CBti@@QAEJXZ 004c6d60 f   libs page:Bti.obj
 0001:000c5dc0       ?GetBottomMarginBetweenTextAndBorder@CBti@@QAEJXZ 004c6dc0 f   libs page:Bti.obj
 0001:000c5e30       ?GetHorizontalSizeMin@CBti@@QAEKXZ 004c6e30 f   libs page:Bti.obj
 0001:000c5e40       ?GetVerticalSizeMin@CBti@@QAEKXZ 004c6e40 f   libs page:Bti.obj
 0001:000c5e50       ?GetHorizontalSizeMax@CBti@@QAEKXZ 004c6e50 f   libs page:Bti.obj
 0001:000c5e60       ?GetVerticalSizeMax@CBti@@QAEKXZ 004c6e60 f   libs page:Bti.obj
 0001:000c5e70       ?GetWFrame@CBti@@QAEKXZ    004c6e70 f   libs page:Bti.obj
 0001:000c5e90       ?GetHFrame@CBti@@QAEKXZ    004c6e90 f   libs page:Bti.obj
 0001:000c5eb0       ?LoadSignedLong@CBti@@IAEXPBD00PAJ@Z 004c6eb0 f   libs page:Bti.obj
 0001:000c5f30       ?Load@CBti@@QAEKPBD@Z      004c6f30 f   libs page:Bti.obj
 0001:000c6cc0       ?InitTTS@@YAXXZ            004c7cc0 f   Libs TTS:MDOTTS.obj
 0001:000c6db0       ?CloseTTS@@YAXXZ           004c7db0 f   Libs TTS:MDOTTS.obj
 0001:000c6ee0       ?ShutdownVoice@@YAXPAVTTSVoice@@@Z 004c7ee0 f   Libs TTS:MDOTTS.obj
 0001:000c6f50       ?TTSOpenVoice@@YAPAXPBD0P6AXPAXJJJ@Z@Z 004c7f50 f   Libs TTS:MDOTTS.obj
 0001:000c7020       ?TTSCloseVoice@@YAXPAX@Z   004c8020 f   Libs TTS:MDOTTS.obj
 0001:000c70b0       ?TTSPause@@YAXPAX@Z        004c80b0 f   Libs TTS:MDOTTS.obj
 0001:000c70c0       ?TTSStop@@YAXPAX@Z         004c80c0 f   Libs TTS:MDOTTS.obj
 0001:000c70d0       ?TTSResume@@YAXPAX@Z       004c80d0 f   Libs TTS:MDOTTS.obj
 0001:000c70e0       ?TTSSay@@YAJPAXPBDJ@Z      004c80e0 f   Libs TTS:MDOTTS.obj
 0001:000c7110       ?TTSSetAudioParams@@YA_NPAXGKK@Z 004c8110 f   Libs TTS:MDOTTS.obj
 0001:000c7130       ?TTSGetAudioParams@@YA_NPAXAAGAAK2@Z 004c8130 f   Libs TTS:MDOTTS.obj
 0001:000c7150       ?TTSGetData@@YAPAXPAX@Z    004c8150 f   Libs TTS:MDOTTS.obj
 0001:000c7160       ?TTSSetData@@YAXPAX0@Z     004c8160 f   Libs TTS:MDOTTS.obj
 0001:000c7170       ??0?$list@PAVTTSVoice@@V?$__default_alloc_template@$00$0A@@@@@QAE@ABV?$__default_alloc_template@$00$0A@@@@Z 004c8170 f i Libs TTS:MDOTTS.obj
 0001:000c7230       ?end@?$list@PAVTTSVoice@@V?$__default_alloc_template@$00$0A@@@@@QAE?AU?$_List_iterator@PAVTTSVoice@@AAPAV1@PAPAV1@@@XZ 004c8230 f i Libs TTS:MDOTTS.obj
 0001:000c7240       ??1?$list@PAVTTSVoice@@V?$__default_alloc_template@$00$0A@@@@@QAE@XZ 004c8240 f i Libs TTS:MDOTTS.obj
 0001:000c73a0       ??0?$_List_iterator@PAVTTSVoice@@AAPAV1@PAPAV1@@@QAE@ABU0@@Z 004c83a0 f i Libs TTS:MDOTTS.obj
 0001:000c73b0       ?insert@?$list@PAVTTSVoice@@V?$__default_alloc_template@$00$0A@@@@@QAE?AU?$_List_iterator@PAVTTSVoice@@AAPAV1@PAPAV1@@@U2@ABQAVTTSVoice@@@Z 004c83b0 f i Libs TTS:MDOTTS.obj
 0001:000c73e0       ?_M_create_node@?$list@PAVTTSVoice@@V?$__default_alloc_template@$00$0A@@@@@IAEPAU?$_List_node@PAVTTSVoice@@@@ABQAVTTSVoice@@@Z 004c83e0 f i Libs TTS:MDOTTS.obj
 0001:000c74a0       ?clear@?$_List_base@PAVTTSVoice@@V?$__default_alloc_template@$00$0A@@@@@QAEXXZ 004c84a0 f i Libs TTS:MDOTTS.obj
 0001:000c74d0       ?erase@?$list@PAVTTSVoice@@V?$__default_alloc_template@$00$0A@@@@@QAE?AU?$_List_iterator@PAVTTSVoice@@AAPAV1@PAPAV1@@@U2@@Z 004c84d0 f i Libs TTS:MDOTTS.obj
 0001:000c7560       ?CreateKeyDWord@@YAHPAUHKEY__@@PBD1K@Z 004c8560 f   Libs TTS:TTSVoice.obj
 0001:000c7600       ?InstallEngine@TTSVoice@@CAXXZ 004c8600 f   Libs TTS:TTSVoice.obj
 0001:000c7a60       ?InstallVoice@TTSVoice@@CA_NPBD@Z 004c8a60 f   Libs TTS:TTSVoice.obj
 0001:000c8000       ?UninstallEngine@TTSVoice@@CAXXZ 004c9000 f   Libs TTS:TTSVoice.obj
 0001:000c8500       ?UninstallVoice@TTSVoice@@CAXPBD@Z 004c9500 f   Libs TTS:TTSVoice.obj
 0001:000c86c0       ?UninstallAll@TTSVoice@@SAXXZ 004c96c0 f   Libs TTS:TTSVoice.obj
 0001:000c8730       ??0TTSVoice@@QAE@PBD0P6AXPAXJJJ@Z@Z 004c9730 f   Libs TTS:TTSVoice.obj
 0001:000c8ba0       ??1TTSVoice@@QAE@XZ        004c9ba0 f   Libs TTS:TTSVoice.obj
 0001:000c8d50       ?Refresh@TTSVoice@@QAEXXZ  004c9d50 f   Libs TTS:TTSVoice.obj
 0001:000c8d70       ?Say@TTSVoice@@QAEXPBDJJ@Z 004c9d70 f   Libs TTS:TTSVoice.obj
 0001:000c8de0       ?Stop@TTSVoice@@QAEXXZ     004c9de0 f   Libs TTS:TTSVoice.obj
 0001:000c8df0       ?Pause@TTSVoice@@QAEXXZ    004c9df0 f   Libs TTS:TTSVoice.obj
 0001:000c8e00       ?Resume@TTSVoice@@QAEXXZ   004c9e00 f   Libs TTS:TTSVoice.obj
 0001:000c8e10       ?SetAudioParams@TTSVoice@@QAE_NGKK@Z 004c9e10 f   Libs TTS:TTSVoice.obj
 0001:000c8e90       ?GetAudioParams@TTSVoice@@QAE_NAAGAAK1@Z 004c9e90 f   Libs TTS:TTSVoice.obj
 0001:000c8f10       ?PushBookMark@TTSVoice@@QAGJ_KJJJ@Z 004c9f10 f   Libs TTS:TTSVoice.obj
 0001:000c8f70       ?DispatchBookMarks@TTSVoice@@AAEXJ_N@Z 004c9f70 f   Libs TTS:TTSVoice.obj
 0001:000c8fe0       ??0CVoiceNotify@@QAE@PAVTTSVoice@@@Z 004c9fe0 f   Libs TTS:TTSVoice.obj
 0001:000c9000       ??1CVoiceNotify@@QAE@XZ    004ca000 f   Libs TTS:TTSVoice.obj
 0001:000c9010       ?QueryInterface@CVoiceNotify@@UAGJABU_GUID@@PAPAX@Z 004ca010 f   Libs TTS:TTSVoice.obj
 0001:000c9070       ?AddRef@CVoiceNotify@@UAGKXZ 004ca070 f   Libs TTS:TTSVoice.obj
 0001:000c9080       ?Release@CVoiceNotify@@UAGKXZ 004ca080 f   Libs TTS:TTSVoice.obj
 0001:000c90b0       ?AttribChanged@CVoiceNotify@@UAGJK@Z 004ca0b0 f   Libs TTS:TTSVoice.obj
 0001:000c90c0       ?AudioStart@CVoiceNotify@@UAGJ_K@Z 004ca0c0 f   Libs TTS:TTSVoice.obj
 0001:000c90d0       ?AudioStop@CVoiceNotify@@UAGJ_K@Z 004ca0d0 f   Libs TTS:TTSVoice.obj
 0001:000c90e0       ?Visual@CVoiceNotify@@UAGJ_KDDKPAUTTSMOUTH@@@Z 004ca0e0 f   Libs TTS:TTSVoice.obj
 0001:000c9110       ??1?$list@VCBookMark@@V?$__default_alloc_template@$00$0A@@@@@QAE@XZ 004ca110 f i Libs TTS:TTSVoice.obj
 0001:000c9270       ??0?$list@PADV?$__default_alloc_template@$00$0A@@@@@QAE@ABV?$__default_alloc_template@$00$0A@@@@Z 004ca270 f i Libs TTS:TTSVoice.obj
 0001:000c9330       ?end@?$list@PADV?$__default_alloc_template@$00$0A@@@@@QAE?AU?$_List_iterator@PADAAPADPAPAD@@XZ 004ca330 f i Libs TTS:TTSVoice.obj
 0001:000c9340       ?begin@?$list@VCBookMark@@V?$__default_alloc_template@$00$0A@@@@@QAE?AU?$_List_iterator@VCBookMark@@AAV1@PAV1@@@XZ 004ca340 f i Libs TTS:TTSVoice.obj
 0001:000c9350       ?end@?$list@VCBookMark@@V?$__default_alloc_template@$00$0A@@@@@QAE?AU?$_List_iterator@VCBookMark@@AAV1@PAV1@@@XZ 004ca350 f i Libs TTS:TTSVoice.obj
 0001:000c9360       ?insert@?$list@VCBookMark@@V?$__default_alloc_template@$00$0A@@@@@QAE?AU?$_List_iterator@VCBookMark@@AAV1@PAV1@@@U2@ABVCBookMark@@@Z 004ca360 f i Libs TTS:TTSVoice.obj
 0001:000c9390       ?erase@?$list@VCBookMark@@V?$__default_alloc_template@$00$0A@@@@@QAE?AU?$_List_iterator@VCBookMark@@AAV1@PAV1@@@U2@@Z 004ca390 f i Libs TTS:TTSVoice.obj
 0001:000c93c0       ??0?$_List_iterator@VCBookMark@@AAV1@PAV1@@@QAE@ABU0@@Z 004ca3c0 f i Libs TTS:TTSVoice.obj
 0001:000c93d0       ?_M_create_node@?$list@VCBookMark@@V?$__default_alloc_template@$00$0A@@@@@IAEPAU?$_List_node@VCBookMark@@@@ABVCBookMark@@@Z 004ca3d0 f i Libs TTS:TTSVoice.obj
 0001:000c94a0       ??0CMDOADO@@QAE@P6AXPAXJJJ@ZPAVTTSVoice@@@Z 004ca4a0 f   Libs TTS:mdoado.obj
 0001:000c9510       ??1CMDOADO@@QAE@XZ         004ca510 f   Libs TTS:mdoado.obj
 0001:000c9560       ?QueryInterface@CMDOADO@@UAGJABU_GUID@@PAPAX@Z 004ca560 f   Libs TTS:mdoado.obj
 0001:000c9620       ?AddRef@CMDOADO@@UAGKXZ    004ca620 f   Libs TTS:mdoado.obj
 0001:000c9630       ?Release@CMDOADO@@UAGKXZ   004ca630 f   Libs TTS:mdoado.obj
 0001:000c9660       ?Flush@CMDOADO@@UAGJXZ     004ca660 f   Libs TTS:mdoado.obj
 0001:000c9670       ?LevelGet@CMDOADO@@UAGJPAK@Z 004ca670 f   Libs TTS:mdoado.obj
 0001:000c9680       ?LevelSet@CMDOADO@@UAGJK@Z 004ca680 f   Libs TTS:mdoado.obj
 0001:000c9690       ?PassNotify@CMDOADO@@UAGJPAXU_GUID@@@Z 004ca690 f   Libs TTS:mdoado.obj
 0001:000c96e0       ?PosnGet@CMDOADO@@UAGJPA_K@Z 004ca6e0 f   Libs TTS:mdoado.obj
 0001:000c9710       ?Claim@CMDOADO@@UAGJXZ     004ca710 f   Libs TTS:mdoado.obj
 0001:000c9740       ?UnClaim@CMDOADO@@UAGJXZ   004ca740 f   Libs TTS:mdoado.obj
 0001:000c9760       ?Start@CMDOADO@@UAGJXZ     004ca760 f   Libs TTS:mdoado.obj
 0001:000c9780       ?Stop@CMDOADO@@UAGJXZ      004ca780 f   Libs TTS:mdoado.obj
 0001:000c9800       ?TotalGet@CMDOADO@@UAGJPA_K@Z 004ca800 f   Libs TTS:mdoado.obj
 0001:000c9830       ?ToFileTime@CMDOADO@@UAGJPA_KPAU_FILETIME@@@Z 004ca830 f   Libs TTS:mdoado.obj
 0001:000c9860       ?WaveFormatGet@CMDOADO@@UAGJPAUSDATA@@@Z 004ca860 f   Libs TTS:mdoado.obj
 0001:000c98c0       ?WaveFormatSet@CMDOADO@@UAGJUSDATA@@@Z 004ca8c0 f   Libs TTS:mdoado.obj
 0001:000c9a10       ?FreeSpace@CMDOADO@@UAGJPAKPAH@Z 004caa10 f   Libs TTS:mdoado.obj
 0001:000c9a40       ?DataSet@CMDOADO@@UAGJPAXK@Z 004caa40 f   Libs TTS:mdoado.obj
 0001:000c9b10       ?BookMark@CMDOADO@@UAGJK@Z 004cab10 f   Libs TTS:mdoado.obj
 0001:000c9b30       ?FixTrack@CMDOADO@@QAEXJ@Z 004cab30 f   Libs TTS:mdoado.obj
 0001:000c9b40       ?Refresh@CMDOADO@@QAEJXZ   004cab40 f   Libs TTS:mdoado.obj
 0001:000c9e70       ?Pause@CMDOADO@@QAEXXZ     004cae70 f   Libs TTS:mdoado.obj
 0001:000c9e90       ?Resume@CMDOADO@@QAEXXZ    004cae90 f   Libs TTS:mdoado.obj
 0001:000c9eb0       ?AskMoreToEngine@CMDOADO@@AAEJXZ 004caeb0 f   Libs TTS:mdoado.obj
 0001:000c9fb0       ?UnactiveHandler@CMDOADO@@QAEXXZ 004cafb0 f   Libs TTS:mdoado.obj
 0001:000c9fc0       ?QueryInterface@CMDOADO@@W3AGJABU_GUID@@PAPAX@Z 004cafc0 f i Libs TTS:mdoado.obj
 0001:000c9fd0       ?AddRef@CMDOADO@@W3AGKXZ   004cafd0 f i Libs TTS:mdoado.obj
 0001:000c9fe0       ?Release@CMDOADO@@W3AGKXZ  004cafe0 f i Libs TTS:mdoado.obj
 0001:000c9ff0       ??0zikMuzikotron@@QAE@K@Z  004caff0 f   Libs Muzikotron:Muzikotron.obj
 0001:000ca0e0       ??_GzikMuzikotron@@UAEPAXI@Z 004cb0e0 f i Libs Muzikotron:Muzikotron.obj
 0001:000ca0e0       ??_EzikMuzikotron@@UAEPAXI@Z 004cb0e0 f i Libs Muzikotron:Muzikotron.obj
 0001:000ca100       ??1zikMuzikotron@@UAE@XZ   004cb100 f   Libs Muzikotron:Muzikotron.obj
 0001:000ca160       ?SetQueueTrack@zikMuzikotron@@QAEKKK@Z 004cb160 f   Libs Muzikotron:Muzikotron.obj
 0001:000ca190       ?SetQueueHasNoFixedTrack@zikMuzikotron@@QAEKK@Z 004cb190 f   Libs Muzikotron:Muzikotron.obj
 0001:000ca1c0       ?AddSoundEvent@zikMuzikotron@@QAEKKPBVtrkSoundBuffer@@KAAK@Z 004cb1c0 f   Libs Muzikotron:Muzikotron.obj
 0001:000ca2d0       ?RemoveSoundEvent@zikMuzikotron@@QAEKKK@Z 004cb2d0 f   Libs Muzikotron:Muzikotron.obj
 0001:000ca300       ?SetQueueVolume@zikMuzikotron@@QAEKKK@Z 004cb300 f   Libs Muzikotron:Muzikotron.obj
 0001:000ca350       ?SetCompositionLength@zikMuzikotron@@QAEXK@Z 004cb350 f   Libs Muzikotron:Muzikotron.obj
 0001:000ca3c0       ?GetMsPosition@zikMuzikotron@@QBEKXZ 004cb3c0 f   Libs Muzikotron:Muzikotron.obj
 0001:000ca420       ?Play@zikMuzikotron@@QAEKK@Z 004cb420 f   Libs Muzikotron:Muzikotron.obj
 0001:000ca4e0       ?PlayII@zikMuzikotron@@QAEKKK@Z 004cb4e0 f   Libs Muzikotron:Muzikotron.obj
 0001:000ca5f0       ?Stop@zikMuzikotron@@QAEKXZ 004cb5f0 f   Libs Muzikotron:Muzikotron.obj
 0001:000ca640       ?Update@zikMuzikotron@@QAEKXZ 004cb640 f   Libs Muzikotron:Muzikotron.obj
 0001:000ca6a0       ??0zikMemorySoundManager@@QAE@XZ 004cb6a0 f   Libs Muzikotron:MemorySoundManager.obj
 0001:000ca7a0       ??_GzikMemorySoundManager@@UAEPAXI@Z 004cb7a0 f i Libs Muzikotron:MemorySoundManager.obj
 0001:000ca7a0       ??_EzikMemorySoundManager@@UAEPAXI@Z 004cb7a0 f i Libs Muzikotron:MemorySoundManager.obj
 0001:000ca7c0       ??1zikMemorySoundManager@@UAE@XZ 004cb7c0 f   Libs Muzikotron:MemorySoundManager.obj
 0001:000ca840       ?GetSoundBuffer@zikMemorySoundManager@@QAEPAVtrkSoundBuffer@@ABV?$basic_string@DU?$char_traits@D@@V?$__default_alloc_template@$00$0A@@@@@@Z 004cb840 f   Libs Muzikotron:MemorySoundManager.obj
 0001:000ca930       ?GiveSoundBufferBack@zikMemorySoundManager@@QAEKPBVtrkSoundBuffer@@@Z 004cb930 f   Libs Muzikotron:MemorySoundManager.obj
 0001:000ca9a0       ?CreateMemorySound@zikMemorySoundManager@@UAEPAVzikMemorySound@@ABV?$basic_string@DU?$char_traits@D@@V?$__default_alloc_template@$00$0A@@@@@@Z 004cb9a0 f   Libs Muzikotron:MemorySoundManager.obj
 0001:000caa00       ?IsSoundBufferValid@zikMemorySoundManager@@QAE_NPBVtrkSoundBuffer@@@Z 004cba00 f   Libs Muzikotron:MemorySoundManager.obj
 0001:000caa40       ?insert@?$list@PAVzikMemorySound@@V?$__default_alloc_template@$00$0A@@@@@QAE?AU?$_List_iterator@PAVzikMemorySound@@AAPAV1@PAPAV1@@@U2@ABQAVzikMemorySound@@@Z 004cba40 f i Libs Muzikotron:MemorySoundManager.obj
 0001:000caa70       ?erase@?$list@PAVzikMemorySound@@V?$__default_alloc_template@$00$0A@@@@@QAE?AU?$_List_iterator@PAVzikMemorySound@@AAPAV1@PAPAV1@@@U2@@Z 004cba70 f i Libs Muzikotron:MemorySoundManager.obj
 0001:000caaa0       ??1?$list@PAVzikMemorySound@@V?$__default_alloc_template@$00$0A@@@@@QAE@XZ 004cbaa0 f i Libs Muzikotron:MemorySoundManager.obj
 0001:000cac00       ??0?$_List_iterator@PAVzikMemorySound@@AAPAV1@PAPAV1@@@QAE@ABU0@@Z 004cbc00 f i Libs Muzikotron:MemorySoundManager.obj
 0001:000cac10       ?_M_create_node@?$list@PAVzikMemorySound@@V?$__default_alloc_template@$00$0A@@@@@IAEPAU?$_List_node@PAVzikMemorySound@@@@ABQAVzikMemorySound@@@Z 004cbc10 f i Libs Muzikotron:MemorySoundManager.obj
 0001:000cacd0       ??0zikMemorySound@@QAE@ABV?$basic_string@DU?$char_traits@D@@V?$__default_alloc_template@$00$0A@@@@@@Z 004cbcd0 f   Libs Muzikotron:MemorySound.obj
 0001:000cae60       ??_GzikMemorySound@@UAEPAXI@Z 004cbe60 f i Libs Muzikotron:MemorySound.obj
 0001:000cae60       ??_EzikMemorySound@@UAEPAXI@Z 004cbe60 f i Libs Muzikotron:MemorySound.obj
 0001:000cae80       ??1zikMemorySound@@UAE@XZ  004cbe80 f   Libs Muzikotron:MemorySound.obj
 0001:000cb030       ?GetName@zikMemorySound@@QBEABV?$basic_string@DU?$char_traits@D@@V?$__default_alloc_template@$00$0A@@@@@XZ 004cc030 f   Libs Muzikotron:MemorySound.obj
 0001:000cb040       ?GetSoundBuffer@zikMemorySound@@QBEPAVtrkSoundBuffer@@XZ 004cc040 f   Libs Muzikotron:MemorySound.obj
 0001:000cb050       ?GetLink@zikMemorySound@@QBEKXZ 004cc050 f   Libs Muzikotron:MemorySound.obj
 0001:000cb060       ?IncLink@zikMemorySound@@QAEXXZ 004cc060 f   Libs Muzikotron:MemorySound.obj
 0001:000cb070       ?DecLink@zikMemorySound@@QAEXXZ 004cc070 f   Libs Muzikotron:MemorySound.obj
 0001:000cb090       ?Load@zikMemorySound@@UAE_NXZ 004cc090 f   Libs Muzikotron:MemorySound.obj
 0001:000cb0c0       ?LoadWav8@@YAPAVtrkSoundBuffer@@PBD@Z 004cc0c0 f   Libs Muzikotron:MemorySound.obj
 0001:000cb1a0       ?LoadWav16@@YAPAVtrkSoundBuffer@@PBD@Z 004cc1a0 f   Libs Muzikotron:MemorySound.obj
 0001:000cb280       ?_M_range_initialize@?$basic_string@DU?$char_traits@D@@V?$__default_alloc_template@$00$0A@@@@@AAEXPBD0@Z 004cc280 f i Libs Muzikotron:MemorySound.obj
 0001:000cb2f0       ??0?$_String_base@DV?$__default_alloc_template@$00$0A@@@@@IAE@ABV?$__default_alloc_template@$00$0A@@@@Z 004cc2f0 f i Libs Muzikotron:MemorySound.obj
 0001:000cb300       ?_M_throw_length_error@?$_String_base@DV?$__default_alloc_template@$00$0A@@@@@IBEXXZ 004cc300 f i Libs Muzikotron:MemorySound.obj
 0001:000cb430       ??0length_error@@QAE@ABV?$basic_string@DU?$char_traits@D@@V?$__default_alloc_template@$00$0A@@@@@@Z 004cc430 f i Libs Muzikotron:MemorySound.obj
 0001:000cb4b0       ??0zikSoundsQueue@@QAE@KKK_NK@Z 004cc4b0 f   Libs Muzikotron:SoundQueue.obj
 0001:000cb5e0       ??_GzikSoundsQueue@@UAEPAXI@Z 004cc5e0 f i Libs Muzikotron:SoundQueue.obj
 0001:000cb5e0       ??_EzikSoundsQueue@@UAEPAXI@Z 004cc5e0 f i Libs Muzikotron:SoundQueue.obj
 0001:000cb600       ??1zikSoundsQueue@@UAE@XZ  004cc600 f   Libs Muzikotron:SoundQueue.obj
 0001:000cb730       ?GetNoTrack@zikSoundsQueue@@QBEKXZ 004cc730 f   Libs Muzikotron:SoundQueue.obj
 0001:000cb740       ?GetPosition@zikSoundsQueue@@QBEKXZ 004cc740 f   Libs Muzikotron:SoundQueue.obj
 0001:000cb7a0       ?HasFixedTrack@zikSoundsQueue@@QBEKXZ 004cc7a0 f   Libs Muzikotron:SoundQueue.obj
 0001:000cb7b0       ?GetFixedTrack@zikSoundsQueue@@QBEKXZ 004cc7b0 f   Libs Muzikotron:SoundQueue.obj
 0001:000cb7c0       ?SetHasFixedTrack@zikSoundsQueue@@QAEXK@Z 004cc7c0 f   Libs Muzikotron:SoundQueue.obj
 0001:000cb7e0       ?SetHasNoFixedTrack@zikSoundsQueue@@QAEXXZ 004cc7e0 f   Libs Muzikotron:SoundQueue.obj
 0001:000cb7f0       ?SetLength@zikSoundsQueue@@QAEXK@Z 004cc7f0 f   Libs Muzikotron:SoundQueue.obj
 0001:000cb830       ?AddSoundEvent@zikSoundsQueue@@QAEKPAVzikSoundEvent@@@Z 004cc830 f   Libs Muzikotron:SoundQueue.obj
 0001:000cb8c0       ?RemoveSoundEvent@zikSoundsQueue@@QAEKK@Z 004cc8c0 f   Libs Muzikotron:SoundQueue.obj
 0001:000cb980       ?Start@zikSoundsQueue@@QAEKK@Z 004cc980 f   Libs Muzikotron:SoundQueue.obj
 0001:000cba30       ?StartII@zikSoundsQueue@@QAEKKK@Z 004cca30 f   Libs Muzikotron:SoundQueue.obj
 0001:000cbb70       ?Stop@zikSoundsQueue@@QAEKXZ 004ccb70 f   Libs Muzikotron:SoundQueue.obj
 0001:000cbbc0       ?FeedBuffer@zikSoundsQueue@@AAEX_N@Z 004ccbc0 f   Libs Muzikotron:SoundQueue.obj
 0001:000cbf10       ?UnflagPrecalc@zikSoundsQueue@@AAEXXZ 004ccf10 f   Libs Muzikotron:SoundQueue.obj
 0001:000cc010       ?Update@zikSoundsQueue@@QAEXXZ 004cd010 f   Libs Muzikotron:SoundQueue.obj
 0001:000cc020       ?begin@?$list@PAVzikSoundEvent@@V?$__default_alloc_template@$00$0A@@@@@QAE?AU?$_List_iterator@PAVzikSoundEvent@@AAPAV1@PAPAV1@@@XZ 004cd020 f i Libs Muzikotron:SoundQueue.obj
 0001:000cc030       ?end@?$list@PAVzikSoundEvent@@V?$__default_alloc_template@$00$0A@@@@@QAE?AU?$_List_iterator@PAVzikSoundEvent@@AAPAV1@PAPAV1@@@XZ 004cd030 f i Libs Muzikotron:SoundQueue.obj
 0001:000cc040       ?insert@?$list@PAVzikSoundEvent@@V?$__default_alloc_template@$00$0A@@@@@QAE?AU?$_List_iterator@PAVzikSoundEvent@@AAPAV1@PAPAV1@@@U2@ABQAVzikSoundEvent@@@Z 004cd040 f i Libs Muzikotron:SoundQueue.obj
 0001:000cc070       ?erase@?$list@PAVzikSoundEvent@@V?$__default_alloc_template@$00$0A@@@@@QAE?AU?$_List_iterator@PAVzikSoundEvent@@AAPAV1@PAPAV1@@@U2@@Z 004cd070 f i Libs Muzikotron:SoundQueue.obj
 0001:000cc0a0       ??1?$list@PAVzikSoundEvent@@V?$__default_alloc_template@$00$0A@@@@@QAE@XZ 004cd0a0 f i Libs Muzikotron:SoundQueue.obj
 0001:000cc200       ??0?$_List_iterator@PAVzikSoundEvent@@AAPAV1@PAPAV1@@@QAE@ABU0@@Z 004cd200 f i Libs Muzikotron:SoundQueue.obj
 0001:000cc210       ?_M_create_node@?$list@PAVzikSoundEvent@@V?$__default_alloc_template@$00$0A@@@@@IAEPAU?$_List_node@PAVzikSoundEvent@@@@ABQAVzikSoundEvent@@@Z 004cd210 f i Libs Muzikotron:SoundQueue.obj
 0001:000cc2d0       ?find@@YA?AU?$_List_iterator@PAVzikSoundEvent@@AAPAV1@PAPAV1@@@U1@0ABQAVzikSoundEvent@@@Z 004cd2d0 f i Libs Muzikotron:SoundQueue.obj
 0001:000cc310       ?find@@YA?AU?$_List_iterator@PAVzikSoundEvent@@AAPAV1@PAPAV1@@@U1@0ABQAVzikSoundEvent@@Uinput_iterator_tag@@@Z 004cd310 f i Libs Muzikotron:SoundQueue.obj
 0001:000cc340       ??0zikSoundEvent@@QAE@XZ   004cd340 f   Libs Muzikotron:SoundEvent.obj
 0001:000cc350       ??_GzikSoundEvent@@UAEPAXI@Z 004cd350 f i Libs Muzikotron:SoundEvent.obj
 0001:000cc350       ??_EzikSoundEvent@@UAEPAXI@Z 004cd350 f i Libs Muzikotron:SoundEvent.obj
 0001:000cc370       ??0zikSoundEvent@@QAE@PBVtrkSoundBuffer@@K@Z 004cd370 f   Libs Muzikotron:SoundEvent.obj
 0001:000cc390       ??1zikSoundEvent@@UAE@XZ   004cd390 f   Libs Muzikotron:SoundEvent.obj
 0001:000cc3a0       ??8zikSoundEvent@@QBE_NABV0@@Z 004cd3a0 f   Libs Muzikotron:SoundEvent.obj
 0001:000cc3c0       ??PzikSoundEvent@@QBE_NABV0@@Z 004cd3c0 f   Libs Muzikotron:SoundEvent.obj
 0001:000cc3d0       ??NzikSoundEvent@@QBE_NABV0@@Z 004cd3d0 f   Libs Muzikotron:SoundEvent.obj
 0001:000cc3e0       ??OzikSoundEvent@@QBE_NABV0@@Z 004cd3e0 f   Libs Muzikotron:SoundEvent.obj
 0001:000cc400       ??MzikSoundEvent@@QBE_NABV0@@Z 004cd400 f   Libs Muzikotron:SoundEvent.obj
 0001:000cc420       ?GetSoundBuffer@zikSoundEvent@@QBEPBVtrkSoundBuffer@@XZ 004cd420 f   Libs Muzikotron:SoundEvent.obj
 0001:000cc430       ?GetSampleStartPosition@zikSoundEvent@@QBEKXZ 004cd430 f   Libs Muzikotron:SoundEvent.obj
 0001:000cc440       ?GetNextSampleToRead@zikSoundEvent@@QBEKXZ 004cd440 f   Libs Muzikotron:SoundEvent.obj
 0001:000cc450       ?SetNextSampleToRead@zikSoundEvent@@QAEJK@Z 004cd450 f   Libs Muzikotron:SoundEvent.obj
 0001:000cc490       ??0MUtils@@QAE@XZ          004cd490 f   Libs CURE:MUtils.obj
 0001:000cc520       ?fromPositionTargetRoll@Matrix3D@@QAEXABVPoint3D@@0M@Z 004cd520 f   Libs CURE:MUtils.obj
 0001:000cc700       ?fromPositionTarget@Matrix3D@@QAEXABVPoint3D@@0@Z 004cd700 f   Libs CURE:MUtils.obj
 0001:000cc840       ?fromObjectToCameraWorldSpace@Matrix3D@@QAEXABV1@0@Z 004cd840 f   Libs CURE:MUtils.obj
 0001:000cc9a0       ?fromUnitQuat@Matrix3D@@QAEXABVQuaternion@@@Z 004cd9a0 f   Libs CURE:MUtils.obj
 0001:000cca80       ?fromAnyQuat@Matrix3D@@QAEXABVQuaternion@@@Z 004cda80 f   Libs CURE:MUtils.obj
 0001:000ccbb0       ?fromEulerYXZ@Matrix3D@@QAEXABVPoint3D@@@Z 004cdbb0 f   Libs CURE:MUtils.obj
 0001:000cccc0       ?getEulerYXZ@Matrix3D@@QBE?AVPoint3D@@XZ 004cdcc0 f   Libs CURE:MUtils.obj
 0001:000ccdc0       ?fromUnitQuaternion@Angle3D@@QAEXABVQuaternion@@@Z 004cddc0 f   Libs CURE:MUtils.obj
 0001:000cce30       ?fromSourceToDest@Angle3D@@QAEXVPoint3D@@0_N@Z 004cde30 f   Libs CURE:MUtils.obj
 0001:000ccfa0       ?fromAngleAxis@Quaternion@@QAEXABVAngle3D@@@Z 004cdfa0 f   Libs CURE:MUtils.obj
 0001:000cd000       ?fromMatrix@Quaternion@@QAEXABVMatrix3D@@@Z 004ce000 f   Libs CURE:MUtils.obj
 0001:000cd160       ?fromDirection@Quaternion@@QAEXABVPoint3D@@@Z 004ce160 f   Libs CURE:MUtils.obj
 0001:000cd1b0       ?fromDirectionRoll@Quaternion@@QAEXABVPoint3D@@M@Z 004ce1b0 f   Libs CURE:MUtils.obj
 0001:000cd200       ?slerp@Quaternion@@QAEXABV1@0MH@Z 004ce200 f   Libs CURE:MUtils.obj
 0001:000cd300       ?slerpLong@Quaternion@@QAEXABV1@0MH@Z 004ce300 f   Libs CURE:MUtils.obj
 0001:000cd3d0       ?exp@Quaternion@@QBE?AV1@XZ 004ce3d0 f   Libs CURE:MUtils.obj
 0001:000cd4b0       ?log@Quaternion@@QBE?AV1@XZ 004ce4b0 f   Libs CURE:MUtils.obj
 0001:000cd550       ?logDif@Quaternion@@QBE?AV1@ABV1@@Z 004ce550 f   Libs CURE:MUtils.obj
 0001:000cd700       ?exp@Quaternion@@QAEXABV1@@Z 004ce700 f   Libs CURE:MUtils.obj
 0001:000cd740       ?log@Quaternion@@QAEXABV1@@Z 004ce740 f   Libs CURE:MUtils.obj
 0001:000cd7e0       ?logDif@Quaternion@@QAEXABV1@0@Z 004ce7e0 f   Libs CURE:MUtils.obj
 0001:000cd820       ?direction@Quaternion@@QBE?AVPoint3D@@XZ 004ce820 f   Libs CURE:MUtils.obj
 0001:000cd8e0       ?perpendicular@Quaternion@@QBE?AVPoint3D@@XZ 004ce8e0 f   Libs CURE:MUtils.obj
 0001:000cd990       ?normal@Quaternion@@QBE?AVPoint3D@@XZ 004ce990 f   Libs CURE:MUtils.obj
 0001:000cda50       ?unitPerpendicular@Quaternion@@QBE?AVPoint3D@@XZ 004cea50 f   Libs CURE:MUtils.obj
 0001:000cdac0       ?unitDirection@Quaternion@@QBE?AVPoint3D@@XZ 004ceac0 f   Libs CURE:MUtils.obj
 0001:000cdb30       ?unitNormal@Quaternion@@QBE?AVPoint3D@@XZ 004ceb30 f   Libs CURE:MUtils.obj
 0001:000cdba0       ?mu_isqrt_init@MUtils@@AAEXXZ 004ceba0 f   Libs CURE:MUtils_isqrt.obj
 0001:000cdbf0       ?invSqrt@MUtils@@SAMM@Z    004cebf0 f   Libs CURE:MUtils_isqrt.obj
 0001:000cdc80       ??0CURETrack@@QAE@XZ       004cec80 f   Libs CURE:CURETrack.obj
 0001:000cdd10       ??1CURETrack@@QAE@XZ       004ced10 f   Libs CURE:CURETrack.obj
 0001:000cde20       ?clean@CURETrack@@QAEXXZ   004cee20 f   Libs CURE:CURETrack.obj
 0001:000cdf00       ?makeRelative@CURETrack@@QAEXPBDAAVPoint3D@@AAVCATime@@@Z 004cef00 f   Libs CURE:CURETrack.obj
 0001:000ce3d0       ??1?$CUREArray@PAVObjectTrackSet@@@@UAE@XZ 004cf3d0 f i Libs CURE:CURETrack.obj
 0001:000ce3f0       ??1?$CUREArray@PAVCameraTrackSet@@@@UAE@XZ 004cf3f0 f i Libs CURE:CURETrack.obj
 0001:000ce410       ??1?$CUREArray@PAVLightTrackSet@@@@UAE@XZ 004cf410 f i Libs CURE:CURETrack.obj
 0001:000ce430       ??1?$CUREArray@PAVTargetLightTrackSet@@@@UAE@XZ 004cf430 f i Libs CURE:CURETrack.obj
 0001:000ce450       ??1?$CUREArray@PAVCAUserTrack@@@@UAE@XZ 004cf450 f i Libs CURE:CURETrack.obj
 0001:000ce470       ??1?$CUREArray@VCATCBParam@@@@UAE@XZ 004cf470 f i Libs CURE:CURETrack.obj
 0001:000ce490       ??_G?$CUREArray@PAVObjectTrackSet@@@@UAEPAXI@Z 004cf490 f i Libs CURE:CURETrack.obj
 0001:000ce490       ??_E?$CUREArray@PAVObjectTrackSet@@@@UAEPAXI@Z 004cf490 f i Libs CURE:CURETrack.obj
 0001:000ce4c0       ??_E?$CUREArray@PAVCameraTrackSet@@@@UAEPAXI@Z 004cf4c0 f i Libs CURE:CURETrack.obj
 0001:000ce4c0       ??_G?$CUREArray@PAVCameraTrackSet@@@@UAEPAXI@Z 004cf4c0 f i Libs CURE:CURETrack.obj
 0001:000ce4f0       ??_E?$CUREArray@PAVLightTrackSet@@@@UAEPAXI@Z 004cf4f0 f i Libs CURE:CURETrack.obj
 0001:000ce4f0       ??_G?$CUREArray@PAVLightTrackSet@@@@UAEPAXI@Z 004cf4f0 f i Libs CURE:CURETrack.obj
 0001:000ce520       ??_E?$CUREArray@PAVTargetLightTrackSet@@@@UAEPAXI@Z 004cf520 f i Libs CURE:CURETrack.obj
 0001:000ce520       ??_G?$CUREArray@PAVTargetLightTrackSet@@@@UAEPAXI@Z 004cf520 f i Libs CURE:CURETrack.obj
 0001:000ce550       ??_E?$CUREArray@PAVCAUserTrack@@@@UAEPAXI@Z 004cf550 f i Libs CURE:CURETrack.obj
 0001:000ce550       ??_G?$CUREArray@PAVCAUserTrack@@@@UAEPAXI@Z 004cf550 f i Libs CURE:CURETrack.obj
 0001:000ce580       ??_G?$CUREArray@VCATCBParam@@@@UAEPAXI@Z 004cf580 f i Libs CURE:CURETrack.obj
 0001:000ce580       ??_E?$CUREArray@VCATCBParam@@@@UAEPAXI@Z 004cf580 f i Libs CURE:CURETrack.obj
 0001:000ce5b0       ??0CUREAnimator@@QAE@PAVScene3D@@PBD@Z 004cf5b0 f   Libs CURE:CUREAnimator.obj
 0001:000cedf0       ??_GCUREAnimator@@UAEPAXI@Z 004cfdf0 f i Libs CURE:CUREAnimator.obj
 0001:000cedf0       ??_ECUREAnimator@@UAEPAXI@Z 004cfdf0 f i Libs CURE:CUREAnimator.obj
 0001:000cee10       ??1CUREAnimator@@UAE@XZ    004cfe10 f   Libs CURE:CUREAnimator.obj
 0001:000cf020       ?unlinkAll@CUREAnimator@@QAEXXZ 004d0020 f   Libs CURE:CUREAnimator.obj
 0001:000cf150       ?getLinkedSequenceIndex@CUREAnimator@@IAEJH@Z 004d0150 f   Libs CURE:CUREAnimator.obj
 0001:000cf180       ?getLinkedSequence@CUREAnimator@@QAEPAVCALinkedSequence@@H@Z 004d0180 f   Libs CURE:CUREAnimator.obj
 0001:000cf1c0       ?unlink@CUREAnimator@@QAEXH@Z 004d01c0 f   Libs CURE:CUREAnimator.obj
 0001:000cf2d0       ?fadeOutAnim@CUREAnimator@@QAEXHVCATime@@0_N@Z 004d02d0 f   Libs CURE:CUREAnimator.obj
 0001:000cf360       ?animate@CUREAnimator@@UAEXVCATime@@@Z 004d0360 f   Libs CURE:CUREAnimator.obj
 0001:000cf450       ?link@CUREAnimator@@QAEHABVCURETrack@@VCASequence@@@Z 004d0450 f   Libs CURE:CUREAnimator.obj
 0001:000cf840       ??1?$CUREArray@PAVCALinkedSequence@@@@UAE@XZ 004d0840 f i Libs CURE:CUREAnimator.obj
 0001:000cf860       ??1?$CUREDico@PAVCUREObjectAnimator@@@@QAE@XZ 004d0860 f i Libs CURE:CUREAnimator.obj
 0001:000cf890       ??1?$CUREDico@PAVCURECameraAnimator@@@@QAE@XZ 004d0890 f i Libs CURE:CUREAnimator.obj
 0001:000cf8c0       ??1?$CUREDico@PAVCURELightAnimator@@@@QAE@XZ 004d08c0 f i Libs CURE:CUREAnimator.obj
 0001:000cf8f0       ??1?$CUREDico@PAVCURETargetLightAnimator@@@@QAE@XZ 004d08f0 f i Libs CURE:CUREAnimator.obj
 0001:000cf920       ??_G?$CUREArray@PAVCALinkedSequence@@@@UAEPAXI@Z 004d0920 f i Libs CURE:CUREAnimator.obj
 0001:000cf920       ??_E?$CUREArray@PAVCALinkedSequence@@@@UAEPAXI@Z 004d0920 f i Libs CURE:CUREAnimator.obj
 0001:000cf950       ?setReservoirSize@?$CUREArray@PAVCALinkedSequence@@@@QAE_NH@Z 004d0950 f i Libs CURE:CUREAnimator.obj
 0001:000cf9f0       ?onUserEvent@CUREAnimator@@UAEXVCATime@@VCAUserEvent@@@Z 004d09f0 f i Libs CURE:CUREAnimator.obj
 0001:000cfa00       ?mergeFile@CURETrack@@QAEXPBD_N@Z 004d0a00 f   Libs CURE:CURETrack_Load.obj
 0001:000cfa80       ?readTrackChunks@CURETrack@@AAEXPAEH@Z 004d0a80 f   Libs CURE:CURETrack_Load.obj
 0001:000cfaf0       ?loadTCBParams@CURETrack@@AAEXPAEH@Z 004d0af0 f   Libs CURE:CURETrack_Load.obj
 0001:000cfbf0       ?loadTrackBool@CURETrack@@AAEXPAEH@Z 004d0bf0 f   Libs CURE:CURETrack_Load.obj
 0001:000cfcd0       ?loadTrackPoint3D@CURETrack@@AAEXPAEH@Z 004d0cd0 f   Libs CURE:CURETrack_Load.obj
 0001:000cfed0       ?loadTrackFloat@CURETrack@@AAEXPAEH@Z 004d0ed0 f   Libs CURE:CURETrack_Load.obj
 0001:000d00b0       ?loadTrackAngle3D@CURETrack@@AAEXPAEH@Z 004d10b0 f   Libs CURE:CURETrack_Load.obj
 0001:000d02f0       ?loadRange@CURETrack@@AAEXPAEH@Z 004d12f0 f   Libs CURE:CURETrack_Load.obj
 0001:000d0380       ?loadOBJ@CURETrack@@AAEXPAEH@Z 004d1380 f   Libs CURE:CURETrack_Load.obj
 0001:000d04e0       ??_EObjectTrackSet@@UAEPAXI@Z 004d14e0 f i Libs CURE:CURETrack_Load.obj
 0001:000d04e0       ??_GObjectTrackSet@@UAEPAXI@Z 004d14e0 f i Libs CURE:CURETrack_Load.obj
 0001:000d0500       ??1ObjectTrackSet@@UAE@XZ  004d1500 f i Libs CURE:CURETrack_Load.obj
 0001:000d05f0       ??1BaseTrackSet@@UAE@XZ    004d15f0 f i Libs CURE:CURETrack_Load.obj
 0001:000d0620       ??_GBaseTrackSet@@UAEPAXI@Z 004d1620 f i Libs CURE:CURETrack_Load.obj
 0001:000d0620       ??_EBaseTrackSet@@UAEPAXI@Z 004d1620 f i Libs CURE:CURETrack_Load.obj
 0001:000d0660       ?loadOBJName@CURETrack@@AAEXPAEH@Z 004d1660 f   Libs CURE:CURETrack_Load.obj
 0001:000d06c0       ?loadOBJHidden@CURETrack@@AAEXPAEH@Z 004d16c0 f   Libs CURE:CURETrack_Load.obj
 0001:000d06f0       ?loadOBJPosition@CURETrack@@AAEXPAEH@Z 004d16f0 f   Libs CURE:CURETrack_Load.obj
 0001:000d0720       ?loadOBJRotation@CURETrack@@AAEXPAEH@Z 004d1720 f   Libs CURE:CURETrack_Load.obj
 0001:000d0750       ?loadOBJScale@CURETrack@@AAEXPAEH@Z 004d1750 f   Libs CURE:CURETrack_Load.obj
 0001:000d0780       ?loadOBJMorphTrack@CURETrack@@AAEXPAEH@Z 004d1780 f   Libs CURE:CURETrack_Load.obj
 0001:000d0840       ?loadOBJMorph@CURETrack@@AAEXPAEH@Z 004d1840 f   Libs CURE:CURETrack_Load.obj
 0001:000d0880       ?loadOMNI@CURETrack@@AAEXPAEH@Z 004d1880 f   Libs CURE:CURETrack_Load.obj
 0001:000d09d0       ??_GLightTrackSet@@UAEPAXI@Z 004d19d0 f i Libs CURE:CURETrack_Load.obj
 0001:000d09d0       ??_ELightTrackSet@@UAEPAXI@Z 004d19d0 f i Libs CURE:CURETrack_Load.obj
 0001:000d09f0       ??1LightTrackSet@@UAE@XZ   004d19f0 f i Libs CURE:CURETrack_Load.obj
 0001:000d0aa0       ?loadDIRECT@CURETrack@@AAEXPAEH@Z 004d1aa0 f   Libs CURE:CURETrack_Load.obj
 0001:000d0c00       ??_GTargetLightTrackSet@@UAEPAXI@Z 004d1c00 f i Libs CURE:CURETrack_Load.obj
 0001:000d0c00       ??_ETargetLightTrackSet@@UAEPAXI@Z 004d1c00 f i Libs CURE:CURETrack_Load.obj
 0001:000d0c20       ??1TargetLightTrackSet@@UAE@XZ 004d1c20 f i Libs CURE:CURETrack_Load.obj
 0001:000d0d10       ?loadSPOT@CURETrack@@AAEXPAEH@Z 004d1d10 f   Libs CURE:CURETrack_Load.obj
 0001:000d0e70       ?loadLGTName@CURETrack@@AAEXPAEH@Z 004d1e70 f   Libs CURE:CURETrack_Load.obj
 0001:000d0ed0       ?loadLGTHidden@CURETrack@@AAEXPAEH@Z 004d1ed0 f   Libs CURE:CURETrack_Load.obj
 0001:000d0f00       ?loadLGTPosition@CURETrack@@AAEXPAEH@Z 004d1f00 f   Libs CURE:CURETrack_Load.obj
 0001:000d0f30       ?loadLGTColor@CURETrack@@AAEXPAEH@Z 004d1f30 f   Libs CURE:CURETrack_Load.obj
 0001:000d0f60       ?loadLGTPower@CURETrack@@AAEXPAEH@Z 004d1f60 f   Libs CURE:CURETrack_Load.obj
 0001:000d0f90       ?loadLGTAttenStart@CURETrack@@AAEXPAEH@Z 004d1f90 f   Libs CURE:CURETrack_Load.obj
 0001:000d0fc0       ?loadLGTAttenEnd@CURETrack@@AAEXPAEH@Z 004d1fc0 f   Libs CURE:CURETrack_Load.obj
 0001:000d0ff0       ?loadLGTTarget@CURETrack@@AAEXPAEH@Z 004d1ff0 f   Libs CURE:CURETrack_Load.obj
 0001:000d1020       ?loadLGTHotSize@CURETrack@@AAEXPAEH@Z 004d2020 f   Libs CURE:CURETrack_Load.obj
 0001:000d1050       ?loadLGTFallSize@CURETrack@@AAEXPAEH@Z 004d2050 f   Libs CURE:CURETrack_Load.obj
 0001:000d1080       ?loadCAM@CURETrack@@AAEXPAEH@Z 004d2080 f   Libs CURE:CURETrack_Load.obj
 0001:000d11e0       ??_GCameraTrackSet@@UAEPAXI@Z 004d21e0 f i Libs CURE:CURETrack_Load.obj
 0001:000d11e0       ??_ECameraTrackSet@@UAEPAXI@Z 004d21e0 f i Libs CURE:CURETrack_Load.obj
 0001:000d1200       ??1CameraTrackSet@@UAE@XZ  004d2200 f i Libs CURE:CURETrack_Load.obj
 0001:000d12d0       ?loadCAMName@CURETrack@@AAEXPAEH@Z 004d22d0 f   Libs CURE:CURETrack_Load.obj
 0001:000d1330       ?loadCAMHidden@CURETrack@@AAEXPAEH@Z 004d2330 f   Libs CURE:CURETrack_Load.obj
 0001:000d1360       ?loadCAMPosition@CURETrack@@AAEXPAEH@Z 004d2360 f   Libs CURE:CURETrack_Load.obj
 0001:000d1390       ?loadCAMTarget@CURETrack@@AAEXPAEH@Z 004d2390 f   Libs CURE:CURETrack_Load.obj
 0001:000d13c0       ?loadCAMRoll@CURETrack@@AAEXPAEH@Z 004d23c0 f   Libs CURE:CURETrack_Load.obj
 0001:000d13f0       ?loadCAMFov@CURETrack@@AAEXPAEH@Z 004d23f0 f   Libs CURE:CURETrack_Load.obj
 0001:000d1420       ?loadCAMFarClip@CURETrack@@AAEXPAEH@Z 004d2420 f   Libs CURE:CURETrack_Load.obj
 0001:000d1450       ?loadCAMFogNear@CURETrack@@AAEXPAEH@Z 004d2450 f   Libs CURE:CURETrack_Load.obj
 0001:000d1480       ?loadCAMFogFar@CURETrack@@AAEXPAEH@Z 004d2480 f   Libs CURE:CURETrack_Load.obj
 0001:000d14b0       ??1?$CUREArray@UMorphTrack@ObjectTrackSet@@@@UAE@XZ 004d24b0 f i Libs CURE:CURETrack_Load.obj
 0001:000d14d0       ?setReservoirSize@?$CUREArray@UMorphTrack@ObjectTrackSet@@@@QAE_NH@Z 004d24d0 f i Libs CURE:CURETrack_Load.obj
 0001:000d15e0       ??_G?$CUREArray@UMorphTrack@ObjectTrackSet@@@@UAEPAXI@Z 004d25e0 f i Libs CURE:CURETrack_Load.obj
 0001:000d15e0       ??_E?$CUREArray@UMorphTrack@ObjectTrackSet@@@@UAEPAXI@Z 004d25e0 f i Libs CURE:CURETrack_Load.obj
 0001:000d1610       ??_H@YGXPAXIHP6EX0@Z@Z     004d2610 f i Libs CURE:CURETrack_Load.obj
 0001:000d1640       ?setReservoirSize@?$CUREArray@VCATCBParam@@@@QAE_NH@Z 004d2640 f i Libs CURE:CURETrack_Load.obj
 0001:000d1710       ??0CURECharacter@@QAE@PAVScene3D@@PBD@Z 004d2710 f   Libs CURE:CURECharacter.obj
 0001:000d19f0       ??_GCURECharacter@@UAEPAXI@Z 004d29f0 f i Libs CURE:CURECharacter.obj
 0001:000d19f0       ??_ECURECharacter@@UAEPAXI@Z 004d29f0 f i Libs CURE:CURECharacter.obj
 0001:000d1a10       ??1CURECharacter@@UAE@XZ   004d2a10 f   Libs CURE:CURECharacter.obj
 0001:000d1a80       ?setRotationIni@CURECharacter@@QAEXVPoint3D@@@Z 004d2a80 f   Libs CURE:CURECharacter.obj
 0001:000d1ba0       ?setRotationIni@CURECharacter@@QAEXVQuaternion@@@Z 004d2ba0 f   Libs CURE:CURECharacter.obj
 0001:000d1cb0       ?getAltitude@CURECharacter@@QBEMXZ 004d2cb0 f   Libs CURE:CURECharacter.obj
 0001:000d1d00       ?getLocation@CURECharacter@@QBE?AVPoint2D@@XZ 004d2d00 f   Libs CURE:CURECharacter.obj
 0001:000d1d90       ?getPosition@CURECharacter@@QBE?AVPoint3D@@XZ 004d2d90 f   Libs CURE:CURECharacter.obj
 0001:000d1e20       ?getRotation@CURECharacter@@QBE?AVQuaternion@@XZ 004d2e20 f   Libs CURE:CURECharacter.obj
 0001:000d1f70       ?setAltitude@CURECharacter@@QAEXM@Z 004d2f70 f   Libs CURE:CURECharacter.obj
 0001:000d1fd0       ?setLocation@CURECharacter@@QAEXVPoint2D@@@Z 004d2fd0 f   Libs CURE:CURECharacter.obj
 0001:000d2040       ?setRotation@CURECharacter@@QAEXVQuaternion@@@Z 004d3040 f   Libs CURE:CURECharacter.obj
 0001:000d2160       ?setPosition@CURECharacter@@QAEXVPoint3D@@@Z 004d3160 f   Libs CURE:CURECharacter.obj
 0001:000d21b0       ?setAnimMode@CURECharacter@@QAEXW4AnimMode@1@@Z 004d31b0 f   Libs CURE:CURECharacter.obj
 0001:000d2340       ?unlinkRootNode@CURECharacter@@QAEXXZ 004d3340 f   Libs CURE:CURECharacter.obj
 0001:000d2370       ?animate@CURECharacter@@UAEXVCATime@@@Z 004d3370 f   Libs CURE:CURECharacter.obj
 0001:000d2540       ??0Scene3D@@AAE@PBDPAVWorld3D@@@Z 004d3540 f   Libs CURE:Scene3D.obj
 0001:000d2660       ??1Scene3D@@AAE@XZ         004d3660 f   Libs CURE:Scene3D.obj
 0001:000d2ac0       ?freeUnusedRessources@Scene3D@@QAEXXZ 004d3ac0 f   Libs CURE:Scene3D.obj
 0001:000d2e20       ?getMaterial@Scene3D@@QAEPAVMaterial@@PBD@Z 004d3e20 f   Libs CURE:Scene3D.obj
 0001:000d2ea0       ?getTriMesh@Scene3D@@QAEPAVTriMesh@@PBD@Z 004d3ea0 f   Libs CURE:Scene3D.obj
 0001:000d2f20       ?getObjectNode@Scene3D@@QAEPAVObjectNode@@PBD@Z 004d3f20 f   Libs CURE:Scene3D.obj
 0001:000d2fa0       ?getCameraNode@Scene3D@@QAEPAVCameraNode@@PBD@Z 004d3fa0 f   Libs CURE:Scene3D.obj
 0001:000d3020       ?getDirectLightNode@Scene3D@@QAEPAVDirectLightNode@@PBD@Z 004d4020 f   Libs CURE:Scene3D.obj
 0001:000d30a0       ?getSpotLightNode@Scene3D@@QAEPAVSpotLightNode@@PBD@Z 004d40a0 f   Libs CURE:Scene3D.obj
 0001:000d3120       ?getOmniLightNode@Scene3D@@QAEPAVOmniLightNode@@PBD@Z 004d4120 f   Libs CURE:Scene3D.obj
 0001:000d31a0       ?getNode3D@Scene3D@@QAEPAVNode3D@@PBD@Z 004d41a0 f   Libs CURE:Scene3D.obj
 0001:000d33e0       ?addMaterial@Scene3D@@QAEXPAVMaterial@@@Z 004d43e0 f   Libs CURE:Scene3D.obj
 0001:000d3550       ?addTriMesh@Scene3D@@QAEXPAVTriMesh@@@Z 004d4550 f   Libs CURE:Scene3D.obj
 0001:000d36b0       ?addObjectNode@Scene3D@@QAEXPAVObjectNode@@@Z 004d46b0 f   Libs CURE:Scene3D.obj
 0001:000d3820       ?addCameraNode@Scene3D@@QAEXPAVCameraNode@@@Z 004d4820 f   Libs CURE:Scene3D.obj
 0001:000d3990       ?addDirectLightNode@Scene3D@@QAEXPAVDirectLightNode@@@Z 004d4990 f   Libs CURE:Scene3D.obj
 0001:000d3b00       ?addSpotLightNode@Scene3D@@QAEXPAVSpotLightNode@@@Z 004d4b00 f   Libs CURE:Scene3D.obj
 0001:000d3c70       ?addOmniLightNode@Scene3D@@QAEXPAVOmniLightNode@@@Z 004d4c70 f   Libs CURE:Scene3D.obj
 0001:000d3de0       ?addNode@Scene3D@@QAEXPAVNode3D@@@Z 004d4de0 f   Libs CURE:Scene3D.obj
 0001:000d40a0       ?delMaterial@Scene3D@@QAEXPAVMaterial@@@Z 004d50a0 f   Libs CURE:Scene3D.obj
 0001:000d41a0       ?delTriMesh@Scene3D@@QAEXPAVTriMesh@@@Z 004d51a0 f   Libs CURE:Scene3D.obj
 0001:000d42a0       ?delObjectNode@Scene3D@@QAEXPAVObjectNode@@@Z 004d52a0 f   Libs CURE:Scene3D.obj
 0001:000d43a0       ?delCameraNode@Scene3D@@QAEXPAVCameraNode@@@Z 004d53a0 f   Libs CURE:Scene3D.obj
 0001:000d44a0       ?delDirectLightNode@Scene3D@@QAEXPAVDirectLightNode@@@Z 004d54a0 f   Libs CURE:Scene3D.obj
 0001:000d45a0       ?delSpotLightNode@Scene3D@@QAEXPAVSpotLightNode@@@Z 004d55a0 f   Libs CURE:Scene3D.obj
 0001:000d46a0       ?delOmniLightNode@Scene3D@@QAEXPAVOmniLightNode@@@Z 004d56a0 f   Libs CURE:Scene3D.obj
 0001:000d47a0       ?delNode@Scene3D@@QAEXPAVNode3D@@@Z 004d57a0 f   Libs CURE:Scene3D.obj
 0001:000d4980       ?removeNodes@Scene3D@@QAEXPBD@Z 004d5980 f   Libs CURE:Scene3D.obj
 0001:000d4e70       ?mergeFile@Scene3D@@QAEXPBD0PBV?$CUREArray@PBD@@@Z 004d5e70 f   Libs CURE:Scene3D.obj
 0001:000d5550       ?completeTriMeshNormals@Scene3D@@QAEXPAVTriMesh@@PAVSkinnedObjectNode@@@Z 004d6550 f   Libs CURE:Scene3D.obj
 0001:000d5ba0       ??XPoint3D@@QAEAAV0@M@Z    004d6ba0 f i Libs CURE:Scene3D.obj
 0001:000d5bd0       ??XPoint3D@@QAEAAV0@ABV0@@Z 004d6bd0 f i Libs CURE:Scene3D.obj
 0001:000d5c00       ??GPoint3D@@QBE?AV0@ABV0@@Z 004d6c00 f i Libs CURE:Scene3D.obj
 0001:000d5c50       ??TPoint3D@@QBE?AV0@ABV0@@Z 004d6c50 f i Libs CURE:Scene3D.obj
 0001:000d5cb0       ?normalize@Point3D@@QAEXXZ 004d6cb0 f i Libs CURE:Scene3D.obj
 0001:000d5d00       ?getOneOverScale@Matrix3D@@QBE?AVPoint3D@@XZ 004d6d00 f i Libs CURE:Scene3D.obj
 0001:000d5dc0       ??1?$CUREDico@PAVMaterial@@@@QAE@XZ 004d6dc0 f i Libs CURE:Scene3D.obj
 0001:000d5df0       ?indexOf@?$CUREDico@PAVMaterial@@@@QBEHPBD@Z 004d6df0 f i Libs CURE:Scene3D.obj
 0001:000d5e50       ?erase@?$CUREDico@PAVMaterial@@@@QAEXPBD@Z 004d6e50 f i Libs CURE:Scene3D.obj
 0001:000d5f20       ??1?$CUREDico@PAVTriMesh@@@@QAE@XZ 004d6f20 f i Libs CURE:Scene3D.obj
 0001:000d5f50       ?indexOf@?$CUREDico@PAVTriMesh@@@@QBEHPBD@Z 004d6f50 f i Libs CURE:Scene3D.obj
 0001:000d5fb0       ?erase@?$CUREDico@PAVTriMesh@@@@QAEXPBD@Z 004d6fb0 f i Libs CURE:Scene3D.obj
 0001:000d6080       ??1?$CUREDico@PAVObjectNode@@@@QAE@XZ 004d7080 f i Libs CURE:Scene3D.obj
 0001:000d60b0       ?indexOf@?$CUREDico@PAVObjectNode@@@@QBEHPBD@Z 004d70b0 f i Libs CURE:Scene3D.obj
 0001:000d6110       ?add@?$CUREDico@PAVObjectNode@@@@QAEHPAVObjectNode@@PBD@Z 004d7110 f i Libs CURE:Scene3D.obj
 0001:000d61e0       ??1?$CUREDico@PAVCameraNode@@@@QAE@XZ 004d71e0 f i Libs CURE:Scene3D.obj
 0001:000d6210       ?indexOf@?$CUREDico@PAVCameraNode@@@@QBEHPBD@Z 004d7210 f i Libs CURE:Scene3D.obj
 0001:000d6270       ?add@?$CUREDico@PAVCameraNode@@@@QAEHPAVCameraNode@@PBD@Z 004d7270 f i Libs CURE:Scene3D.obj
 0001:000d6340       ?erase@?$CUREDico@PAVCameraNode@@@@QAEXPBD@Z 004d7340 f i Libs CURE:Scene3D.obj
 0001:000d6410       ??1?$CUREDico@PAVDirectLightNode@@@@QAE@XZ 004d7410 f i Libs CURE:Scene3D.obj
 0001:000d6440       ?indexOf@?$CUREDico@PAVDirectLightNode@@@@QBEHPBD@Z 004d7440 f i Libs CURE:Scene3D.obj
 0001:000d64a0       ?add@?$CUREDico@PAVDirectLightNode@@@@QAEHPAVDirectLightNode@@PBD@Z 004d74a0 f i Libs CURE:Scene3D.obj
 0001:000d6570       ?erase@?$CUREDico@PAVDirectLightNode@@@@QAEXPBD@Z 004d7570 f i Libs CURE:Scene3D.obj
 0001:000d6640       ??1?$CUREDico@PAVSpotLightNode@@@@QAE@XZ 004d7640 f i Libs CURE:Scene3D.obj
 0001:000d6670       ?indexOf@?$CUREDico@PAVSpotLightNode@@@@QBEHPBD@Z 004d7670 f i Libs CURE:Scene3D.obj
 0001:000d66d0       ?add@?$CUREDico@PAVSpotLightNode@@@@QAEHPAVSpotLightNode@@PBD@Z 004d76d0 f i Libs CURE:Scene3D.obj
 0001:000d67a0       ?erase@?$CUREDico@PAVSpotLightNode@@@@QAEXPBD@Z 004d77a0 f i Libs CURE:Scene3D.obj
 0001:000d6870       ??1?$CUREDico@PAVOmniLightNode@@@@QAE@XZ 004d7870 f i Libs CURE:Scene3D.obj
 0001:000d68a0       ?indexOf@?$CUREDico@PAVOmniLightNode@@@@QBEHPBD@Z 004d78a0 f i Libs CURE:Scene3D.obj
 0001:000d6900       ?add@?$CUREDico@PAVOmniLightNode@@@@QAEHPAVOmniLightNode@@PBD@Z 004d7900 f i Libs CURE:Scene3D.obj
 0001:000d69d0       ?erase@?$CUREDico@PAVOmniLightNode@@@@QAEXPBD@Z 004d79d0 f i Libs CURE:Scene3D.obj
 0001:000d6aa0       ??1?$CUREArray@PBVMaterial@@@@UAE@XZ 004d7aa0 f i Libs CURE:Scene3D.obj
 0001:000d6ac0       ??1?$CUREArray@PBVTriMesh@@@@UAE@XZ 004d7ac0 f i Libs CURE:Scene3D.obj
 0001:000d6ae0       ??_E?$CUREArray@PBVMaterial@@@@UAEPAXI@Z 004d7ae0 f i Libs CURE:Scene3D.obj
 0001:000d6ae0       ??_G?$CUREArray@PBVMaterial@@@@UAEPAXI@Z 004d7ae0 f i Libs CURE:Scene3D.obj
 0001:000d6b10       ??_E?$CUREArray@PBVTriMesh@@@@UAEPAXI@Z 004d7b10 f i Libs CURE:Scene3D.obj
 0001:000d6b10       ??_G?$CUREArray@PBVTriMesh@@@@UAEPAXI@Z 004d7b10 f i Libs CURE:Scene3D.obj
 0001:000d6b40       ?erase@?$CUREDico@PAVMaterial@@@@QAEXH@Z 004d7b40 f i Libs CURE:Scene3D.obj
 0001:000d6bb0       ?erase@?$CUREDico@PAVTriMesh@@@@QAEXH@Z 004d7bb0 f i Libs CURE:Scene3D.obj
 0001:000d6c20       ?erase@?$CUREDico@PAVObjectNode@@@@QAEXH@Z 004d7c20 f i Libs CURE:Scene3D.obj
 0001:000d6c90       ?erase@?$CUREDico@PAVCameraNode@@@@QAEXH@Z 004d7c90 f i Libs CURE:Scene3D.obj
 0001:000d6d00       ?erase@?$CUREDico@PAVDirectLightNode@@@@QAEXH@Z 004d7d00 f i Libs CURE:Scene3D.obj
 0001:000d6d70       ?erase@?$CUREDico@PAVSpotLightNode@@@@QAEXH@Z 004d7d70 f i Libs CURE:Scene3D.obj
 0001:000d6de0       ?erase@?$CUREDico@PAVOmniLightNode@@@@QAEXH@Z 004d7de0 f i Libs CURE:Scene3D.obj
 0001:000d6e50       ?setReservoirSize@?$CUREArray@PBVMaterial@@@@QAE_NH@Z 004d7e50 f i Libs CURE:Scene3D.obj
 0001:000d6ef0       ?setReservoirSize@?$CUREArray@PBVTriMesh@@@@QAE_NH@Z 004d7ef0 f i Libs CURE:Scene3D.obj
 0001:000d6f90       ??0CameraNode@@QAE@PBDPAVNode3D@@@Z 004d7f90 f   Libs CURE:CameraNode.obj
 0001:000d7030       ??_GCameraNode@@UAEPAXI@Z  004d8030 f i Libs CURE:CameraNode.obj
 0001:000d7030       ??_ECameraNode@@UAEPAXI@Z  004d8030 f i Libs CURE:CameraNode.obj
 0001:000d7050       ??1CameraNode@@UAE@XZ      004d8050 f   Libs CURE:CameraNode.obj
 0001:000d7060       ?setPosition@CameraNode@@QAEXVPoint3D@@@Z 004d8060 f   Libs CURE:CameraNode.obj
 0001:000d70c0       ?setTarget@CameraNode@@QAEXVPoint3D@@@Z 004d80c0 f   Libs CURE:CameraNode.obj
 0001:000d7120       ?setRoll@CameraNode@@QAEXM@Z 004d8120 f   Libs CURE:CameraNode.obj
 0001:000d7150       ?setTransformation@CameraNode@@QAEXVPoint3D@@0MM@Z 004d8150 f   Libs CURE:CameraNode.obj
 0001:000d7240       ?computeObjectTM@CameraNode@@UAEXXZ 004d8240 f   Libs CURE:CameraNode.obj
 0001:000d7270       ?getClassId@CameraNode@@UBEIXZ 004d8270 f i Libs CURE:CameraNode.obj
 0001:000d7280       ??0Node3D@@QAE@PBDPAV0@@Z  004d8280 f   Libs CURE:Node3D.obj
 0001:000d72b0       ??_ENode3D@@UAEPAXI@Z      004d82b0 f i Libs CURE:Node3D.obj
 0001:000d72b0       ??_GNode3D@@UAEPAXI@Z      004d82b0 f i Libs CURE:Node3D.obj
 0001:000d72d0       ??1Node3D@@UAE@XZ          004d82d0 f   Libs CURE:Node3D.obj
 0001:000d72e0       ?setParent@Node3D@@QAEXPAV1@@Z 004d82e0 f   Libs CURE:Node3D.obj
 0001:000d72f0       ?getObjectTM@Node3D@@QAEPBVMatrix3D@@XZ 004d82f0 f   Libs CURE:Node3D.obj
 0001:000d7310       ?getNodeTM@Node3D@@QAEPBVMatrix3D@@XZ 004d8310 f   Libs CURE:Node3D.obj
 0001:000d7640       ??0LightNode@@QAE@PBDPAVNode3D@@@Z 004d8640 f   Libs CURE:LightNode.obj
 0001:000d76f0       ??_GLightNode@@UAEPAXI@Z   004d86f0 f i Libs CURE:LightNode.obj
 0001:000d76f0       ??_ELightNode@@UAEPAXI@Z   004d86f0 f i Libs CURE:LightNode.obj
 0001:000d7710       ??1LightNode@@UAE@XZ       004d8710 f   Libs CURE:LightNode.obj
 0001:000d7720       ?setPosition@LightNode@@QAEXVPoint3D@@@Z 004d8720 f   Libs CURE:LightNode.obj
 0001:000d7780       ??0OmniLightNode@@QAE@PBDPAVNode3D@@@Z 004d8780 f   Libs CURE:LightNode.obj
 0001:000d7830       ??_EOmniLightNode@@UAEPAXI@Z 004d8830 f i Libs CURE:LightNode.obj
 0001:000d7830       ??_GOmniLightNode@@UAEPAXI@Z 004d8830 f i Libs CURE:LightNode.obj
 0001:000d7850       ??1OmniLightNode@@UAE@XZ   004d8850 f   Libs CURE:LightNode.obj
 0001:000d7860       ?computeObjectTM@OmniLightNode@@UAEXXZ 004d8860 f   Libs CURE:LightNode.obj
 0001:000d78d0       ??0DirectLightNode@@QAE@PBDPAVNode3D@@@Z 004d88d0 f   Libs CURE:LightNode.obj
 0001:000d79d0       ??_EDirectLightNode@@UAEPAXI@Z 004d89d0 f i Libs CURE:LightNode.obj
 0001:000d79d0       ??_GDirectLightNode@@UAEPAXI@Z 004d89d0 f i Libs CURE:LightNode.obj
 0001:000d79f0       ??1DirectLightNode@@UAE@XZ 004d89f0 f   Libs CURE:LightNode.obj
 0001:000d7a00       ?setTarget@DirectLightNode@@QAEXVPoint3D@@@Z 004d8a00 f   Libs CURE:LightNode.obj
 0001:000d7a60       ?computeObjectTM@DirectLightNode@@UAEXXZ 004d8a60 f   Libs CURE:LightNode.obj
 0001:000d7a90       ??0SpotLightNode@@QAE@PBDPAVNode3D@@@Z 004d8a90 f   Libs CURE:LightNode.obj
 0001:000d7b90       ??_GSpotLightNode@@UAEPAXI@Z 004d8b90 f i Libs CURE:LightNode.obj
 0001:000d7b90       ??_ESpotLightNode@@UAEPAXI@Z 004d8b90 f i Libs CURE:LightNode.obj
 0001:000d7bb0       ??1SpotLightNode@@UAE@XZ   004d8bb0 f   Libs CURE:LightNode.obj
 0001:000d7bc0       ?getClassId@OmniLightNode@@UBEIXZ 004d8bc0 f i Libs CURE:LightNode.obj
 0001:000d7bd0       ?getClassId@DirectLightNode@@UBEIXZ 004d8bd0 f i Libs CURE:LightNode.obj
 0001:000d7be0       ?getClassId@SpotLightNode@@UBEIXZ 004d8be0 f i Libs CURE:LightNode.obj
 0001:000d7bf0       ??0MaterialSoft@@QAE@PBDHPAVMaterialManager@@_N@Z 004d8bf0 f   Libs CURE:MaterialSoft.obj
 0001:000d7e50       ??_GMaterialSoft@@UAEPAXI@Z 004d8e50 f i Libs CURE:MaterialSoft.obj
 0001:000d7e50       ??_EMaterialSoft@@UAEPAXI@Z 004d8e50 f i Libs CURE:MaterialSoft.obj
 0001:000d7e70       ??1MaterialSoft@@UAE@XZ    004d8e70 f   Libs CURE:MaterialSoft.obj
 0001:000d7f50       ?setTexture@MaterialSoft@@UAEXPBD@Z 004d8f50 f   Libs CURE:MaterialSoft.obj
 0001:000d80a0       ?setAmbientColor@MaterialSoft@@UAEXVPoint3D@@@Z 004d90a0 f   Libs CURE:MaterialSoft.obj
 0001:000d8190       ?setDiffuseColor@MaterialSoft@@UAEXVPoint3D@@@Z 004d9190 f   Libs CURE:MaterialSoft.obj
 0001:000d8280       ?setSpecularColor@MaterialSoft@@UAEXVPoint3D@@@Z 004d9280 f   Libs CURE:MaterialSoft.obj
 0001:000d8370       ?setShininess@MaterialSoft@@UAEXM@Z 004d9370 f   Libs CURE:MaterialSoft.obj
 0001:000d8390       ?setSelfIllum@MaterialSoft@@UAEXM@Z 004d9390 f   Libs CURE:MaterialSoft.obj
 0001:000d83b0       ?setTextureAmount@MaterialSoft@@UAEXM@Z 004d93b0 f   Libs CURE:MaterialSoft.obj
 0001:000d83d0       ?setTextureGap@MaterialSoft@@QAEX_N@Z 004d93d0 f   Libs CURE:MaterialSoft.obj
 0001:000d83e0       ?setTextureCrop@MaterialSoft@@UAEX_NHHHH@Z 004d93e0 f   Libs CURE:MaterialSoft.obj
 0001:000d8470       ?fastSetCropWindow@MaterialSoft@@QAEXHHHH@Z 004d9470 f   Libs CURE:MaterialSoft.obj
 0001:000d84e0       ?setTwoSided@MaterialSoft@@UAEX_N@Z 004d94e0 f   Libs CURE:MaterialSoft.obj
 0001:000d84f0       ?prepare@MaterialSoft@@UAEXXZ 004d94f0 f   Libs CURE:MaterialSoft.obj
 0001:000d8830       ?getTexture@MaterialSoft@@UAEPBDXZ 004d9830 f   Libs CURE:MaterialSoft.obj
 0001:000d8850       ?getAmbientColor@MaterialSoft@@UAE?AVPoint3D@@XZ 004d9850 f   Libs CURE:MaterialSoft.obj
 0001:000d8880       ?getDiffuseColor@MaterialSoft@@UAE?AVPoint3D@@XZ 004d9880 f   Libs CURE:MaterialSoft.obj
 0001:000d88b0       ?getSpecularColor@MaterialSoft@@UAE?AVPoint3D@@XZ 004d98b0 f   Libs CURE:MaterialSoft.obj
 0001:000d88e0       ?getShininess@MaterialSoft@@UAEMXZ 004d98e0 f   Libs CURE:MaterialSoft.obj
 0001:000d88f0       ?getSelfIllum@MaterialSoft@@UAEMXZ 004d98f0 f   Libs CURE:MaterialSoft.obj
 0001:000d8900       ?getTextureAmount@MaterialSoft@@UAEMXZ 004d9900 f   Libs CURE:MaterialSoft.obj
 0001:000d8910       ?getTextureCrop@MaterialSoft@@UAE_NAAH000@Z 004d9910 f   Libs CURE:MaterialSoft.obj
 0001:000d89a0       ?getTwoSided@MaterialSoft@@UAE_NXZ 004d99a0 f   Libs CURE:MaterialSoft.obj
 0001:000d89b0       ?removeTextureLightDatas@MaterialSoft@@AAEXXZ 004d99b0 f   Libs CURE:MaterialSoft.obj
 0001:000d89e0       ?removeLightDatas@MaterialSoft@@AAEXXZ 004d99e0 f   Libs CURE:MaterialSoft.obj
 0001:000d8a10       ?removeTextureDatas@MaterialSoft@@AAEXXZ 004d9a10 f   Libs CURE:MaterialSoft.obj
 0001:000d8a40       ?computeTextureDatas@MaterialSoft@@AAEXXZ 004d9a40 f   Libs CURE:MaterialSoft.obj
 0001:000d8b10       ?computeLightDatas@MaterialSoft@@AAEXXZ 004d9b10 f   Libs CURE:MaterialSoft.obj
 0001:000d8c00       ?computeTextureLightDatas@MaterialSoft@@AAEXXZ 004d9c00 f   Libs CURE:MaterialSoft.obj
 0001:000d8d60       ?makeBitmapLUTnoBlack@MaterialSoft@@AAEXXZ 004d9d60 f   Libs CURE:MaterialSoft.obj
 0001:000d8da0       ?makeLightLUTnoBlack@MaterialSoft@@AAEXXZ 004d9da0 f   Libs CURE:MaterialSoft.obj
 0001:000d8de0       ?makeTextureLightLUTnoBlack@MaterialSoft@@AAEXXZ 004d9de0 f   Libs CURE:MaterialSoft.obj
 0001:000d8e20       ??1Material@@UAE@XZ        004d9e20 f i Libs CURE:MaterialSoft.obj
 0001:000d8e30       ??_GMaterial@@UAEPAXI@Z    004d9e30 f i Libs CURE:MaterialSoft.obj
 0001:000d8e30       ??_EMaterial@@UAEPAXI@Z    004d9e30 f i Libs CURE:MaterialSoft.obj
 0001:000d8e50       ??0World3D@@QAE@H@Z        004d9e50 f   Libs CURE:World3D.obj
 0001:000d8ea0       ??_GWorld3D@@UAEPAXI@Z     004d9ea0 f i Libs CURE:World3D.obj
 0001:000d8ea0       ??_EWorld3D@@UAEPAXI@Z     004d9ea0 f i Libs CURE:World3D.obj
 0001:000d8ec0       ??1World3D@@UAE@XZ         004d9ec0 f   Libs CURE:World3D.obj
 0001:000d9030       ?createEmptyScene@World3D@@QAEPAVScene3D@@PBD@Z 004da030 f   Libs CURE:World3D.obj
 0001:000d91d0       ?deleteScene@World3D@@QAEXPBD@Z 004da1d0 f   Libs CURE:World3D.obj
 0001:000d92c0       ?deleteScene@World3D@@QAEXPAVScene3D@@@Z 004da2c0 f   Libs CURE:World3D.obj
 0001:000d93b0       ?createView@World3D@@QAEPAVView@@PBDPAVViewPort@@PAVScene3D@@PAVCameraNode@@@Z 004da3b0 f   Libs CURE:World3D.obj
 0001:000d95e0       ?deleteView@World3D@@QAEXPBD@Z 004da5e0 f   Libs CURE:World3D.obj
 0001:000d9760       ?deleteView@World3D@@QAEXPAVView@@@Z 004da760 f   Libs CURE:World3D.obj
 0001:000d98f0       ?addMaterialRef@World3D@@AAEXPAVMaterial@@@Z 004da8f0 f   Libs CURE:World3D.obj
 0001:000d9a40       ?addTriMeshRef@World3D@@AAEXPAVTriMesh@@@Z 004daa40 f   Libs CURE:World3D.obj
 0001:000d9b80       ?addViewPortRef@World3D@@AAEXPAVViewPort@@@Z 004dab80 f   Libs CURE:World3D.obj
 0001:000d9c80       ?delMaterialRef@World3D@@AAEXPAVMaterial@@@Z 004dac80 f   Libs CURE:World3D.obj
 0001:000d9d90       ?delTriMeshRef@World3D@@AAEXPAVTriMesh@@@Z 004dad90 f   Libs CURE:World3D.obj
 0001:000d9f20       ?delViewPortRef@World3D@@AAEXPAVViewPort@@@Z 004daf20 f   Libs CURE:World3D.obj
 0001:000d9fd0       ?getExistingMaterial@World3D@@QAEPAVMaterial@@PBD@Z 004dafd0 f   Libs CURE:World3D.obj
 0001:000da050       ?getExistingTriMesh@World3D@@QAEPAVTriMesh@@PBD@Z 004db050 f   Libs CURE:World3D.obj
 0001:000da0d0       ?getExistingViewPortIndex@World3D@@AAEHPAVViewPort@@@Z 004db0d0 f   Libs CURE:World3D.obj
 0001:000da100       ?getScene@World3D@@QAEPAVScene3D@@PBD@Z 004db100 f   Libs CURE:World3D.obj
 0001:000da180       ?getView@World3D@@QAEPAVView@@PBD@Z 004db180 f   Libs CURE:World3D.obj
 0001:000da200       ??1?$CUREDico@PAVScene3D@@@@QAE@XZ 004db200 f i Libs CURE:World3D.obj
 0001:000da230       ?indexOf@?$CUREDico@PAVScene3D@@@@QBEHPBD@Z 004db230 f i Libs CURE:World3D.obj
 0001:000da290       ?erase@?$CUREDico@PAVScene3D@@@@QAEXH@Z 004db290 f i Libs CURE:World3D.obj
 0001:000da300       ??1?$CUREDico@PAVView@@@@QAE@XZ 004db300 f i Libs CURE:World3D.obj
 0001:000da330       ??1?$CUREDico@UWorldMaterialRefCount@World3D@@@@QAE@XZ 004db330 f i Libs CURE:World3D.obj
 0001:000da360       ??1?$CUREDico@UWorldTriMeshRefCount@World3D@@@@QAE@XZ 004db360 f i Libs CURE:World3D.obj
 0001:000da390       ??1?$CUREArray@UWorldViewPortRefCount@World3D@@@@UAE@XZ 004db390 f i Libs CURE:World3D.obj
 0001:000da3b0       ??_G?$CUREArray@UWorldViewPortRefCount@World3D@@@@UAEPAXI@Z 004db3b0 f i Libs CURE:World3D.obj
 0001:000da3b0       ??_E?$CUREArray@UWorldViewPortRefCount@World3D@@@@UAEPAXI@Z 004db3b0 f i Libs CURE:World3D.obj
 0001:000da3e0       ?setReservoirSize@?$CUREArray@UWorldViewPortRefCount@World3D@@@@QAE_NH@Z 004db3e0 f i Libs CURE:World3D.obj
 0001:000da480       ??_EView@@EAEPAXI@Z        004db480 f i Libs CURE:World3D.obj
 0001:000da480       ??_GView@@EAEPAXI@Z        004db480 f i Libs CURE:World3D.obj
 0001:000da4a0       ?onMaterialAdded@World3D@@MAEXPAVMaterial@@PAVScene3D@@@Z 004db4a0 f i Libs CURE:World3D.obj
 0001:000da4b0       ?onTriMeshAdded@World3D@@MAEXPAVTriMesh@@PAVScene3D@@@Z 004db4b0 f i Libs CURE:World3D.obj
 0001:000da4c0       ?onNodeAdded@World3D@@MAEXPAVNode3D@@PAVScene3D@@@Z 004db4c0 f i Libs CURE:World3D.obj
 0001:000da4d0       ?onMaterialDeleting@World3D@@MAEXPAVMaterial@@PAVScene3D@@@Z 004db4d0 f i Libs CURE:World3D.obj
 0001:000da4e0       ?onTriMeshDeleting@World3D@@MAEXPAVTriMesh@@PAVScene3D@@@Z 004db4e0 f i Libs CURE:World3D.obj
 0001:000da4f0       ?onNodeDeleting@World3D@@MAEXPAVNode3D@@PAVScene3D@@@Z 004db4f0 f i Libs CURE:World3D.obj
 0001:000da500       ??0ObjectNode@@QAE@PBDPAVNode3D@@@Z 004db500 f   Libs CURE:ObjectNode.obj
 0001:000da700       ??_EObjectNode@@UAEPAXI@Z  004db700 f i Libs CURE:ObjectNode.obj
 0001:000da700       ??_GObjectNode@@UAEPAXI@Z  004db700 f i Libs CURE:ObjectNode.obj
 0001:000da720       ??1ObjectNode@@UAE@XZ      004db720 f   Libs CURE:ObjectNode.obj
 0001:000da890       ?initMatList@ObjectNode@@QAE_NHPAVMaterial@@@Z 004db890 f   Libs CURE:ObjectNode.obj
 0001:000da900       ?setPosition@ObjectNode@@QAEXVPoint3D@@@Z 004db900 f   Libs CURE:ObjectNode.obj
 0001:000da960       ?setRotation@ObjectNode@@QAEXVAngle3D@@@Z 004db960 f   Libs CURE:ObjectNode.obj
 0001:000daa80       ?setRotation@ObjectNode@@QAEXVQuaternion@@@Z 004dba80 f   Libs CURE:ObjectNode.obj
 0001:000dab30       ?setScale@ObjectNode@@QAEXVPoint3D@@@Z 004dbb30 f   Libs CURE:ObjectNode.obj
 0001:000dab90       ?setTransformation@ObjectNode@@QAEXVPoint3D@@VQuaternion@@0@Z 004dbb90 f   Libs CURE:ObjectNode.obj
 0001:000dacf0       ?lookAt@ObjectNode@@QAEXABVPoint3D@@_NV2@2M@Z 004dbcf0 f   Libs CURE:ObjectNode.obj
 0001:000db1e0       ?setPivot@ObjectNode@@QAEXVPoint3D@@@Z 004dc1e0 f   Libs CURE:ObjectNode.obj
 0001:000db200       ?cleanMorphing@ObjectNode@@IAEXXZ 004dc200 f   Libs CURE:ObjectNode.obj
 0001:000db300       ?setupMorphing@ObjectNode@@QAEXH@Z 004dc300 f   Libs CURE:ObjectNode.obj
 0001:000db580       ?getMorphTargetIndex@ObjectNode@@QAEHPBVTriMesh@@@Z 004dc580 f   Libs CURE:ObjectNode.obj
 0001:000db5b0       ?useMorphing@ObjectNode@@QAEX_N@Z 004dc5b0 f   Libs CURE:ObjectNode.obj
 0001:000db5c0       ?appendMorphTarget@ObjectNode@@QAE_NPBVTriMesh@@M@Z 004dc5c0 f   Libs CURE:ObjectNode.obj
 0001:000db730       ?setMorphTargetMesh@ObjectNode@@QAE_NHPBVTriMesh@@@Z 004dc730 f   Libs CURE:ObjectNode.obj
 0001:000db7a0       ?setMorphTargetAmount@ObjectNode@@QAEXHM@Z 004dc7a0 f   Libs CURE:ObjectNode.obj
 0001:000db900       ?setMesh@ObjectNode@@QAEXPAVTriMesh@@@Z 004dc900 f   Libs CURE:ObjectNode.obj
 0001:000db990       ?isReallyMorphed@ObjectNode@@QBE_NXZ 004dc990 f   Libs CURE:ObjectNode.obj
 0001:000db9f0       ?getBoundingSphere@ObjectNode@@QAE?AVSphere3D@@XZ 004dc9f0 f   Libs CURE:ObjectNode.obj
 0001:000dbb70       ?getMesh@ObjectNode@@QAEPBVTriMesh@@_N@Z 004dcb70 f   Libs CURE:ObjectNode.obj
 0001:000dbdf0       ?computeObjectTM@ObjectNode@@UAEXXZ 004dcdf0 f   Libs CURE:ObjectNode.obj
 0001:000dbea0       ?computeMorphedBSphere@ObjectNode@@AAEXXZ 004dcea0 f   Libs CURE:ObjectNode.obj
 0001:000dbf90       ?computeMorphedVerticesAndNormals@ObjectNode@@AAE_N_N0@Z 004dcf90 f   Libs CURE:ObjectNode.obj
 0001:000dc220       ??1?$CUREArray@PAVMorphTarget@ObjectNode@@@@UAE@XZ 004dd220 f i Libs CURE:ObjectNode.obj
 0001:000dc240       ?setReservoirSize@?$CUREArray@PAVMorphTarget@ObjectNode@@@@QAE_NH@Z 004dd240 f i Libs CURE:ObjectNode.obj
 0001:000dc2e0       ??_E?$CUREArray@PAVMorphTarget@ObjectNode@@@@UAEPAXI@Z 004dd2e0 f i Libs CURE:ObjectNode.obj
 0001:000dc2e0       ??_G?$CUREArray@PAVMorphTarget@ObjectNode@@@@UAEPAXI@Z 004dd2e0 f i Libs CURE:ObjectNode.obj
 0001:000dc310       ??DQuaternion@@QBE?AV0@ABV0@@Z 004dd310 f i Libs CURE:ObjectNode.obj
 0001:000dc3c0       ?transposedTransformVector@Matrix3D@@QBE?AVPoint3D@@ABV2@@Z 004dd3c0 f i Libs CURE:ObjectNode.obj
 0001:000dc440       ??1TriMesh@@QAE@XZ         004dd440 f i Libs CURE:ObjectNode.obj
 0001:000dc4a0       ??_GRenderableNode@@UAEPAXI@Z 004dd4a0 f i Libs CURE:ObjectNode.obj
 0001:000dc4a0       ??_ERenderableNode@@UAEPAXI@Z 004dd4a0 f i Libs CURE:ObjectNode.obj
 0001:000dc4c0       ??1RenderableNode@@UAE@XZ  004dd4c0 f i Libs CURE:ObjectNode.obj
 0001:000dc4d0       ?getClassId@ObjectNode@@UBEIXZ 004dd4d0 f i Libs CURE:ObjectNode.obj
 0001:000dc4e0       ?setPrintDebugFunc@CURECom@@SAXP6AXPBD@Z@Z 004dd4e0 f   Libs CURE:CURECom.obj
 0001:000dc4f0       ?setPrintWarningFunc@CURECom@@SAXP6AXPBD@Z@Z 004dd4f0 f   Libs CURE:CURECom.obj
 0001:000dc500       ?printDebug@CURECom@@SAXPBDZZ 004dd500 f   Libs CURE:CURECom.obj
 0001:000dc530       ?printWarning@CURECom@@SAXPBDZZ 004dd530 f   Libs CURE:CURECom.obj
 0001:000dc560       ??4CUREFString@@QAEAAV0@PBD@Z 004dd560 f   Libs CURE:CURECom.obj
 0001:000dc580       ??YCUREFString@@QAEAAV0@PBD@Z 004dd580 f   Libs CURE:CURECom.obj
 0001:000dc5a0       ??MCUREFString@@QBE_NPBD@Z 004dd5a0 f   Libs CURE:CURECom.obj
 0001:000dc5f0       ?toUpper@CUREFString@@QAEXXZ 004dd5f0 f   Libs CURE:CURECom.obj
 0001:000dc610       ?toLower@CUREFString@@QAEXXZ 004dd610 f   Libs CURE:CURECom.obj
 0001:000dc630       ?lastIndexOf@CUREFString@@QAEHD@Z 004dd630 f   Libs CURE:CURECom.obj
 0001:000dc660       ?firstIndexOf@CUREFString@@QAEHD@Z 004dd660 f   Libs CURE:CURECom.obj
 0001:000dc6a0       ?setFileSystem@CURECom@@SAXPAVCUREFileSystem@@@Z 004dd6a0 f   Libs CURE:CURECom.obj
 0001:000dc6b0       ?getFS@CURECom@@SAPAVCUREFileSystem@@XZ 004dd6b0 f   Libs CURE:CURECom.obj
 0001:000dc6c0       ?getFileSize@CUREFileSystem@@UAEHPBD@Z 004dd6c0 f   Libs CURE:CURECom.obj
 0001:000dc710       ?loadFileToMemory@CUREFileSystem@@UAEHPBDAAPAXH@Z 004dd710 f   Libs CURE:CURECom.obj
 0001:000dc900       ?releaseMemoryOfFile@CUREFileSystem@@UAEXPAX@Z 004dd900 f   Libs CURE:CURECom.obj
 0001:000dc920       ?loadImage@CUREFileSystem@@UAE_NPBDAAPAVCUREImage@@PAVCUREFString@@@Z 004dd920 f   Libs CURE:CURECom.obj
 0001:000dcb10       ?appendPathToMesh@CUREFileSystem@@UAEXPBDAAVCUREFString@@@Z 004ddb10 f   Libs CURE:CURECom.obj
 0001:000dcb30       ?appendPathToScene@CUREFileSystem@@UAEXPBDAAVCUREFString@@@Z 004ddb30 f   Libs CURE:CURECom.obj
 0001:000dcb50       ?appendPathToTrack@CUREFileSystem@@UAEXPBDAAVCUREFString@@@Z 004ddb50 f   Libs CURE:CURECom.obj
 0001:000dcb70       ?importMaterial@Scene3D@@AAEXAAVMemoryIniFile@@H@Z 004ddb70 f   Libs CURE:SceneImport.obj
 0001:000dd170       ?importCamera@Scene3D@@AAEPAVCameraNode@@AAVMemoryIniFile@@HAAPADPBD@Z 004de170 f   Libs CURE:SceneImport.obj
 0001:000dd520       ?importLight@Scene3D@@AAEPAVLightNode@@AAVMemoryIniFile@@HAAPADPBD@Z 004de520 f   Libs CURE:SceneImport.obj
 0001:000dda80       ?importObject@Scene3D@@AAEPAVObjectNode@@AAVMemoryIniFile@@HAAPADPBD@Z 004dea80 f   Libs CURE:SceneImport.obj
 0001:000de8e0       ?importTrimesh@Scene3D@@QAEPAVTriMesh@@PBD@Z 004df8e0 f   Libs CURE:SceneImport.obj
 0001:000dead0       ??0SkinnedObjectNode@@QAE@PBDPAVNode3D@@@Z 004dfad0 f   Libs CURE:SkinnedObjectNode.obj
 0001:000deb10       ??_ESkinnedObjectNode@@UAEPAXI@Z 004dfb10 f i Libs CURE:SkinnedObjectNode.obj
 0001:000deb10       ??_GSkinnedObjectNode@@UAEPAXI@Z 004dfb10 f i Libs CURE:SkinnedObjectNode.obj
 0001:000deb30       ??1SkinnedObjectNode@@UAE@XZ 004dfb30 f   Libs CURE:SkinnedObjectNode.obj
 0001:000deba0       ?getNodeTM@SkinnedObjectNode@@QAEPBVMatrix3D@@H@Z 004dfba0 f   Libs CURE:SkinnedObjectNode.obj
 0001:000debc0       ?setNumberOfParents@SkinnedObjectNode@@QAE_NH@Z 004dfbc0 f   Libs CURE:SkinnedObjectNode.obj
 0001:000dec80       ?setParentInfos@SkinnedObjectNode@@QAEXHHPAVNode3D@@@Z 004dfc80 f   Libs CURE:SkinnedObjectNode.obj
 0001:000decb0       ?getParentOfVertice@SkinnedObjectNode@@QBEHH@Z 004dfcb0 f   Libs CURE:SkinnedObjectNode.obj
 0001:000ded00       ?getClassId@SkinnedObjectNode@@UBEIXZ 004dfd00 f i Libs CURE:SkinnedObjectNode.obj
 0001:000ded10       ?initVerticesArray@TriMesh@@QAE_NH@Z 004dfd10 f   Libs CURE:TriMesh.obj
 0001:000ded70       ?initVerticesNormalsArray@TriMesh@@QAE_NXZ 004dfd70 f   Libs CURE:TriMesh.obj
 0001:000dede0       ?initMappingVerticesArray@TriMesh@@QAE_NH@Z 004dfde0 f   Libs CURE:TriMesh.obj
 0001:000dee40       ?initFacesArray@TriMesh@@QAE_NH@Z 004dfe40 f   Libs CURE:TriMesh.obj
 0001:000deea0       ?computeBoundingSphere@TriMesh@@QAEXXZ 004dfea0 f   Libs CURE:TriMesh.obj
 0001:000df270       ?computeFacesNormals@TriMesh@@QAEXXZ 004e0270 f   Libs CURE:TriMesh.obj
 0001:000df3b0       ?computeVerticesNormals@TriMesh@@QAEXXZ 004e03b0 f   Libs CURE:TriMesh.obj
 0001:000df520       ?computeMaxMatId@TriMesh@@QAEXXZ 004e0520 f   Libs CURE:TriMesh.obj
 0001:000df560       ?minimizeMaxMatId@TriMesh@@QAEXXZ 004e0560 f   Libs CURE:TriMesh.obj
 0001:000df670       ?isMorphableTo@TriMesh@@QBE_NPBV1@@Z 004e0670 f   Libs CURE:TriMesh.obj
 0001:000df6c0       ?initAsCube@TriMesh@@QAE_NVPoint3D@@MMMH@Z 004e06c0 f   Libs CURE:TriMesh.obj
 0001:000dfc70       ?initAsSphere@TriMesh@@QAE_NVPoint3D@@MMMHH@Z 004e0c70 f   Libs CURE:TriMesh.obj
 0001:000e02d0       ??0Tri3D@@QAE@HHHHHHH@Z    004e12d0 f i Libs CURE:TriMesh.obj
 0001:000e0310       ??_ECUREExternalImage@@UAEPAXI@Z 004e1310 f i Libs CURE:CUREImage.obj
 0001:000e0310       ??_GCUREExternalImage@@UAEPAXI@Z 004e1310 f i Libs CURE:CUREImage.obj
 0001:000e0340       ?getPixelARGB@CUREImage@@QBEIHH@Z 004e1340 f   Libs CURE:CUREImage.obj
 0001:000e0470       ?flipTopBottom@CUREImage@@QAEXXZ 004e1470 f   Libs CURE:CUREImage.obj
 0001:000e04a0       ?fillAlphaMask@CUREImage@@QAEXE@Z 004e14a0 f   Libs CURE:CUREImage.obj
 0001:000e0510       ?move@CUREImage@@QBE_NAAV1@_N@Z 004e1510 f   Libs CURE:CUREImage.obj
 0001:000e0fb0       ?close@CUREBufferedImage@@QAEXXZ 004e1fb0 f   Libs CURE:CUREImage.obj
 0001:000e1000       ??0CUREExternalImage@@QAE@HHHPAXHPAURGBEntry@CUREImage@@@Z 004e2000 f   Libs CURE:CUREImage.obj
 0001:000e1060       ?init@CUREBufferedImage@@QAE_NHHHH@Z 004e2060 f   Libs CURE:CUREImage.obj
 0001:000e1190       ?init@CUREBufferedImage@@QAE_NHHH@Z 004e2190 f   Libs CURE:CUREImage.obj
 0001:000e1210       ??0World3DSoft@@QAE@H_NW4RenderMethod@CPolyFiller@@@Z 004e2210 f   Libs CURE:World3DSoft.obj
 0001:000e1430       ??_EWorld3DSoft@@UAEPAXI@Z 004e2430 f i Libs CURE:World3DSoft.obj
 0001:000e1430       ??_GWorld3DSoft@@UAEPAXI@Z 004e2430 f i Libs CURE:World3DSoft.obj
 0001:000e1450       ??1World3DSoft@@UAE@XZ     004e2450 f   Libs CURE:World3DSoft.obj
 0001:000e1520       ?getStats@World3DSoft@@QBEXAAH00000@Z 004e2520 f   Libs CURE:World3DSoft.obj
 0001:000e1570       ?createDefaultMaterial@World3DSoft@@UAEPAVMaterial@@PBD@Z 004e2570 f   Libs CURE:World3DSoft.obj
 0001:000e15f0       ?createViewPort@World3DSoft@@UAEPAVViewPort@@II@Z 004e25f0 f   Libs CURE:World3DSoft.obj
 0001:000e1670       ?display@World3DSoft@@UAEXPAVView@@@Z 004e2670 f   Libs CURE:World3DSoft.obj
 0001:000e17d0       ?drawObjects@World3DSoft@@AAEXPAVScene3D@@PAVViewPortSoft@@@Z 004e27d0 f   Libs CURE:World3DSoft.obj
 0001:000e1b50       ??1?$CUREArray@PAVObjectNode@@@@UAE@XZ 004e2b50 f i Libs CURE:World3DSoft.obj
 0001:000e1b70       ?add@?$CUREArray@PAVObjectNode@@@@QAEHPAVObjectNode@@@Z 004e2b70 f i Libs CURE:World3DSoft.obj
 0001:000e1c20       ?setReservoirSize@?$CUREArray@PAVObjectNode@@@@QAE_NH@Z 004e2c20 f i Libs CURE:World3DSoft.obj
 0001:000e1cc0       ??_E?$CUREArray@PAVObjectNode@@@@UAEPAXI@Z 004e2cc0 f i Libs CURE:World3DSoft.obj
 0001:000e1cc0       ??_G?$CUREArray@PAVObjectNode@@@@UAEPAXI@Z 004e2cc0 f i Libs CURE:World3DSoft.obj
 0001:000e1cf0       ?mu_sqrt_init@MUtils@@AAEXXZ 004e2cf0 f   Libs CURE:MUtils_sqrt.obj
 0001:000e1d00       ?Sqrt@MUtils@@SAMM@Z       004e2d00 f   Libs CURE:MUtils_sqrt.obj
 0001:000e1d20       ?get3DDirectionFromViewLocation@View@@QAE?AVPoint3D@@HH@Z 004e2d20 f   Libs CURE:View.obj
 0001:000e1e20       ??0Warp@@QAE@HQAPAVCUREImage@@@Z 004e2e20 f   Libs CURE:Warp.obj
 0001:000e2010       ??_GWarp@@UAEPAXI@Z        004e3010 f i Libs CURE:Warp.obj
 0001:000e2010       ??_EWarp@@UAEPAXI@Z        004e3010 f i Libs CURE:Warp.obj
 0001:000e2030       ??0Warp@@QAE@HQAPBD@Z      004e3030 f   Libs CURE:Warp.obj
 0001:000e2120       ?constructWarpCube@Warp@@AAE_NXZ 004e3120 f   Libs CURE:Warp.obj
 0001:000e2840       ??_GTriMesh@@QAEPAXI@Z     004e3840 f i Libs CURE:Warp.obj
 0001:000e28b0       ?constructWarpMappingCoord@Warp@@AAEXXZ 004e38b0 f   Libs CURE:Warp.obj
 0001:000e29c0       ??1Warp@@UAE@XZ            004e39c0 f   Libs CURE:Warp.obj
 0001:000e2ae0       ?getMapName@Warp@@QBEPBDH@Z 004e3ae0 f   Libs CURE:Warp.obj
 0001:000e2b10       ?unloadMaps@Warp@@QAEXXZ   004e3b10 f   Libs CURE:Warp.obj
 0001:000e2b50       ?loadMaps@Warp@@QAEXXZ     004e3b50 f   Libs CURE:Warp.obj
 0001:000e2cb0       ?getNbNodes@Warp@@QBEHXZ   004e3cb0 f   Libs CURE:Warp.obj
 0001:000e2cc0       ?getNode@Warp@@QBEPAVObjectNode@@H@Z 004e3cc0 f   Libs CURE:Warp.obj
 0001:000e2cd0       ?removeNodes@Warp@@QAEXPBD@Z 004e3cd0 f   Libs CURE:Warp.obj
 0001:000e2e00       ?mergeFile@Warp@@QAEXPBD0@Z 004e3e00 f   Libs CURE:Warp.obj
 0001:000e3490       ??0CUREImage@@QAE@XZ       004e4490 f i Libs CURE:CUREImageScale.obj
 0001:000e4210       ?fitIn@CUREImage@@QBE_NAAV1@_N1@Z 004e5210 f   Libs CURE:CUREImageScale.obj
 0001:000e44a0       ??0CURELightAnimator@@QAE@PAVLightNode@@PAVScene3D@@@Z 004e54a0 f   Libs CURE:CURELightAnimator.obj
 0001:000e4650       ??1CABoolLinkedSequences@@UAE@XZ 004e5650 f i Libs CURE:CURELightAnimator.obj
 0001:000e4670       ??1CAPoint3DLinkedSequences@@UAE@XZ 004e5670 f i Libs CURE:CURELightAnimator.obj
 0001:000e4690       ??1CAFloatLinkedSequences@@UAE@XZ 004e5690 f i Libs CURE:CURELightAnimator.obj
 0001:000e46b0       ??_GCABoolLinkedSequences@@UAEPAXI@Z 004e56b0 f i Libs CURE:CURELightAnimator.obj
 0001:000e46b0       ??_ECABoolLinkedSequences@@UAEPAXI@Z 004e56b0 f i Libs CURE:CURELightAnimator.obj
 0001:000e46d0       ??_ECAPoint3DLinkedSequences@@UAEPAXI@Z 004e56d0 f i Libs CURE:CURELightAnimator.obj
 0001:000e46d0       ??_GCAPoint3DLinkedSequences@@UAEPAXI@Z 004e56d0 f i Libs CURE:CURELightAnimator.obj
 0001:000e46f0       ??_ECAFloatLinkedSequences@@UAEPAXI@Z 004e56f0 f i Libs CURE:CURELightAnimator.obj
 0001:000e46f0       ??_GCAFloatLinkedSequences@@UAEPAXI@Z 004e56f0 f i Libs CURE:CURELightAnimator.obj
 0001:000e4710       ??1CURELightAnimator@@QAE@XZ 004e5710 f   Libs CURE:CURELightAnimator.obj
 0001:000e47f0       ?saveInitialPosture@CURELightAnimator@@QAEXXZ 004e57f0 f   Libs CURE:CURELightAnimator.obj
 0001:000e4860       ?unlinkAll@CURELightAnimator@@QAEXXZ 004e5860 f   Libs CURE:CURELightAnimator.obj
 0001:000e4a10       ?unlink@CURELightAnimator@@QAEXPBVCASequence@@@Z 004e5a10 f   Libs CURE:CURELightAnimator.obj
 0001:000e4c10       ?link@CURELightAnimator@@QAEXPBVLightTrackSet@@PBVCASequence@@@Z 004e5c10 f   Libs CURE:CURELightAnimator.obj
 0001:000e4f10       ?animate@CURELightAnimator@@QAEXVCATime@@@Z 004e5f10 f   Libs CURE:CURELightAnimator.obj
 0001:000e5050       ??0CURETargetLightAnimator@@QAE@PAVDirectLightNode@@PAVScene3D@@@Z 004e6050 f   Libs CURE:CURELightAnimator.obj
 0001:000e5240       ??1CURETargetLightAnimator@@QAE@XZ 004e6240 f   Libs CURE:CURELightAnimator.obj
 0001:000e5420       ?saveInitialPosture@CURETargetLightAnimator@@QAEXXZ 004e6420 f   Libs CURE:CURELightAnimator.obj
 0001:000e54d0       ?unlinkAll@CURETargetLightAnimator@@QAEXXZ 004e64d0 f   Libs CURE:CURELightAnimator.obj
 0001:000e55e0       ?unlink@CURETargetLightAnimator@@QAEXPBVCASequence@@@Z 004e65e0 f   Libs CURE:CURELightAnimator.obj
 0001:000e5720       ?link@CURETargetLightAnimator@@QAEXPBVTargetLightTrackSet@@PBVCASequence@@@Z 004e6720 f   Libs CURE:CURELightAnimator.obj
 0001:000e5990       ?animate@CURETargetLightAnimator@@QAEXVCATime@@@Z 004e6990 f   Libs CURE:CURELightAnimator.obj
 0001:000e5a40       ?setReservoirSize@?$CUREArray@UCAPoint3DSequence@@@@QAE_NH@Z 004e6a40 f i Libs CURE:CURELightAnimator.obj
 0001:000e5ae0       ?erase@?$CUREArray@UCAFloatSequence@@@@QAEXH@Z 004e6ae0 f i Libs CURE:CURELightAnimator.obj
 0001:000e5b30       ?setReservoirSize@?$CUREArray@UCAFloatSequence@@@@QAE_NH@Z 004e6b30 f i Libs CURE:CURELightAnimator.obj
 0001:000e5bd0       ?setReservoirSize@?$CUREArray@UCABoolSequence@@@@QAE_NH@Z 004e6bd0 f i Libs CURE:CURELightAnimator.obj
 0001:000e5c70       ??_G?$CUREArray@UCAPoint3DSequence@@@@UAEPAXI@Z 004e6c70 f i Libs CURE:CURELightAnimator.obj
 0001:000e5c70       ??_E?$CUREArray@UCAPoint3DSequence@@@@UAEPAXI@Z 004e6c70 f i Libs CURE:CURELightAnimator.obj
 0001:000e5ca0       ??_G?$CUREArray@UCAFloatSequence@@@@UAEPAXI@Z 004e6ca0 f i Libs CURE:CURELightAnimator.obj
 0001:000e5ca0       ??_E?$CUREArray@UCAFloatSequence@@@@UAEPAXI@Z 004e6ca0 f i Libs CURE:CURELightAnimator.obj
 0001:000e5cd0       ??_E?$CUREArray@UCABoolSequence@@@@UAEPAXI@Z 004e6cd0 f i Libs CURE:CURELightAnimator.obj
 0001:000e5cd0       ??_G?$CUREArray@UCABoolSequence@@@@UAEPAXI@Z 004e6cd0 f i Libs CURE:CURELightAnimator.obj
 0001:000e5d00       ??0CURECameraAnimator@@QAE@PAVCameraNode@@PAVScene3D@@@Z 004e6d00 f   Libs CURE:CURECameraAnimator.obj
 0001:000e5f20       ??1CURECameraAnimator@@QAE@XZ 004e6f20 f   Libs CURE:CURECameraAnimator.obj
 0001:000e6040       ?saveInitialPosture@CURECameraAnimator@@QAEXXZ 004e7040 f   Libs CURE:CURECameraAnimator.obj
 0001:000e60d0       ?unlinkAll@CURECameraAnimator@@QAEXXZ 004e70d0 f   Libs CURE:CURECameraAnimator.obj
 0001:000e6330       ?unlink@CURECameraAnimator@@QAEXPBVCASequence@@@Z 004e7330 f   Libs CURE:CURECameraAnimator.obj
 0001:000e65f0       ?link@CURECameraAnimator@@QAEXPBVCameraTrackSet@@PBVCASequence@@@Z 004e75f0 f   Libs CURE:CURECameraAnimator.obj
 0001:000e6940       ?animate@CURECameraAnimator@@QAEXVCATime@@@Z 004e7940 f   Libs CURE:CURECameraAnimator.obj
 0001:000e6ad0       ??0?$CUREArray@UCAFloatSequence@@@@QAE@XZ 004e7ad0 f i Libs CURE:CURECameraAnimator.obj
 0001:000e6af0       ??0CUREObjectAnimator@@QAE@PAVObjectNode@@PAVScene3D@@@Z 004e7af0 f   Libs CURE:CUREObjectAnimator.obj
 0001:000e6cf0       ??1CAAngle3DLinkedSequences@@UAE@XZ 004e7cf0 f i Libs CURE:CUREObjectAnimator.obj
 0001:000e6d10       ??0CAFloatLinkedSequences@@QAE@XZ 004e7d10 f i Libs CURE:CUREObjectAnimator.obj
 0001:000e6d30       ??_GCAAngle3DLinkedSequences@@UAEPAXI@Z 004e7d30 f i Libs CURE:CUREObjectAnimator.obj
 0001:000e6d30       ??_ECAAngle3DLinkedSequences@@UAEPAXI@Z 004e7d30 f i Libs CURE:CUREObjectAnimator.obj
 0001:000e6d50       ??1CUREObjectAnimator@@QAE@XZ 004e7d50 f   Libs CURE:CUREObjectAnimator.obj
 0001:000e6e40       ?saveInitialPosture@CUREObjectAnimator@@QAEXXZ 004e7e40 f   Libs CURE:CUREObjectAnimator.obj
 0001:000e6ed0       ?unlinkAll@CUREObjectAnimator@@QAEXXZ 004e7ed0 f   Libs CURE:CUREObjectAnimator.obj
 0001:000e7050       ?unlink@CUREObjectAnimator@@QAEXPBVCASequence@@@Z 004e8050 f   Libs CURE:CUREObjectAnimator.obj
 0001:000e7220       ?link@CUREObjectAnimator@@QAEXPBVObjectTrackSet@@PBVCASequence@@@Z 004e8220 f   Libs CURE:CUREObjectAnimator.obj
 0001:000e7a80       ??0CAPoint3DSequence@@QAE@XZ 004e8a80 f i Libs CURE:CUREObjectAnimator.obj
 0001:000e7a90       ?animate@CUREObjectAnimator@@QAEXVCATime@@@Z 004e8a90 f   Libs CURE:CUREObjectAnimator.obj
 0001:000e7be0       ?setReservoirSize@?$CUREArray@UCAAngle3DSequence@@@@QAE_NH@Z 004e8be0 f i Libs CURE:CUREObjectAnimator.obj
 0001:000e7c80       ??1?$CUREArray@PAVCAFloatLinkedSequences@@@@UAE@XZ 004e8c80 f i Libs CURE:CUREObjectAnimator.obj
 0001:000e7ca0       ?setSize@?$CUREArray@PAVCAFloatLinkedSequences@@@@QAE_NH@Z 004e8ca0 f i Libs CURE:CUREObjectAnimator.obj
 0001:000e7d50       ??_E?$CUREArray@UCAAngle3DSequence@@@@UAEPAXI@Z 004e8d50 f i Libs CURE:CUREObjectAnimator.obj
 0001:000e7d50       ??_G?$CUREArray@UCAAngle3DSequence@@@@UAEPAXI@Z 004e8d50 f i Libs CURE:CUREObjectAnimator.obj
 0001:000e7d80       ??_E?$CUREArray@PAVCAFloatLinkedSequences@@@@UAEPAXI@Z 004e8d80 f i Libs CURE:CUREObjectAnimator.obj
 0001:000e7d80       ??_G?$CUREArray@PAVCAFloatLinkedSequences@@@@UAEPAXI@Z 004e8d80 f i Libs CURE:CUREObjectAnimator.obj
 0001:000e7db0       ?setReservoirSize@?$CUREArray@PAVCAFloatLinkedSequences@@@@QAE_NH@Z 004e8db0 f i Libs CURE:CUREObjectAnimator.obj
 0001:000e7e50       ??0CABoolTrack@@QAE@XZ     004e8e50 f   Libs CURE:CATrackDiscrete.obj
 0001:000e7e70       ??_GCABoolTrack@@UAEPAXI@Z 004e8e70 f i Libs CURE:CATrackDiscrete.obj
 0001:000e7e70       ??_ECABoolTrack@@UAEPAXI@Z 004e8e70 f i Libs CURE:CATrackDiscrete.obj
 0001:000e7e90       ??1CABoolTrack@@UAE@XZ     004e8e90 f   Libs CURE:CATrackDiscrete.obj
 0001:000e7ef0       ?allocKeys@CABoolTrack@@MAE_NH@Z 004e8ef0 f   Libs CURE:CATrackDiscrete.obj
 0001:000e7f50       ?setKey@CABoolTrack@@QAEXHV?$CAKey@_N@@@Z 004e8f50 f   Libs CURE:CATrackDiscrete.obj
 0001:000e7f70       ?getKey@CABoolTrack@@QBE?AV?$CAKey@_N@@H@Z 004e8f70 f   Libs CURE:CATrackDiscrete.obj
 0001:000e7f90       ?getKey@CABoolTrack@@QBE?AV?$CAKey@_N@@VCATime@@@Z 004e8f90 f   Libs CURE:CATrackDiscrete.obj
 0001:000e80b0       ??0CAUserTrack@@QAE@XZ     004e90b0 f   Libs CURE:CATrackDiscrete.obj
 0001:000e80d0       ??_ECAUserTrack@@UAEPAXI@Z 004e90d0 f i Libs CURE:CATrackDiscrete.obj
 0001:000e80d0       ??_GCAUserTrack@@UAEPAXI@Z 004e90d0 f i Libs CURE:CATrackDiscrete.obj
 0001:000e80f0       ??1CAUserTrack@@UAE@XZ     004e90f0 f   Libs CURE:CATrackDiscrete.obj
 0001:000e8150       ?allocKeys@CAUserTrack@@MAE_NH@Z 004e9150 f   Libs CURE:CATrackDiscrete.obj
 0001:000e81c0       ?setKey@CAUserTrack@@QAEXHV?$CAKey@VCAUserEvent@@@@@Z 004e91c0 f   Libs CURE:CATrackDiscrete.obj
 0001:000e81f0       ?getKey@CAUserTrack@@QBE?AV?$CAKey@VCAUserEvent@@@@H@Z 004e91f0 f   Libs CURE:CATrackDiscrete.obj
 0001:000e8220       ?getKey@CAUserTrack@@QBE?AV?$CAKey@VCAUserEvent@@@@VCATime@@@Z 004e9220 f   Libs CURE:CATrackDiscrete.obj
 0001:000e8360       ??0?$CAKey@_N@@QAE@VCATime@@_N@Z 004e9360 f i Libs CURE:CATrackDiscrete.obj
 0001:000e8380       ??0?$CAKey@VCAUserEvent@@@@QAE@VCATime@@VCAUserEvent@@@Z 004e9380 f i Libs CURE:CATrackDiscrete.obj
 0001:000e83a0       ??0CATime@@QAE@M@Z         004e93a0 f i Libs CURE:CATrackDiscrete.obj
 0001:000e83b0       ??1CATrack@@UAE@XZ         004e93b0 f i Libs CURE:CATrackDiscrete.obj
 0001:000e83c0       ??_ECATrack@@UAEPAXI@Z     004e93c0 f i Libs CURE:CATrackDiscrete.obj
 0001:000e83c0       ??_GCATrack@@UAEPAXI@Z     004e93c0 f i Libs CURE:CATrackDiscrete.obj
 0001:000e83e0       ?getClassId@CABoolTrack@@UAEEXZ 004e93e0 f i Libs CURE:CATrackDiscrete.obj
 0001:000e83f0       ?prepare@CABoolTrack@@UAEXXZ 004e93f0 f i Libs CURE:CATrackDiscrete.obj
 0001:000e8400       ?getClassId@CAUserTrack@@UAEEXZ 004e9400 f i Libs CURE:CATrackDiscrete.obj
 0001:000e8410       ?prepare@CAUserTrack@@UAEXXZ 004e9410 f i Libs CURE:CATrackDiscrete.obj
 0001:000e8420       ??0CAPoint3DTCBTrack@@QAE@XZ 004e9420 f   Libs CURE:CATrackTCB.obj
 0001:000e8440       ?getClassId@CAPoint3DTCBTrack@@UAEEXZ 004e9440 f i Libs CURE:CATrackTCB.obj
 0001:000e8450       ??_GCAPoint3DTCBTrack@@UAEPAXI@Z 004e9450 f i Libs CURE:CATrackTCB.obj
 0001:000e8450       ??_ECAPoint3DTCBTrack@@UAEPAXI@Z 004e9450 f i Libs CURE:CATrackTCB.obj
 0001:000e8470       ??1CAPoint3DTCBTrack@@UAE@XZ 004e9470 f   Libs CURE:CATrackTCB.obj
 0001:000e84d0       ??1CAPoint3DTrack@@UAE@XZ  004e94d0 f i Libs CURE:CATrackTCB.obj
 0001:000e84e0       ?allocKeys@CAPoint3DTCBTrack@@MAE_NH@Z 004e94e0 f   Libs CURE:CATrackTCB.obj
 0001:000e8560       ?setKey@CAPoint3DTCBTrack@@QAEXHVCAPoint3DTCBKey@@@Z 004e9560 f   Libs CURE:CATrackTCB.obj
 0001:000e8590       ?getKey@CAPoint3DTCBTrack@@QBEXHAAVCAPoint3DTCBKey@@@Z 004e9590 f   Libs CURE:CATrackTCB.obj
 0001:000e85c0       ?getKey@CAPoint3DTCBTrack@@UBE?AV?$CAKey@VPoint3D@@@@H@Z 004e95c0 f   Libs CURE:CATrackTCB.obj
 0001:000e8600       ?setTCBParam@CAPoint3DTCBTrack@@QAEXHVCATCBParam@@@Z 004e9600 f   Libs CURE:CATrackTCB.obj
 0001:000e8650       ?setKey@CAPoint3DTCBTrack@@UAEXHV?$CAKey@VPoint3D@@@@@Z 004e9650 f   Libs CURE:CATrackTCB.obj
 0001:000e8690       ?CompDeriv@CAPoint3DTCBTrack@@AAEXAAVCAPoint3DTCBKey@@00@Z 004e9690 f   Libs CURE:CATrackTCB.obj
 0001:000e8950       ?prepare@CAPoint3DTCBTrack@@UAEXXZ 004e9950 f   Libs CURE:CATrackTCB.obj
 0001:000e91b0       ?getValue@CAPoint3DTCBTrack@@UBE?AVPoint3D@@VCATime@@@Z 004ea1b0 f   Libs CURE:CATrackTCB.obj
 0001:000e9590       ??0CAPoint2DTCBTrack@@QAE@XZ 004ea590 f   Libs CURE:CATrackTCB.obj
 0001:000e95b0       ?getClassId@CAPoint2DTCBTrack@@UAEEXZ 004ea5b0 f i Libs CURE:CATrackTCB.obj
 0001:000e95c0       ??_ECAPoint2DTCBTrack@@UAEPAXI@Z 004ea5c0 f i Libs CURE:CATrackTCB.obj
 0001:000e95c0       ??_GCAPoint2DTCBTrack@@UAEPAXI@Z 004ea5c0 f i Libs CURE:CATrackTCB.obj
 0001:000e95e0       ??1CAPoint2DTCBTrack@@UAE@XZ 004ea5e0 f   Libs CURE:CATrackTCB.obj
 0001:000e9640       ??1CAPoint2DTrack@@UAE@XZ  004ea640 f i Libs CURE:CATrackTCB.obj
 0001:000e9650       ?allocKeys@CAPoint2DTCBTrack@@MAE_NH@Z 004ea650 f   Libs CURE:CATrackTCB.obj
 0001:000e96d0       ?setKey@CAPoint2DTCBTrack@@QAEXHVCAPoint2DTCBKey@@@Z 004ea6d0 f   Libs CURE:CATrackTCB.obj
 0001:000e9700       ?getKey@CAPoint2DTCBTrack@@QBEXHAAVCAPoint2DTCBKey@@@Z 004ea700 f   Libs CURE:CATrackTCB.obj
 0001:000e9730       ?getKey@CAPoint2DTCBTrack@@UBE?AV?$CAKey@VPoint2D@@@@H@Z 004ea730 f   Libs CURE:CATrackTCB.obj
 0001:000e9760       ?setTCBParam@CAPoint2DTCBTrack@@QAEXHVCATCBParam@@@Z 004ea760 f   Libs CURE:CATrackTCB.obj
 0001:000e97b0       ?setKey@CAPoint2DTCBTrack@@UAEXHV?$CAKey@VPoint2D@@@@@Z 004ea7b0 f   Libs CURE:CATrackTCB.obj
 0001:000e97e0       ?CompDeriv@CAPoint2DTCBTrack@@AAEXAAVCAPoint2DTCBKey@@00@Z 004ea7e0 f   Libs CURE:CATrackTCB.obj
 0001:000e9a00       ?prepare@CAPoint2DTCBTrack@@UAEXXZ 004eaa00 f   Libs CURE:CATrackTCB.obj
 0001:000e9ed0       ?getValue@CAPoint2DTCBTrack@@UBE?AVPoint2D@@VCATime@@@Z 004eaed0 f   Libs CURE:CATrackTCB.obj
 0001:000ea230       ??0CAFloatTCBTrack@@QAE@XZ 004eb230 f   Libs CURE:CATrackTCB.obj
 0001:000ea250       ?getClassId@CAFloatTCBTrack@@UAEEXZ 004eb250 f i Libs CURE:CATrackTCB.obj
 0001:000ea260       ??_ECAFloatTCBTrack@@UAEPAXI@Z 004eb260 f i Libs CURE:CATrackTCB.obj
 0001:000ea260       ??_GCAFloatTCBTrack@@UAEPAXI@Z 004eb260 f i Libs CURE:CATrackTCB.obj
 0001:000ea280       ??1CAFloatTCBTrack@@UAE@XZ 004eb280 f   Libs CURE:CATrackTCB.obj
 0001:000ea2e0       ??1CAFloatTrack@@UAE@XZ    004eb2e0 f i Libs CURE:CATrackTCB.obj
 0001:000ea2f0       ?allocKeys@CAFloatTCBTrack@@MAE_NH@Z 004eb2f0 f   Libs CURE:CATrackTCB.obj
 0001:000ea370       ?setKey@CAFloatTCBTrack@@QAEXHVCAFloatTCBKey@@@Z 004eb370 f   Libs CURE:CATrackTCB.obj
 0001:000ea390       ?getKey@CAFloatTCBTrack@@QBEXHAAVCAFloatTCBKey@@@Z 004eb390 f   Libs CURE:CATrackTCB.obj
 0001:000ea3b0       ?getKey@CAFloatTCBTrack@@UBE?AV?$CAKey@M@@H@Z 004eb3b0 f   Libs CURE:CATrackTCB.obj
 0001:000ea3e0       ?setTCBParam@CAFloatTCBTrack@@QAEXHVCATCBParam@@@Z 004eb3e0 f   Libs CURE:CATrackTCB.obj
 0001:000ea430       ?setKey@CAFloatTCBTrack@@UAEXHV?$CAKey@M@@@Z 004eb430 f   Libs CURE:CATrackTCB.obj
 0001:000ea460       ?CompDeriv@CAFloatTCBTrack@@AAEXAAVCAFloatTCBKey@@00@Z 004eb460 f   Libs CURE:CATrackTCB.obj
 0001:000ea5a0       ??HCATime@@QBE?AV0@ABV0@@Z 004eb5a0 f i Libs CURE:CATrackTCB.obj
 0001:000ea5c0       ?prepare@CAFloatTCBTrack@@UAEXXZ 004eb5c0 f   Libs CURE:CATrackTCB.obj
 0001:000ea7e0       ??GCATime@@QBE?AV0@ABV0@@Z 004eb7e0 f i Libs CURE:CATrackTCB.obj
 0001:000ea800       ??LCATime@@QBE?AV0@ABV0@@Z 004eb800 f i Libs CURE:CATrackTCB.obj
 0001:000ea850       ?getValue@CAFloatTCBTrack@@UBEMVCATime@@@Z 004eb850 f   Libs CURE:CATrackTCB.obj
 0001:000eaad0       ??0CAAngle3DTCBTrack@@QAE@XZ 004ebad0 f   Libs CURE:CATrackTCB.obj
 0001:000eaaf0       ?getClassId@CAAngle3DTCBTrack@@UAEEXZ 004ebaf0 f i Libs CURE:CATrackTCB.obj
 0001:000eab00       ??_ECAAngle3DTCBTrack@@UAEPAXI@Z 004ebb00 f i Libs CURE:CATrackTCB.obj
 0001:000eab00       ??_GCAAngle3DTCBTrack@@UAEPAXI@Z 004ebb00 f i Libs CURE:CATrackTCB.obj
 0001:000eab20       ??1CAAngle3DTCBTrack@@UAE@XZ 004ebb20 f   Libs CURE:CATrackTCB.obj
 0001:000eab80       ??1CAAngle3DTrack@@UAE@XZ  004ebb80 f i Libs CURE:CATrackTCB.obj
 0001:000eab90       ?allocKeys@CAAngle3DTCBTrack@@MAE_NH@Z 004ebb90 f   Libs CURE:CATrackTCB.obj
 0001:000eac10       ?setKey@CAAngle3DTCBTrack@@QAEXHVCAAngle3DTCBKey@@@Z 004ebc10 f   Libs CURE:CATrackTCB.obj
 0001:000eacc0       ?getKey@CAAngle3DTCBTrack@@QBEXHAAVCAAngle3DTCBKey@@@Z 004ebcc0 f   Libs CURE:CATrackTCB.obj
 0001:000eacf0       ?getKey@CAAngle3DTCBTrack@@UBE?AV?$CAKey@VAngle3D@@@@H@Z 004ebcf0 f   Libs CURE:CATrackTCB.obj
 0001:000ead50       ?setTCBParam@CAAngle3DTCBTrack@@QAEXHVCATCBParam@@@Z 004ebd50 f   Libs CURE:CATrackTCB.obj
 0001:000eada0       ?setKey@CAAngle3DTCBTrack@@UAEXHV?$CAKey@VAngle3D@@@@@Z 004ebda0 f   Libs CURE:CATrackTCB.obj
 0001:000eade0       ?CompAB@CAAngle3DTCBTrack@@AAEXPAVCAAngle3DTCBKey@@00@Z 004ebde0 f   Libs CURE:CATrackTCB.obj
 0001:000eb180       ?prepare@CAAngle3DTCBTrack@@UAEXXZ 004ec180 f   Libs CURE:CATrackTCB.obj
 0001:000eb340       ?getValue@CAAngle3DTCBTrack@@UBE?AVQuaternion@@VCATime@@@Z 004ec340 f   Libs CURE:CATrackTCB.obj
 0001:000eb770       ??0CAPoint3DLinearTrack@@QAE@XZ 004ec770 f   Libs CURE:CATrackLinear.obj
 0001:000eb790       ?getClassId@CAPoint3DLinearTrack@@UAEEXZ 004ec790 f i Libs CURE:CATrackLinear.obj
 0001:000eb7a0       ??_ECAPoint3DLinearTrack@@UAEPAXI@Z 004ec7a0 f i Libs CURE:CATrackLinear.obj
 0001:000eb7a0       ??_GCAPoint3DLinearTrack@@UAEPAXI@Z 004ec7a0 f i Libs CURE:CATrackLinear.obj
 0001:000eb7c0       ??1CAPoint3DLinearTrack@@UAE@XZ 004ec7c0 f   Libs CURE:CATrackLinear.obj
 0001:000eb820       ?allocKeys@CAPoint3DLinearTrack@@MAE_NH@Z 004ec820 f   Libs CURE:CATrackLinear.obj
 0001:000eb880       ?setKey@CAPoint3DLinearTrack@@QAEXHVCAPoint3DLinearKey@@@Z 004ec880 f   Libs CURE:CATrackLinear.obj
 0001:000eb8b0       ?getKey@CAPoint3DLinearTrack@@QBEXHAAVCAPoint3DLinearKey@@@Z 004ec8b0 f   Libs CURE:CATrackLinear.obj
 0001:000eb8e0       ?getKey@CAPoint3DLinearTrack@@UBE?AV?$CAKey@VPoint3D@@@@H@Z 004ec8e0 f   Libs CURE:CATrackLinear.obj
 0001:000eb920       ?setKey@CAPoint3DLinearTrack@@UAEXHV?$CAKey@VPoint3D@@@@@Z 004ec920 f   Libs CURE:CATrackLinear.obj
 0001:000eb960       ?prepare@CAPoint3DLinearTrack@@UAEXXZ 004ec960 f   Libs CURE:CATrackLinear.obj
 0001:000eba50       ?getValue@CAPoint3DLinearTrack@@UBE?AVPoint3D@@VCATime@@@Z 004eca50 f   Libs CURE:CATrackLinear.obj
 0001:000ebc40       ??0CAPoint2DLinearTrack@@QAE@XZ 004ecc40 f   Libs CURE:CATrackLinear.obj
 0001:000ebc60       ?getClassId@CAPoint2DLinearTrack@@UAEEXZ 004ecc60 f i Libs CURE:CATrackLinear.obj
 0001:000ebc70       ??_ECAPoint2DLinearTrack@@UAEPAXI@Z 004ecc70 f i Libs CURE:CATrackLinear.obj
 0001:000ebc70       ??_GCAPoint2DLinearTrack@@UAEPAXI@Z 004ecc70 f i Libs CURE:CATrackLinear.obj
 0001:000ebc90       ??1CAPoint2DLinearTrack@@UAE@XZ 004ecc90 f   Libs CURE:CATrackLinear.obj
 0001:000ebcf0       ?allocKeys@CAPoint2DLinearTrack@@MAE_NH@Z 004eccf0 f   Libs CURE:CATrackLinear.obj
 0001:000ebd50       ?setKey@CAPoint2DLinearTrack@@QAEXHVCAPoint2DLinearKey@@@Z 004ecd50 f   Libs CURE:CATrackLinear.obj
 0001:000ebd70       ?getKey@CAPoint2DLinearTrack@@QBEXHAAVCAPoint2DLinearKey@@@Z 004ecd70 f   Libs CURE:CATrackLinear.obj
 0001:000ebd90       ?getKey@CAPoint2DLinearTrack@@UBE?AV?$CAKey@VPoint2D@@@@H@Z 004ecd90 f   Libs CURE:CATrackLinear.obj
 0001:000ebdc0       ?setKey@CAPoint2DLinearTrack@@UAEXHV?$CAKey@VPoint2D@@@@@Z 004ecdc0 f   Libs CURE:CATrackLinear.obj
 0001:000ebdf0       ?prepare@CAPoint2DLinearTrack@@UAEXXZ 004ecdf0 f   Libs CURE:CATrackLinear.obj
 0001:000ebeb0       ?getValue@CAPoint2DLinearTrack@@UBE?AVPoint2D@@VCATime@@@Z 004eceb0 f   Libs CURE:CATrackLinear.obj
 0001:000ec050       ??0CAFloatLinearTrack@@QAE@XZ 004ed050 f   Libs CURE:CATrackLinear.obj
 0001:000ec070       ?getClassId@CAFloatLinearTrack@@UAEEXZ 004ed070 f i Libs CURE:CATrackLinear.obj
 0001:000ec080       ??_ECAFloatLinearTrack@@UAEPAXI@Z 004ed080 f i Libs CURE:CATrackLinear.obj
 0001:000ec080       ??_GCAFloatLinearTrack@@UAEPAXI@Z 004ed080 f i Libs CURE:CATrackLinear.obj
 0001:000ec0a0       ??1CAFloatLinearTrack@@UAE@XZ 004ed0a0 f   Libs CURE:CATrackLinear.obj
 0001:000ec100       ?allocKeys@CAFloatLinearTrack@@MAE_NH@Z 004ed100 f   Libs CURE:CATrackLinear.obj
 0001:000ec160       ?setKey@CAFloatLinearTrack@@QAEXHVCAFloatLinearKey@@@Z 004ed160 f   Libs CURE:CATrackLinear.obj
 0001:000ec190       ?getKey@CAFloatLinearTrack@@QBEXHAAVCAFloatLinearKey@@@Z 004ed190 f   Libs CURE:CATrackLinear.obj
 0001:000ec1c0       ?getKey@CAFloatLinearTrack@@UBE?AV?$CAKey@M@@H@Z 004ed1c0 f   Libs CURE:CATrackLinear.obj
 0001:000ec1f0       ?setKey@CAFloatLinearTrack@@UAEXHV?$CAKey@M@@@Z 004ed1f0 f   Libs CURE:CATrackLinear.obj
 0001:000ec220       ?prepare@CAFloatLinearTrack@@UAEXXZ 004ed220 f   Libs CURE:CATrackLinear.obj
 0001:000ec280       ?getValue@CAFloatLinearTrack@@UBEMVCATime@@@Z 004ed280 f   Libs CURE:CATrackLinear.obj
 0001:000ec3b0       ??0CAAngle3DLinearTrack@@QAE@XZ 004ed3b0 f   Libs CURE:CATrackLinear.obj
 0001:000ec3d0       ?getClassId@CAAngle3DLinearTrack@@UAEEXZ 004ed3d0 f i Libs CURE:CATrackLinear.obj
 0001:000ec3e0       ??_GCAAngle3DLinearTrack@@UAEPAXI@Z 004ed3e0 f i Libs CURE:CATrackLinear.obj
 0001:000ec3e0       ??_ECAAngle3DLinearTrack@@UAEPAXI@Z 004ed3e0 f i Libs CURE:CATrackLinear.obj
 0001:000ec400       ??1CAAngle3DLinearTrack@@UAE@XZ 004ed400 f   Libs CURE:CATrackLinear.obj
 0001:000ec460       ?allocKeys@CAAngle3DLinearTrack@@MAE_NH@Z 004ed460 f   Libs CURE:CATrackLinear.obj
 0001:000ec4c0       ?setKey@CAAngle3DLinearTrack@@QAEXHVCAAngle3DLinearKey@@@Z 004ed4c0 f   Libs CURE:CATrackLinear.obj
 0001:000ec570       ?getKey@CAAngle3DLinearTrack@@QBEXHAAVCAAngle3DLinearKey@@@Z 004ed570 f   Libs CURE:CATrackLinear.obj
 0001:000ec590       ?getKey@CAAngle3DLinearTrack@@UBE?AV?$CAKey@VAngle3D@@@@H@Z 004ed590 f   Libs CURE:CATrackLinear.obj
 0001:000ec5e0       ?setKey@CAAngle3DLinearTrack@@UAEXHV?$CAKey@VAngle3D@@@@@Z 004ed5e0 f   Libs CURE:CATrackLinear.obj
 0001:000ec620       ?prepare@CAAngle3DLinearTrack@@UAEXXZ 004ed620 f   Libs CURE:CATrackLinear.obj
 0001:000ec7b0       ?getValue@CAAngle3DLinearTrack@@UBE?AVQuaternion@@VCATime@@@Z 004ed7b0 f   Libs CURE:CATrackLinear.obj
 0001:000eca40       ??0MemoryIniFile@@QAE@PAD@Z 004eda40 f   Libs CURE:MemoryIniFile.obj
 0001:000ecb00       ??_EMemoryIniFile@@UAEPAXI@Z 004edb00 f i Libs CURE:MemoryIniFile.obj
 0001:000ecb00       ??_GMemoryIniFile@@UAEPAXI@Z 004edb00 f i Libs CURE:MemoryIniFile.obj
 0001:000ecb30       ??1MemoryIniFile@@UAE@XZ   004edb30 f   Libs CURE:MemoryIniFile.obj
 0001:000ecb50       ?stringEquals@MemoryIniFile@@AAE_NPBDUMIF_SECTION@1@@Z 004edb50 f   Libs CURE:MemoryIniFile.obj
 0001:000ecbd0       ?getKeyDatasPtr@MemoryIniFile@@AAEPADPBD0@Z 004edbd0 f   Libs CURE:MemoryIniFile.obj
 0001:000ecdb0       ?getInt@MemoryIniFile@@QAE_NPBD0AAH@Z 004eddb0 f   Libs CURE:MemoryIniFile.obj
 0001:000ece10       ?getBool@MemoryIniFile@@QAE_NPBD0AA_N@Z 004ede10 f   Libs CURE:MemoryIniFile.obj
 0001:000ece70       ?getString@MemoryIniFile@@QAE_NPBD0PADH@Z 004ede70 f   Libs CURE:MemoryIniFile.obj
 0001:000ecee0       ?getFloat@MemoryIniFile@@QAE_NPBD0AAM@Z 004edee0 f   Libs CURE:MemoryIniFile.obj
 0001:000ecf40       ?get2Float@MemoryIniFile@@QAE_NPBD0AAM1@Z 004edf40 f   Libs CURE:MemoryIniFile.obj
 0001:000ecfa0       ?get3Float@MemoryIniFile@@QAE_NPBD0AAM11@Z 004edfa0 f   Libs CURE:MemoryIniFile.obj
 0001:000ed000       ?get4Float@MemoryIniFile@@QAE_NPBD0AAM111@Z 004ee000 f   Libs CURE:MemoryIniFile.obj
 0001:000ed070       ??0MaterialManager@@QAE@_N@Z 004ee070 f   Libs CURE:MaterialManager.obj
 0001:000ed1c0       ??1MaterialManager@@QAE@XZ 004ee1c0 f   Libs CURE:MaterialManager.obj
 0001:000ed260       ?lock@MaterialManager@@QAEXXZ 004ee260 f   Libs CURE:MaterialManager.obj
 0001:000ed270       ?unlock@MaterialManager@@QAE_NXZ 004ee270 f   Libs CURE:MaterialManager.obj
 0001:000ed280       ?unlockTextureDatas@MaterialManager@@QAEXPAE@Z 004ee280 f   Libs CURE:MaterialManager.obj
 0001:000ed360       ?unlockLightDatas@MaterialManager@@QAEXPAX@Z 004ee360 f   Libs CURE:MaterialManager.obj
 0001:000ed400       ?unlockTextureLightDatas@MaterialManager@@QAEXPAX@Z 004ee400 f   Libs CURE:MaterialManager.obj
 0001:000ed4b0       ?findTextureResource@MaterialManager@@AAEPAVTextureResource@@PBDH@Z 004ee4b0 f   Libs CURE:MaterialManager.obj
 0001:000ed540       ?findLightResource@MaterialManager@@AAEPAVLightResource@@VPoint3D@@00MMH@Z 004ee540 f   Libs CURE:MaterialManager.obj
 0001:000ed790       ?findTextureLightResource@MaterialManager@@AAEPAVTextureLightResource@@PBVTextureResource@@VPoint3D@@11MMMH@Z 004ee790 f   Libs CURE:MaterialManager.obj
 0001:000edae0       ?lockTextureDatas@MaterialManager@@QAEXPBDAAPAE1HAAPAX@Z 004eeae0 f   Libs CURE:MaterialManager.obj
 0001:000edeb0       ?lockLightDatas@MaterialManager@@QAEXVPoint3D@@00MMHAAPAX@Z 004eeeb0 f   Libs CURE:MaterialManager.obj
 0001:000ee120       ?lockTextureLightDatas@MaterialManager@@QAEXPBDVPoint3D@@11MMMHAAPAX@Z 004ef120 f   Libs CURE:MaterialManager.obj
 0001:000ee4f0       ??1?$CUREArray@PAVTextureResource@@@@UAE@XZ 004ef4f0 f i Libs CURE:MaterialManager.obj
 0001:000ee510       ??1?$CUREArray@PAVLightResource@@@@UAE@XZ 004ef510 f i Libs CURE:MaterialManager.obj
 0001:000ee530       ??1?$CUREArray@PAVTextureLightResource@@@@UAE@XZ 004ef530 f i Libs CURE:MaterialManager.obj
 0001:000ee550       ??_G?$CUREArray@PAVTextureResource@@@@UAEPAXI@Z 004ef550 f i Libs CURE:MaterialManager.obj
 0001:000ee550       ??_E?$CUREArray@PAVTextureResource@@@@UAEPAXI@Z 004ef550 f i Libs CURE:MaterialManager.obj
 0001:000ee580       ??_E?$CUREArray@PAVLightResource@@@@UAEPAXI@Z 004ef580 f i Libs CURE:MaterialManager.obj
 0001:000ee580       ??_G?$CUREArray@PAVLightResource@@@@UAEPAXI@Z 004ef580 f i Libs CURE:MaterialManager.obj
 0001:000ee5b0       ??_E?$CUREArray@PAVTextureLightResource@@@@UAEPAXI@Z 004ef5b0 f i Libs CURE:MaterialManager.obj
 0001:000ee5b0       ??_G?$CUREArray@PAVTextureLightResource@@@@UAEPAXI@Z 004ef5b0 f i Libs CURE:MaterialManager.obj
 0001:000ee5e0       ?loadTGA@CUREFileSystem@@QAE_NPBDAAPAVCUREImage@@@Z 004ef5e0 f   Libs CURE:ImageLoadTGA.obj
 0001:000ee860       ?loadJPG@CUREFileSystem@@QAE_NPBDHAAPAVCUREImage@@@Z 004ef860 f   Libs CURE:ImageLoadJPG.obj
 0001:000eed10       ??0CUREBufferedImage@@QAE@XZ 004efd10 f i Libs CURE:ImageLoadJPG.obj
 0001:000eed30       ?loadBMP@CUREFileSystem@@QAE_NPBDAAPAVCUREImage@@@Z 004efd30 f   Libs CURE:ImageLoadBMP.obj
 0001:000eef40       ?loadFile@TriMesh@@QAEXPBD@Z 004eff40 f   Libs CURE:TriMeshImport.obj
 0001:000ef430       ??1MemoryChunkFile@@UAE@XZ 004f0430 f i Libs CURE:TriMeshImport.obj
 0001:000ef440       ??_GMemoryChunkFile@@UAEPAXI@Z 004f0440 f i Libs CURE:TriMeshImport.obj
 0001:000ef440       ??_EMemoryChunkFile@@UAEPAXI@Z 004f0440 f i Libs CURE:TriMeshImport.obj
 0001:000ef460       ?GetPixelRGB@MyImageOctQuant@@UAEIHH@Z 004f0460 f i Libs CURE:CUREImageQuant.obj
 0001:000ef490       ?SetPaletteColor@MyImageOctQuant@@UAEXHI@Z 004f0490 f i Libs CURE:CUREImageQuant.obj
 0001:000ef4f0       ?SetPixelIndex@MyImageOctQuant@@UAEXHHH@Z 004f04f0 f i Libs CURE:CUREImageQuant.obj
 0001:000ef520       ?quantize@CUREImage@@QBE_NAAV1@H_N@Z 004f0520 f   Libs CURE:CUREImageQuant.obj
 0001:000ef680       ??0CPolyFiller@@QAE@W4RenderMethod@0@@Z 004f0680 f   Libs CURE:PolyFiller.obj
 0001:000ef9c0       ??_GCPolyFiller@@UAEPAXI@Z 004f09c0 f i Libs CURE:PolyFiller.obj
 0001:000ef9c0       ??_ECPolyFiller@@UAEPAXI@Z 004f09c0 f i Libs CURE:PolyFiller.obj
 0001:000efa30       ??1CPolyFiller@@UAE@XZ     004f0a30 f   Libs CURE:PolyFiller.obj
 0001:000efa90       ?setRenderMethod@CPolyFiller@@QAEXW4RenderMethod@1@@Z 004f0a90 f   Libs CURE:PolyFiller.obj
 0001:000efab0       ?drawPolygon@CPolyFiller@@QAEXQAUPolyPoint2D@@ABVCPolyWrapper@@@Z 004f0ab0 f   Libs CURE:PolyFiller.obj
 0001:000efd00       ?drawScanLineG@CPolyWrapper@@UBEXXZ 004f0d00 f i Libs CURE:PolyFiller.obj
 0001:000efd10       ?drawScanLineC@CPolyWrapper@@UBEXXZ 004f0d10 f i Libs CURE:PolyFiller.obj
 0001:000efd20       ?drawScanLineGC@CPolyWrapper@@UBEXXZ 004f0d20 f i Libs CURE:PolyFiller.obj
 0001:000efd30       ?drawScanLineAsm@CPolyWrapper@@UBEXXZ 004f0d30 f i Libs CURE:PolyFiller.obj
 0001:000efd40       ?drawScanLineAsmG@CPolyWrapper@@UBEXXZ 004f0d40 f i Libs CURE:PolyFiller.obj
 0001:000efd50       ?drawScanLineAsmC@CPolyWrapper@@UBEXXZ 004f0d50 f i Libs CURE:PolyFiller.obj
 0001:000efd60       ?drawScanLineAsmGC@CPolyWrapper@@UBEXXZ 004f0d60 f i Libs CURE:PolyFiller.obj
 0001:000efd70       ?drawScanLine32@CPolyWrapper@@UBEXXZ 004f0d70 f i Libs CURE:PolyFiller.obj
 0001:000efd80       ?drawScanLineG32@CPolyWrapper@@UBEXXZ 004f0d80 f i Libs CURE:PolyFiller.obj
 0001:000efd90       ?drawScanLineC32@CPolyWrapper@@UBEXXZ 004f0d90 f i Libs CURE:PolyFiller.obj
 0001:000efda0       ?drawScanLineGC32@CPolyWrapper@@UBEXXZ 004f0da0 f i Libs CURE:PolyFiller.obj
 0001:000efdb0       ??0CPolyWrapper@@QAE@XZ    004f0db0 f i Libs CURE:PolyFiller.obj
 0001:000efe10       ?drawScanLine@CPolyWrapper@@UBEXXZ 004f0e10 f i Libs CURE:PolyFiller.obj
 0001:000efe20       ??0CPolyWrapper_Flat_Additif@@QAE@XZ 004f0e20 f i Libs CURE:PolyFiller.obj
 0001:000efe60       ??0CPolyWrapper_ArbitraryTextureAlone_Simple@@QAE@XZ 004f0e60 f i Libs CURE:PolyFiller.obj
 0001:000efea0       ??_9@$BDM@AE               004f0ea0 f i Libs CURE:PolyFiller.obj
 0001:000efeb0       ??_9@$BBM@AE               004f0eb0 f i Libs CURE:PolyFiller.obj
 0001:000efec0       ??_9@$BEA@AE               004f0ec0 f i Libs CURE:PolyFiller.obj
 0001:000efed0       ??_9@$BCA@AE               004f0ed0 f i Libs CURE:PolyFiller.obj
 0001:000efee0       ??_9@$BCE@AE               004f0ee0 f i Libs CURE:PolyFiller.obj
 0001:000efef0       ??_9@$BCI@AE               004f0ef0 f i Libs CURE:PolyFiller.obj
 0001:000eff00       ??_9@$BCM@AE               004f0f00 f i Libs CURE:PolyFiller.obj
 0001:000eff10       ??_9@$BDA@AE               004f0f10 f i Libs CURE:PolyFiller.obj
 0001:000eff20       ??_9@$BDE@AE               004f0f20 f i Libs CURE:PolyFiller.obj
 0001:000eff30       ??_9@$BBE@AE               004f0f30 f i Libs CURE:PolyFiller.obj
 0001:000eff40       ??_9@$BDI@AE               004f0f40 f i Libs CURE:PolyFiller.obj
 0001:000eff50       ??_9@$BBI@AE               004f0f50 f i Libs CURE:PolyFiller.obj
 0001:000eff60       ??0ViewPortSoft@@QAE@IIHPAVCPolyFiller@@@Z 004f0f60 f   Libs CURE:ViewPortSoft.obj
 0001:000f02f0       ??_EViewPortSoft@@UAEPAXI@Z 004f12f0 f i Libs CURE:ViewPortSoft.obj
 0001:000f02f0       ??_GViewPortSoft@@UAEPAXI@Z 004f12f0 f i Libs CURE:ViewPortSoft.obj
 0001:000f0310       ??0VerticesTransformerCoeffs@ViewPortSoft@@QAE@XZ 004f1310 f i Libs CURE:ViewPortSoft.obj
 0001:000f0320       ??1ViewPortSoft@@UAE@XZ    004f1320 f   Libs CURE:ViewPortSoft.obj
 0001:000f03d0       ?viewSizeChanged@ViewPortSoft@@MAEXXZ 004f13d0 f   Libs CURE:ViewPortSoft.obj
 0001:000f0540       ?setViewDevice@ViewPortSoft@@UAEXPAXI@Z 004f1540 f   Libs CURE:ViewPortSoft.obj
 0001:000f0560       ?beginDrawing@ViewPortSoft@@QAEXXZ 004f1560 f   Libs CURE:ViewPortSoft.obj
 0001:000f05a0       ?endDrawing@ViewPortSoft@@QAEXXZ 004f15a0 f   Libs CURE:ViewPortSoft.obj
 0001:000f05e0       ?setupCamera@ViewPortSoft@@QAEXPAVCameraNode@@@Z 004f15e0 f   Libs CURE:ViewPortSoft.obj
 0001:000f06e0       ?resetLights@ViewPortSoft@@QAEXXZ 004f16e0 f   Libs CURE:ViewPortSoft.obj
 0001:000f0700       ?addDirectLight@ViewPortSoft@@QAEXPAVDirectLightNode@@@Z 004f1700 f   Libs CURE:ViewPortSoft.obj
 0001:000f08e0       ?addSpotLight@ViewPortSoft@@QAEXPAVSpotLightNode@@@Z 004f18e0 f   Libs CURE:ViewPortSoft.obj
 0001:000f0ad0       ?addOmniLight@ViewPortSoft@@QAEXPAVOmniLightNode@@@Z 004f1ad0 f   Libs CURE:ViewPortSoft.obj
 0001:000f0ba0       ?drawObject@ViewPortSoft@@QAEXPAVObjectNode@@@Z 004f1ba0 f   Libs CURE:ViewPortSoft.obj
 0001:000f1310       ??1ViewPort@@UAE@XZ        004f2310 f i Libs CURE:ViewPortSoft.obj
 0001:000f1320       ??_GViewPort@@UAEPAXI@Z    004f2320 f i Libs CURE:ViewPortSoft.obj
 0001:000f1320       ??_EViewPort@@UAEPAXI@Z    004f2320 f i Libs CURE:ViewPortSoft.obj
 0001:000f1340       ?getWarp@ViewPortSoft@@UBEPAVWarp@@XZ 004f2340 f i Libs CURE:ViewPortSoft.obj
 0001:000f1350       ?willDrawWarp@ViewPortSoft@@UBE_NXZ 004f2350 f i Libs CURE:ViewPortSoft.obj
 0001:000f1370       ?getWarpMode@ViewPortSoft@@UBE?AW4WarpRenderMode@@XZ 004f2370 f i Libs CURE:ViewPortSoft.obj
 0001:000f1380       ?fillBackground@ViewPortSoft@@QAEXVPoint3D@@@Z 004f2380 f   Libs CURE:vps_Background.obj
 0001:000f1500       ?setWarpMode@ViewPortSoft@@UAEXW4WarpRenderMode@@@Z 004f2500 f   Libs CURE:vps_Background.obj
 0001:000f1520       ?setWarp@ViewPortSoft@@UAE_NPAVWarp@@@Z 004f2520 f   Libs CURE:vps_Background.obj
 0001:000f1570       ?drawWarpMaps@ViewPortSoft@@QAEXXZ 004f2570 f   Libs CURE:vps_Background.obj
 0001:000f1b90       ?drawWarp3DMask@ViewPortSoft@@QAEXXZ 004f2b90 f   Libs CURE:vps_Background.obj
 0001:000f1bf0       ?getSequence@CABoolLinkedSequences@@QAEPBUCABoolSequence@@VCATime@@@Z 004f2bf0 f   Libs CURE:CASequence.obj
 0001:000f1c90       ?getSequence@CAUserLinkedSequences@@QAEPBUCAUserSequence@@VCATime@@@Z 004f2c90 f   Libs CURE:CASequence.obj
 0001:000f1d30       ?getAnimatedValueFromIndex@CAPoint3DLinkedSequences@@QAE?AVPoint3D@@VCATime@@H@Z 004f2d30 f   Libs CURE:CASequence.obj
 0001:000f2120       ?getAnimatedValueFromIndex@CAPoint2DLinkedSequences@@QAE?AVPoint2D@@VCATime@@H@Z 004f3120 f   Libs CURE:CASequence.obj
 0001:000f2400       ?getAnimatedValueFromIndex@CAFloatLinkedSequences@@QAEMVCATime@@H@Z 004f3400 f   Libs CURE:CASequence.obj
 0001:000f25e0       ?getAnimatedValueFromIndex@CAAngle3DLinkedSequences@@QAE?AVQuaternion@@VCATime@@H@Z 004f35e0 f   Libs CURE:CASequence.obj
 0001:000f2950       ??0StandardMemoryManager@@QAE@XZ 004f3950 f   Libs CURE:MemoryManager.obj
 0001:000f2970       ??_GStandardMemoryManager@@UAEPAXI@Z 004f3970 f i Libs CURE:MemoryManager.obj
 0001:000f2970       ??_EStandardMemoryManager@@UAEPAXI@Z 004f3970 f i Libs CURE:MemoryManager.obj
 0001:000f2990       ??1StandardMemoryManager@@UAE@XZ 004f3990 f   Libs CURE:MemoryManager.obj
 0001:000f29a0       ?free@StandardMemoryManager@@UAEXPAX@Z 004f39a0 f   Libs CURE:MemoryManager.obj
 0001:000f29d0       ?malloc@StandardMemoryManager@@UAEPAXHH@Z 004f39d0 f   Libs CURE:MemoryManager.obj
 0001:000f2a00       ?getStats@StandardMemoryManager@@UBEXAAH00@Z 004f3a00 f   Libs CURE:MemoryManager.obj
 0001:000f2a20       ?setup@MemoryReservoir@AlignedMemoryManager@@QAE_NH@Z 004f3a20 f   Libs CURE:MemoryManager.obj
 0001:000f2a50       ??_EMemoryManager@@UAEPAXI@Z 004f3a50 f i Libs CURE:MemoryManager.obj
 0001:000f2a50       ??_GMemoryManager@@UAEPAXI@Z 004f3a50 f i Libs CURE:MemoryManager.obj
 0001:000f2a70       ??1MemoryReservoir@AlignedMemoryManager@@QAE@XZ 004f3a70 f   Libs CURE:MemoryManager.obj
 0001:000f2ab0       ??0AlignedMemoryManager@@QAE@XZ 004f3ab0 f   Libs CURE:MemoryManager.obj
 0001:000f2ad0       ??_GAlignedMemoryManager@@UAEPAXI@Z 004f3ad0 f i Libs CURE:MemoryManager.obj
 0001:000f2ad0       ??_EAlignedMemoryManager@@UAEPAXI@Z 004f3ad0 f i Libs CURE:MemoryManager.obj
 0001:000f2af0       ??1AlignedMemoryManager@@UAE@XZ 004f3af0 f   Libs CURE:MemoryManager.obj
 0001:000f2b80       ??1MemoryManager@@UAE@XZ   004f3b80 f i Libs CURE:MemoryManager.obj
 0001:000f2b90       ??_GMemoryReservoir@AlignedMemoryManager@@QAEPAXI@Z 004f3b90 f i Libs CURE:MemoryManager.obj
 0001:000f2bd0       ?setup@AlignedMemoryManager@@QAE_NH@Z 004f3bd0 f   Libs CURE:MemoryManager.obj
 0001:000f2c10       ?getStats@AlignedMemoryManager@@UBEXAAH00@Z 004f3c10 f   Libs CURE:MemoryManager.obj
 0001:000f2c80       ?find@AlignedMemoryManager@@AAEHPAX@Z 004f3c80 f   Libs CURE:MemoryManager.obj
 0001:000f2cc0       ?removeReference@AlignedMemoryManager@@AAEXH@Z 004f3cc0 f   Libs CURE:MemoryManager.obj
 0001:000f2d10       ?free@AlignedMemoryManager@@UAEXPAX@Z 004f3d10 f   Libs CURE:MemoryManager.obj
 0001:000f2e20       ?findPlace@AlignedMemoryManager@@AAEXHHAAPAVMemoryReservoir@1@AAH1@Z 004f3e20 f   Libs CURE:MemoryManager.obj
 0001:000f2ee0       ?malloc@AlignedMemoryManager@@UAEPAXHH@Z 004f3ee0 f   Libs CURE:MemoryManager.obj
 0001:000f31a0       ?prepare@LightResource@@QAEXXZ 004f41a0 f   Libs CURE:ResourcePrepare.obj
 0001:000f34c0       ?prepare@TextureResource@@QAE_NXZ 004f44c0 f   Libs CURE:ResourcePrepare.obj
 0001:000f3620       ??1CUREExternalImage@@UAE@XZ 004f4620 f i Libs CURE:ResourcePrepare.obj
 0001:000f3630       ?asSamePalette@TextureResource@@QBE_NPBV1@@Z 004f4630 f   Libs CURE:ResourcePrepare.obj
 0001:000f3690       ?prepare@TextureLightResource@@QAEXPBVTextureResource@@@Z 004f4690 f   Libs CURE:ResourcePrepare.obj
 0001:000f3960       ??0MemoryChunkFile@@QAE@PAXH@Z 004f4960 f   Libs CURE:MemoryChunkFile.obj
 0001:000f3980       ?getChunkKindOf@MemoryChunkFile@@QAE?AW4EKindOf@1@PAX@Z 004f4980 f   Libs CURE:MemoryChunkFile.obj
 0001:000f3990       ?getChunkNbElements@MemoryChunkFile@@QAEHPAX@Z 004f4990 f   Libs CURE:MemoryChunkFile.obj
 0001:000f39a0       ?findChunk@MemoryChunkFile@@QAEPAXE@Z 004f49a0 f   Libs CURE:MemoryChunkFile.obj
 0001:000f3a70       ?readChunk@MemoryChunkFile@@QAEXPAXW4EKindOf@1@0@Z 004f4a70 f   Libs CURE:MemoryChunkFile.obj
 0001:000f3ca0       ?getKindOfSize@MemoryChunkFile@@AAEHW4EKindOf@1@@Z 004f4ca0 f   Libs CURE:MemoryChunkFile.obj
 0001:000f3cf0       ?isKindOfSigned@MemoryChunkFile@@AAE_NW4EKindOf@1@@Z 004f4cf0 f   Libs CURE:MemoryChunkFile.obj
 0001:000f3d10       ?getSignedLongValue@MemoryChunkFile@@AAEJPAXW4EKindOf@1@@Z 004f4d10 f   Libs CURE:MemoryChunkFile.obj
 0001:000f3d80       ?getUnsignedLongValue@MemoryChunkFile@@AAEKPAXW4EKindOf@1@@Z 004f4d80 f   Libs CURE:MemoryChunkFile.obj
 0001:000f3df0       ?writeValue@MemoryChunkFile@@AAEXMPAXW4EKindOf@1@@Z 004f4df0 f   Libs CURE:MemoryChunkFile.obj
 0001:000f3ea0       ?writeValue@MemoryChunkFile@@AAEXJPAXW4EKindOf@1@@Z 004f4ea0 f   Libs CURE:MemoryChunkFile.obj
 0001:000f3f30       ?writeValue@MemoryChunkFile@@AAEXKPAXW4EKindOf@1@@Z 004f4f30 f   Libs CURE:MemoryChunkFile.obj
 0001:000f3ff0       ?TestBit@OctreeNode@@ABEHEH@Z 004f4ff0 f i Libs CURE:OctreeQuant.obj
 0001:000f4020       ?GetReducible@OctreeQuant@@AAEPAVOctreeNode@@XZ 004f5020 f   Libs CURE:OctreeQuant.obj
 0001:000f40c0       ?QuantizeColor@OctreeQuant@@ABEHPAVOctreeNode@@I@Z 004f50c0 f   Libs CURE:OctreeQuant.obj
 0001:000f42e0       ?RecurseClosestColorIndex@OctreeQuant@@ABEXPAVOctreeNode@@HHHAAH1@Z 004f52e0 f   Libs CURE:OctreeQuant.obj
 0001:000f43f0       ?MakeReducible@OctreeQuant@@AAEXPAVOctreeNode@@@Z 004f53f0 f   Libs CURE:OctreeQuant.obj
 0001:000f4420       ?FillColorOfIndexTable@OctreeQuant@@AAEXPAVOctreeNode@@PAUDitherColorPacket@1@@Z 004f5420 f   Libs CURE:OctreeQuant.obj
 0001:000f44e0       ??0OctreeQuant@@QAE@H@Z    004f54e0 f   Libs CURE:OctreeQuant.obj
 0001:000f4520       ??1OctreeQuant@@QAE@XZ     004f5520 f   Libs CURE:OctreeQuant.obj
 0001:000f4540       ?ProcessImageRGB@OctreeQuant@@QAE_NHH@Z 004f5540 f   Libs CURE:OctreeQuant.obj
 0001:000f46c0       ?DeleteNode@OctreeQuant@@AAEXPAVOctreeNode@@@Z 004f56c0 f   Libs CURE:OctreeQuant.obj
 0001:000f4720       ?InsertNode@OctreeQuant@@AAE_NPAVOctreeNode@@I@Z 004f5720 f   Libs CURE:OctreeQuant.obj
 0001:000f4920       ?ReduceTree@OctreeQuant@@AAEXXZ 004f5920 f   Libs CURE:OctreeQuant.obj
 0001:000f4a60       ?BuildPalette@OctreeQuant@@QAEHXZ 004f5a60 f   Libs CURE:OctreeQuant.obj
 0001:000f4b10       ?FillPalette@OctreeQuant@@AAEXPAVOctreeNode@@PAH@Z 004f5b10 f   Libs CURE:OctreeQuant.obj
 0001:000f4bc0       ?QuantizeColor@OctreeQuant@@QBEHI@Z 004f5bc0 f   Libs CURE:OctreeQuant.obj
 0001:000f4bf0       ?ReInitialize@OctreeQuant@@QAEXXZ 004f5bf0 f   Libs CURE:OctreeQuant.obj
 0001:000f4c50       ?QuantizeImageDither@OctreeQuant@@AAE_NHH@Z 004f5c50 f   Libs CURE:OctreeQuantDither.obj
 0001:000f5290       ?drawScanLine@CPolyWrapper_TextureCorrected_Opaque@@UBEXXZ 004f6290 f   Libs CURE:scanline_TextureCorrected.obj
 0001:000f56c0       ?drawScanLineG@CPolyWrapper_TextureCorrected_Opaque@@UBEXXZ 004f66c0 f   Libs CURE:scanline_TextureCorrected.obj
 0001:000f5b20       ?drawScanLineC@CPolyWrapper_TextureCorrected_Opaque@@UBEXXZ 004f6b20 f   Libs CURE:scanline_TextureCorrected.obj
 0001:000f5f70       ?drawScanLineGC@CPolyWrapper_TextureCorrected_Opaque@@UBEXXZ 004f6f70 f   Libs CURE:scanline_TextureCorrected.obj
 0001:000f63e0       ?drawScanLineAsm@CPolyWrapper_TextureCorrected_Opaque@@UBEXXZ 004f73e0 f   Libs CURE:scanline_TextureCorrected.obj
 0001:000f63f0       ?drawScanLineAsmG@CPolyWrapper_TextureCorrected_Opaque@@UBEXXZ 004f73f0 f   Libs CURE:scanline_TextureCorrected.obj
 0001:000f6400       ?drawScanLineAsmC@CPolyWrapper_TextureCorrected_Opaque@@UBEXXZ 004f7400 f   Libs CURE:scanline_TextureCorrected.obj
 0001:000f6410       ?drawScanLineAsmGC@CPolyWrapper_TextureCorrected_Opaque@@UBEXXZ 004f7410 f   Libs CURE:scanline_TextureCorrected.obj
 0001:000f6420       ?drawScanLine32@CPolyWrapper_TextureCorrected_Opaque@@UBEXXZ 004f7420 f   Libs CURE:scanline_TextureCorrected.obj
 0001:000f6860       ?drawScanLineG32@CPolyWrapper_TextureCorrected_Opaque@@UBEXXZ 004f7860 f   Libs CURE:scanline_TextureCorrected.obj
 0001:000f6cb0       ?drawScanLineC32@CPolyWrapper_TextureCorrected_Opaque@@UBEXXZ 004f7cb0 f   Libs CURE:scanline_TextureCorrected.obj
 0001:000f7110       ?drawScanLineGC32@CPolyWrapper_TextureCorrected_Opaque@@UBEXXZ 004f8110 f   Libs CURE:scanline_TextureCorrected.obj
 0001:000f7580       ?drawScanLine@CPolyWrapper_TextureCorrected_Transparent@@UBEXXZ 004f8580 f   Libs CURE:scanline_TextureCorrected.obj
 0001:000f79e0       ?drawScanLineG@CPolyWrapper_TextureCorrected_Transparent@@UBEXXZ 004f89e0 f   Libs CURE:scanline_TextureCorrected.obj
 0001:000f7e90       ?drawScanLineC@CPolyWrapper_TextureCorrected_Transparent@@UBEXXZ 004f8e90 f   Libs CURE:scanline_TextureCorrected.obj
 0001:000f8300       ?drawScanLineGC@CPolyWrapper_TextureCorrected_Transparent@@UBEXXZ 004f9300 f   Libs CURE:scanline_TextureCorrected.obj
 0001:000f87c0       ?drawScanLineAsm@CPolyWrapper_TextureCorrected_Transparent@@UBEXXZ 004f97c0 f   Libs CURE:scanline_TextureCorrected.obj
 0001:000f87d0       ?drawScanLineAsmG@CPolyWrapper_TextureCorrected_Transparent@@UBEXXZ 004f97d0 f   Libs CURE:scanline_TextureCorrected.obj
 0001:000f87e0       ?drawScanLineAsmC@CPolyWrapper_TextureCorrected_Transparent@@UBEXXZ 004f97e0 f   Libs CURE:scanline_TextureCorrected.obj
 0001:000f87f0       ?drawScanLineAsmGC@CPolyWrapper_TextureCorrected_Transparent@@UBEXXZ 004f97f0 f   Libs CURE:scanline_TextureCorrected.obj
 0001:000f8800       ?drawScanLine32@CPolyWrapper_TextureCorrected_Transparent@@UBEXXZ 004f9800 f   Libs CURE:scanline_TextureCorrected.obj
 0001:000f8c70       ?drawScanLineG32@CPolyWrapper_TextureCorrected_Transparent@@UBEXXZ 004f9c70 f   Libs CURE:scanline_TextureCorrected.obj
 0001:000f9100       ?drawScanLineC32@CPolyWrapper_TextureCorrected_Transparent@@UBEXXZ 004fa100 f   Libs CURE:scanline_TextureCorrected.obj
 0001:000f9580       ?drawScanLineGC32@CPolyWrapper_TextureCorrected_Transparent@@UBEXXZ 004fa580 f   Libs CURE:scanline_TextureCorrected.obj
 0001:000f9a30       ?drawScanLine@CPolyWrapper_TextureCorrected_Additif@@UBEXXZ 004faa30 f   Libs CURE:scanline_TextureCorrected.obj
 0001:000f9eb0       ?drawScanLineG@CPolyWrapper_TextureCorrected_Additif@@UBEXXZ 004faeb0 f   Libs CURE:scanline_TextureCorrected.obj
 0001:000fa390       ?drawScanLineC@CPolyWrapper_TextureCorrected_Additif@@UBEXXZ 004fb390 f   Libs CURE:scanline_TextureCorrected.obj
 0001:000fa830       ?drawScanLineGC@CPolyWrapper_TextureCorrected_Additif@@UBEXXZ 004fb830 f   Libs CURE:scanline_TextureCorrected.obj
 0001:000fad20       ?drawScanLineAsm@CPolyWrapper_TextureCorrected_Additif@@UBEXXZ 004fbd20 f   Libs CURE:scanline_TextureCorrected.obj
 0001:000fad30       ?drawScanLineAsmG@CPolyWrapper_TextureCorrected_Additif@@UBEXXZ 004fbd30 f   Libs CURE:scanline_TextureCorrected.obj
 0001:000fad40       ?drawScanLineAsmC@CPolyWrapper_TextureCorrected_Additif@@UBEXXZ 004fbd40 f   Libs CURE:scanline_TextureCorrected.obj
 0001:000fad50       ?drawScanLineAsmGC@CPolyWrapper_TextureCorrected_Additif@@UBEXXZ 004fbd50 f   Libs CURE:scanline_TextureCorrected.obj
 0001:000fad60       ?drawScanLine32@CPolyWrapper_TextureCorrected_Additif@@UBEXXZ 004fbd60 f   Libs CURE:scanline_TextureCorrected.obj
 0001:000fb1f0       ?drawScanLineG32@CPolyWrapper_TextureCorrected_Additif@@UBEXXZ 004fc1f0 f   Libs CURE:scanline_TextureCorrected.obj
 0001:000fb6a0       ?drawScanLineC32@CPolyWrapper_TextureCorrected_Additif@@UBEXXZ 004fc6a0 f   Libs CURE:scanline_TextureCorrected.obj
 0001:000fbb40       ?drawScanLineGC32@CPolyWrapper_TextureCorrected_Additif@@UBEXXZ 004fcb40 f   Libs CURE:scanline_TextureCorrected.obj
 0001:000fc010       ?computeGradients@CPolyWrapper_TextureCorrected@@UBEXQAUPolyPoint2D@@@Z 004fd010 f   Libs CURE:PolyWrapper_TextureCorrected.obj
 0001:000fc2c0       ?makeEdgeLeft@CPolyWrapper_TextureCorrected@@UBEXAAUPolyPoint2D@@0@Z 004fd2c0 f   Libs CURE:PolyWrapper_TextureCorrected.obj
 0001:000fc4b0       ?makeEdgeRight@CPolyWrapper_TextureCorrected@@UBEXAAUPolyPoint2D@@0@Z 004fd4b0 f   Libs CURE:PolyWrapper_TextureCorrected.obj
 0001:000fc670       ?stepEdgeLeft@CPolyWrapper_TextureCorrected@@UBEXXZ 004fd670 f   Libs CURE:PolyWrapper_TextureCorrected.obj
 0001:000fc750       ?stepEdgeRight@CPolyWrapper_TextureCorrected@@UBEXXZ 004fd750 f   Libs CURE:PolyWrapper_TextureCorrected.obj
 0001:000fc800       ?drawScanLine@CPolyWrapper_TextureAffineGouraud_Opaque@@UBEXXZ 004fd800 f   Libs CURE:scanline_TextureAffineGouraud.obj
 0001:000fc900       ?drawScanLineG@CPolyWrapper_TextureAffineGouraud_Opaque@@UBEXXZ 004fd900 f   Libs CURE:scanline_TextureAffineGouraud.obj
 0001:000fca00       ?drawScanLineC@CPolyWrapper_TextureAffineGouraud_Opaque@@UBEXXZ 004fda00 f   Libs CURE:scanline_TextureAffineGouraud.obj
 0001:000fcb10       ?drawScanLineGC@CPolyWrapper_TextureAffineGouraud_Opaque@@UBEXXZ 004fdb10 f   Libs CURE:scanline_TextureAffineGouraud.obj
 0001:000fcc20       ?drawScanLineAsm@CPolyWrapper_TextureAffineGouraud_Opaque@@UBEXXZ 004fdc20 f   Libs CURE:scanline_TextureAffineGouraud.obj
 0001:000fcc30       ?drawScanLineAsmG@CPolyWrapper_TextureAffineGouraud_Opaque@@UBEXXZ 004fdc30 f   Libs CURE:scanline_TextureAffineGouraud.obj
 0001:000fcc40       ?drawScanLineAsmC@CPolyWrapper_TextureAffineGouraud_Opaque@@UBEXXZ 004fdc40 f   Libs CURE:scanline_TextureAffineGouraud.obj
 0001:000fcc50       ?drawScanLineAsmGC@CPolyWrapper_TextureAffineGouraud_Opaque@@UBEXXZ 004fdc50 f   Libs CURE:scanline_TextureAffineGouraud.obj
 0001:000fcc60       ?drawScanLine32@CPolyWrapper_TextureAffineGouraud_Opaque@@UBEXXZ 004fdc60 f   Libs CURE:scanline_TextureAffineGouraud.obj
 0001:000fcd60       ?drawScanLineG32@CPolyWrapper_TextureAffineGouraud_Opaque@@UBEXXZ 004fdd60 f   Libs CURE:scanline_TextureAffineGouraud.obj
 0001:000fce60       ?drawScanLineC32@CPolyWrapper_TextureAffineGouraud_Opaque@@UBEXXZ 004fde60 f   Libs CURE:scanline_TextureAffineGouraud.obj
 0001:000fcf70       ?drawScanLineGC32@CPolyWrapper_TextureAffineGouraud_Opaque@@UBEXXZ 004fdf70 f   Libs CURE:scanline_TextureAffineGouraud.obj
 0001:000fd080       ?drawScanLine@CPolyWrapper_TextureAffineGouraud_Transparent@@UBEXXZ 004fe080 f   Libs CURE:scanline_TextureAffineGouraud.obj
 0001:000fd190       ?drawScanLineG@CPolyWrapper_TextureAffineGouraud_Transparent@@UBEXXZ 004fe190 f   Libs CURE:scanline_TextureAffineGouraud.obj
 0001:000fd2c0       ?drawScanLineC@CPolyWrapper_TextureAffineGouraud_Transparent@@UBEXXZ 004fe2c0 f   Libs CURE:scanline_TextureAffineGouraud.obj
 0001:000fd3e0       ?drawScanLineGC@CPolyWrapper_TextureAffineGouraud_Transparent@@UBEXXZ 004fe3e0 f   Libs CURE:scanline_TextureAffineGouraud.obj
 0001:000fd510       ?drawScanLineAsm@CPolyWrapper_TextureAffineGouraud_Transparent@@UBEXXZ 004fe510 f   Libs CURE:scanline_TextureAffineGouraud.obj
 0001:000fd520       ?drawScanLineAsmG@CPolyWrapper_TextureAffineGouraud_Transparent@@UBEXXZ 004fe520 f   Libs CURE:scanline_TextureAffineGouraud.obj
 0001:000fd530       ?drawScanLineAsmC@CPolyWrapper_TextureAffineGouraud_Transparent@@UBEXXZ 004fe530 f   Libs CURE:scanline_TextureAffineGouraud.obj
 0001:000fd540       ?drawScanLineAsmGC@CPolyWrapper_TextureAffineGouraud_Transparent@@UBEXXZ 004fe540 f   Libs CURE:scanline_TextureAffineGouraud.obj
 0001:000fd550       ?drawScanLine32@CPolyWrapper_TextureAffineGouraud_Transparent@@UBEXXZ 004fe550 f   Libs CURE:scanline_TextureAffineGouraud.obj
 0001:000fd650       ?drawScanLineG32@CPolyWrapper_TextureAffineGouraud_Transparent@@UBEXXZ 004fe650 f   Libs CURE:scanline_TextureAffineGouraud.obj
 0001:000fd770       ?drawScanLineC32@CPolyWrapper_TextureAffineGouraud_Transparent@@UBEXXZ 004fe770 f   Libs CURE:scanline_TextureAffineGouraud.obj
 0001:000fd880       ?drawScanLineGC32@CPolyWrapper_TextureAffineGouraud_Transparent@@UBEXXZ 004fe880 f   Libs CURE:scanline_TextureAffineGouraud.obj
 0001:000fd9b0       ?drawScanLine@CPolyWrapper_TextureAffineGouraud_Additif@@UBEXXZ 004fe9b0 f   Libs CURE:scanline_TextureAffineGouraud.obj
 0001:000fdae0       ?drawScanLineG@CPolyWrapper_TextureAffineGouraud_Additif@@UBEXXZ 004feae0 f   Libs CURE:scanline_TextureAffineGouraud.obj
 0001:000fdc30       ?drawScanLineC@CPolyWrapper_TextureAffineGouraud_Additif@@UBEXXZ 004fec30 f   Libs CURE:scanline_TextureAffineGouraud.obj
 0001:000fdd70       ?drawScanLineGC@CPolyWrapper_TextureAffineGouraud_Additif@@UBEXXZ 004fed70 f   Libs CURE:scanline_TextureAffineGouraud.obj
 0001:000fdec0       ?drawScanLineAsm@CPolyWrapper_TextureAffineGouraud_Additif@@UBEXXZ 004feec0 f   Libs CURE:scanline_TextureAffineGouraud.obj
 0001:000fded0       ?drawScanLineAsmG@CPolyWrapper_TextureAffineGouraud_Additif@@UBEXXZ 004feed0 f   Libs CURE:scanline_TextureAffineGouraud.obj
 0001:000fdee0       ?drawScanLineAsmC@CPolyWrapper_TextureAffineGouraud_Additif@@UBEXXZ 004feee0 f   Libs CURE:scanline_TextureAffineGouraud.obj
 0001:000fdef0       ?drawScanLineAsmGC@CPolyWrapper_TextureAffineGouraud_Additif@@UBEXXZ 004feef0 f   Libs CURE:scanline_TextureAffineGouraud.obj
 0001:000fdf00       ?drawScanLine32@CPolyWrapper_TextureAffineGouraud_Additif@@UBEXXZ 004fef00 f   Libs CURE:scanline_TextureAffineGouraud.obj
 0001:000fe010       ?drawScanLineG32@CPolyWrapper_TextureAffineGouraud_Additif@@UBEXXZ 004ff010 f   Libs CURE:scanline_TextureAffineGouraud.obj
 0001:000fe140       ?drawScanLineC32@CPolyWrapper_TextureAffineGouraud_Additif@@UBEXXZ 004ff140 f   Libs CURE:scanline_TextureAffineGouraud.obj
 0001:000fe260       ?drawScanLineGC32@CPolyWrapper_TextureAffineGouraud_Additif@@UBEXXZ 004ff260 f   Libs CURE:scanline_TextureAffineGouraud.obj
 0001:000fe3a0       ?computeGradients@CPolyWrapper_TextureAffineGouraud@@UBEXQAUPolyPoint2D@@@Z 004ff3a0 f   Libs CURE:PolyWrapper_TextureAffineGouraud.obj
 0001:000fe680       ?makeEdgeLeft@CPolyWrapper_TextureAffineGouraud@@UBEXAAUPolyPoint2D@@0@Z 004ff680 f   Libs CURE:PolyWrapper_TextureAffineGouraud.obj
 0001:000fe930       ?makeEdgeRight@CPolyWrapper_TextureAffineGouraud@@UBEXAAUPolyPoint2D@@0@Z 004ff930 f   Libs CURE:PolyWrapper_TextureAffineGouraud.obj
 0001:000fea30       ?stepEdgeLeft@CPolyWrapper_TextureAffineGouraud@@UBEXXZ 004ffa30 f   Libs CURE:PolyWrapper_TextureAffineGouraud.obj
 0001:000feb30       ?stepEdgeRight@CPolyWrapper_TextureAffineGouraud@@UBEXXZ 004ffb30 f   Libs CURE:PolyWrapper_TextureAffineGouraud.obj
 0001:000feb80       ?drawScanLine@CPolyWrapper_TextureCorrectedGouraud_Opaque@@UBEXXZ 004ffb80 f   Libs CURE:scanline_TextureCorrectedGouraud.obj
 0001:000ff020       ?drawScanLineG@CPolyWrapper_TextureCorrectedGouraud_Opaque@@UBEXXZ 00500020 f   Libs CURE:scanline_TextureCorrectedGouraud.obj
 0001:000ff4b0       ?drawScanLineC@CPolyWrapper_TextureCorrectedGouraud_Opaque@@UBEXXZ 005004b0 f   Libs CURE:scanline_TextureCorrectedGouraud.obj
 0001:000ff960       ?drawScanLineGC@CPolyWrapper_TextureCorrectedGouraud_Opaque@@UBEXXZ 00500960 f   Libs CURE:scanline_TextureCorrectedGouraud.obj
 0001:000ffe00       ?drawScanLineAsm@CPolyWrapper_TextureCorrectedGouraud_Opaque@@UBEXXZ 00500e00 f   Libs CURE:scanline_TextureCorrectedGouraud.obj
 0001:000ffe10       ?drawScanLineAsmG@CPolyWrapper_TextureCorrectedGouraud_Opaque@@UBEXXZ 00500e10 f   Libs CURE:scanline_TextureCorrectedGouraud.obj
 0001:000ffe20       ?drawScanLineAsmC@CPolyWrapper_TextureCorrectedGouraud_Opaque@@UBEXXZ 00500e20 f   Libs CURE:scanline_TextureCorrectedGouraud.obj
 0001:000ffe30       ?drawScanLineAsmGC@CPolyWrapper_TextureCorrectedGouraud_Opaque@@UBEXXZ 00500e30 f   Libs CURE:scanline_TextureCorrectedGouraud.obj
 0001:000ffe40       ?drawScanLine32@CPolyWrapper_TextureCorrectedGouraud_Opaque@@UBEXXZ 00500e40 f   Libs CURE:scanline_TextureCorrectedGouraud.obj
 0001:001002d0       ?drawScanLineG32@CPolyWrapper_TextureCorrectedGouraud_Opaque@@UBEXXZ 005012d0 f   Libs CURE:scanline_TextureCorrectedGouraud.obj
 0001:00100760       ?drawScanLineC32@CPolyWrapper_TextureCorrectedGouraud_Opaque@@UBEXXZ 00501760 f   Libs CURE:scanline_TextureCorrectedGouraud.obj
 0001:00100c10       ?drawScanLineGC32@CPolyWrapper_TextureCorrectedGouraud_Opaque@@UBEXXZ 00501c10 f   Libs CURE:scanline_TextureCorrectedGouraud.obj
 0001:001010b0       ?drawScanLine@CPolyWrapper_TextureCorrectedGouraud_Transparent@@UBEXXZ 005020b0 f   Libs CURE:scanline_TextureCorrectedGouraud.obj
 0001:00101570       ?drawScanLineG@CPolyWrapper_TextureCorrectedGouraud_Transparent@@UBEXXZ 00502570 f   Libs CURE:scanline_TextureCorrectedGouraud.obj
 0001:00101a40       ?drawScanLineC@CPolyWrapper_TextureCorrectedGouraud_Transparent@@UBEXXZ 00502a40 f   Libs CURE:scanline_TextureCorrectedGouraud.obj
 0001:00101f20       ?drawScanLineGC@CPolyWrapper_TextureCorrectedGouraud_Transparent@@UBEXXZ 00502f20 f   Libs CURE:scanline_TextureCorrectedGouraud.obj
 0001:00102410       ?drawScanLineAsm@CPolyWrapper_TextureCorrectedGouraud_Transparent@@UBEXXZ 00503410 f   Libs CURE:scanline_TextureCorrectedGouraud.obj
 0001:00102420       ?drawScanLineAsmG@CPolyWrapper_TextureCorrectedGouraud_Transparent@@UBEXXZ 00503420 f   Libs CURE:scanline_TextureCorrectedGouraud.obj
 0001:00102430       ?drawScanLineAsmC@CPolyWrapper_TextureCorrectedGouraud_Transparent@@UBEXXZ 00503430 f   Libs CURE:scanline_TextureCorrectedGouraud.obj
 0001:00102440       ?drawScanLineAsmGC@CPolyWrapper_TextureCorrectedGouraud_Transparent@@UBEXXZ 00503440 f   Libs CURE:scanline_TextureCorrectedGouraud.obj
 0001:00102450       ?drawScanLine32@CPolyWrapper_TextureCorrectedGouraud_Transparent@@UBEXXZ 00503450 f   Libs CURE:scanline_TextureCorrectedGouraud.obj
 0001:00102900       ?drawScanLineG32@CPolyWrapper_TextureCorrectedGouraud_Transparent@@UBEXXZ 00503900 f   Libs CURE:scanline_TextureCorrectedGouraud.obj
 0001:00102dd0       ?drawScanLineC32@CPolyWrapper_TextureCorrectedGouraud_Transparent@@UBEXXZ 00503dd0 f   Libs CURE:scanline_TextureCorrectedGouraud.obj
 0001:00103290       ?drawScanLineGC32@CPolyWrapper_TextureCorrectedGouraud_Transparent@@UBEXXZ 00504290 f   Libs CURE:scanline_TextureCorrectedGouraud.obj
 0001:00103770       ?drawScanLine@CPolyWrapper_TextureCorrectedGouraud_Additif@@UBEXXZ 00504770 f   Libs CURE:scanline_TextureCorrectedGouraud.obj
 0001:00103c60       ?drawScanLineG@CPolyWrapper_TextureCorrectedGouraud_Additif@@UBEXXZ 00504c60 f   Libs CURE:scanline_TextureCorrectedGouraud.obj
 0001:00104170       ?drawScanLineC@CPolyWrapper_TextureCorrectedGouraud_Additif@@UBEXXZ 00505170 f   Libs CURE:scanline_TextureCorrectedGouraud.obj
